(dp1
S'output'
p2
S"<type 'exceptions.AttributeError'> "
p3
sS'layer'
p4
S'/home/abhi/Downloads/CourseMaterial/web2Py/web2py/applications/final/views/default/pop.html'
p5
sS'code'
p6
S'response.write(\'<!DOCTYPE html>\\n<html lang="en">\\n  <head>\\n    <meta charset="utf-8">\\n    <meta name="viewport" content="width=device-width, initial-scale=1.0">\\n    <meta name="description" content="Creative - Bootstrap 3 Responsive Admin Template">\\n    <meta name="author" content="GeeksLabs">\\n    <meta name="keyword" content="Creative, Dashboard, Admin, Template, Theme, Bootstrap, Responsive, Retina, Minimal">\\n    <link rel="shortcut icon" href="img/favicon.png">\\n\\n    <title>Total Entertainment</title>\\n    <link href="\', escape=False)\nresponse.write(URL(\'static\',\'css/bootstrap.min.css\'))\nresponse.write(\'" rel="stylesheet">\\n    <!-- bootstrap theme -->\\n    <link href="\', escape=False)\nresponse.write(URL(\'static\',\'css/bootstrap-theme.css\'))\nresponse.write(\'" rel="stylesheet">\\n    <!--external css-->\\n    <!-- font icon -->\\n    <link href="\', escape=False)\nresponse.write(URL(\'static\',\'css/elegant-icons-style.css\'))\nresponse.write(\'" rel="stylesheet" />\\n    <link href="\', escape=False)\nresponse.write(URL(\'static\',\'css/font-awesome.min.css\'))\nresponse.write(\'" rel="stylesheet" />\\n    <!-- owl carousel -->\\n   <!-- <link rel="stylesheet" href="\', escape=False)\nresponse.write(URL(\'static\',\'css/owl.carousel.css\'))\nresponse.write(\'" type="text/css">-->\\n  <link href="\', escape=False)\nresponse.write(URL(\'static\',\'css/jquery-jvectormap-1.2.2.css\'))\nresponse.write(\'" rel="stylesheet">\\n    <!-- Custom styles -->\\n  <link rel="stylesheet" href="\', escape=False)\nresponse.write(URL(\'static\',\'css/fullcalendar.css\'))\nresponse.write(\'">\\n  <link href="\', escape=False)\nresponse.write(URL(\'static\',\'css/widgets.css\'))\nresponse.write(\'" rel="stylesheet">\\n    <link href="\', escape=False)\nresponse.write(URL(\'static\',\'css/style.css\'))\nresponse.write(\'" rel="stylesheet">\\n    <link href="\', escape=False)\nresponse.write(URL(\'static\',\'css/style-responsive.css\'))\nresponse.write(\'" rel="stylesheet" />\\n  <link href="\', escape=False)\nresponse.write(URL(\'static\',\'css/xcharts.min.css\'))\nresponse.write(\'" rel=" stylesheet">  \\n  <link href="\', escape=False)\nresponse.write(URL(\'static\',\'css/jquery-ui-1.10.4.min.css\'))\nresponse.write(\'" rel="stylesheet">\\n\\n    <script type="text/javascript" src="\', escape=False)\nresponse.write(URL(\'static\',\'js/jquery-1.9.1.min.js\'))\nresponse.write(\'"></script>\\n    <script type="text/javascript" src="\', escape=False)\nresponse.write(URL(\'static\',\'js/jssor.slider.mini.js\'))\nresponse.write(\'"></script>\\n  </head>\\n\\n  <body>\\n  <!-- container section start -->\\n\\n\\n\\n\\n\\n\\n\\n\\n  <section id="container" class="">\\n     \\n      \\n      <header class="header my-green-bg">\\n            <div class="toggle-nav">\\n                <div class="icon-reorder tooltips" data-original-title="Toggle Navigation" data-placement="bottom"></div>\\n            </div>\\n\\n            <!--logo start-->\\n            <a href="\', escape=False)\nresponse.write(URL(\'index.html\'))\nresponse.write(\'" class="logo"><strong>total&nbsp;&nbsp;&nbsp;<span class="lite">entertainment</span></strong></a>\\n            <!--logo end-->\\n\\n            <div class="nav search-row" id="top_menu">\\n                <!--  search form start -->\\n                <ul class="nav top-menu">                    \\n                    <li>\\n                        <form class="navbar-form" action="#" enctype="multipart/form-data" method="post">\\n                            <input class="form-control" placeholder="Search for your favourite Songs and Videos" type="text" name="query">\\n                            \\n                        <select name="option" class = "selectpicker" data-style = "btn-primary" value="5">\\n                            <option value="V">Video</option>\\n                            <option value="A">Audio</option>\\n                        </select>\\n                            <div style="display:none;">\\n                              <input name="_formkey" type="hidden" value="\', escape=False)\nresponse.write(form.formkey)\nresponse.write(\'" />\\n                              <input name="_formname" type="hidden" value="no_table/create" />\\n                            </div>\\n                        </form>\\n                    </li>                    \\n                </ul>\\n                <!--  search form end -->                \\n            </div>\\n            <div class="top-nav notification-row">                \\n                <!-- notificatoin dropdown start-->\\n                <ul class="nav pull-right top-menu">\\n                    \\n                    <!-- user login dropdown start-->\\n                    \\n                    <li class="dropdown">\\n                    \', escape=False)\nif auth.is_logged_in():\n    response.write(\'\\n                        <a data-toggle="dropdown" class="dropdown-toggle" href="#">\\n                            <span class="profile-ava">\\n                                <img alt="" src="\', escape=False)\n    response.write(URL(\'static\',\'images/avatar-mini2.jpg\'))\n    response.write(\'">\\n                            </span>\\n                            <span class="username">Yo \', escape=False)\n    response.write(auth.user.first_name)\n    response.write(\'&nbsp;<strong>!</strong></span>\\n                            <b class="caret"></b>\\n                        </a>\\n\\n                        <ul class="dropdown-menu extended logout">\\n                            <div class="log-arrow-up"></div>\\n                            <li class="eborder-top">\\n                                <a href="\', escape=False)\n    response.write(URL(\'default\',\'user/register\'))\n    response.write(\'"><i class="icon_profile"></i> My Profile</a>\\n                            </li>\\n                            <li>\\n                                <a href="\', escape=False)\n    response.write(URL(\'default\',\'user/register\'))\n    response.write(\'"><i class="icon_mail_alt"></i> My Favourite</a>\\n                            </li>\\n                            <li>\\n                                <a href="\', escape=False)\n    response.write(URL(\'default\',\'user/logout\'))\n    response.write(\'"><i class="icon_clock_alt"></i> Logout</a>\\n                            </li>\\n                        </ul>\\n                      \', escape=False)\nelse:\n    response.write(\'\\n                      <a data-toggle="dropdown" class="dropdown-toggle" href="#">\\n                          <!--  <span class="profile-ava">-->\\n                                <img alt="" src="\', escape=False)\n    response.write(URL(\'static\',\'images/key.png\'))\n    response.write(\'">\\n                          <!--  </span> -->\\n                            <span class="username">LogIn</span>\\n                            <b class="caret"></b>\\n                        </a>\\n                      <ul class="dropdown-menu extended logout">\\n                            <div class="log-arrow-up"></div>\\n                            <li class="eborder-top">\\n                                <a href="\', escape=False)\n    response.write(URL(\'user.html\'))\n    response.write(\'"><i class="icon_profile"></i>Log In</a>\\n                            </li>\\n                            <li>\\n                                <a href="\', escape=False)\n    response.write(URL(\'default\',\'user/register\'))\n    response.write(\'"><i class="icon_mail_alt"></i>Register</a>\\n                            </li>\\n                            <li>\\n                                <a href="\', escape=False)\n    response.write(URL(\'default\',\'user/request_reset_password\'))\n    response.write(\'"><i class="icon_clock_alt"></i>Forgot Password</a>\\n                            </li>\\n                       </ul> \\n                      \', escape=False)\n    pass\nresponse.write(\'\\n                    </li>\\n                    <!-- user login dropdown end -->\\n                </ul>\\n                <!-- notificatoin dropdown end-->\\n            </div>\\n      </header>      \\n      <!--header end-->\\n\\n      <!--sidebar start-->\\n        <aside>\\n          <div id="sidebar"  class="nav-collapse ">\\n              <!-- sidebar menu start-->\\n             \\n              <ul class="sidebar-menu">                \\n                  <li class="active">\\n                      <a class="" href="\', escape=False)\nresponse.write(URL(\'index.html\'))\nresponse.write(\'">\\n                          <i class="icon_house_alt"></i>\\n                          <span>Welcome </span>\\n                      </a>\\n                  </li>\\n          <li class="sub-menu">\\n                      <a href="javascript:;" class="">\\n                          <i class="fa fa-heart"></i>\\n                          <span>Favourite</span>\\n                          <span class="menu-arrow arrow_carrot-right"></span>\\n                      </a>\\n                      <ul class="sub">\\n                          <li><a class="" href="\', escape=False)\nresponse.write(URL(\'favsong.html\'))\nresponse.write(\'">Songs</a></li>                          \\n                          <li><a class="" href="\', escape=False)\nresponse.write(URL(\'favideo.html\'))\nresponse.write(\'">Videos</a></li>\\n                      </ul>\\n                  </li>       \\n                  <li class="sub-menu">\\n                      <a href="javascript:;" class="">\\n                          <i class="icon_desktop"></i>\\n                          <span>Playlists</span>\\n                          <span class="menu-arrow arrow_carrot-right"></span>\\n                      </a>\\n                      <ul class="sub">\\n                          <li><a class="" href="\', escape=False)\nresponse.write(URL(\'create.html\'))\nresponse.write(\'">Create</a></li>\\n                          <li><a class="" href="\', escape=False)\nresponse.write(URL(\'list.html\'))\nresponse.write(\'">Your Playlist1</a></li>\\n                          <li><a class="" href="\', escape=False)\nresponse.write(URL(\'spons_playlist.html\'))\nresponse.write(\'">Sponsered</a></li>\\n                      </ul>\\n                  </li>\\n                  <li>\\n                      <a class="" href="\', escape=False)\nresponse.write(URL(\'widgets.html\'))\nresponse.write(\'">\\n                          <i class="icon_genius"></i>\\n                          <span>See All</span>\\n                      </a>\\n                  </li>\\n                  <li>                     \\n                      <a class="" href=".html">\\n                          <i class="fa fa-music"></i>\\n                          <span>Top Charts</span>\\n                          \\n                      </a>\\n                                         \\n                  </li>\\n                             \\n                  <li class="sub-menu">\\n                      <a href="javascript:;" class="">\\n                          <i class="icon_table"></i>\\n                          <span>Discover</span>\\n                          <span class="menu-arrow arrow_carrot-right"></span>\\n                      </a>\\n                      <ul class="sub">\\n                          <li><a class="" href="bygenre.html">Genre</a></li>\\n                          <li><a class="" href="byartist.html">Artist/Band</a></li>\\n                          <li><a class="" href="bymovie.html">Movie</a></li>\\n                      </ul>\\n                  </li>\\n                  \\n                  <li class="sub-menu">\\n                      <a href="javascript:;" class="">\\n                          <i class="icon_documents_alt"></i>\\n                          <span>My Profile</span>\\n                          <span class="menu-arrow arrow_carrot-right"></span>\\n                      </a>\\n                      <ul class="sub">                          \\n                          <li><a class="" href="profile.html">Profile</a></li>\\n                          <li><a class="" href="history.html"><span>My History</span></a></li>\\n                          <li><a class="" href="myupload.html">My Uploads</a></li>\\n                      </ul>\\n                  </li>\\n                  \\n              </ul> <!-- sidebar menu end-->\\n          </div>\\n      </aside>\\n     <!--sidebar end-->\\n      \\n      <!--main content start-->\\n      <section id="main-content">\\n          <section class="wrapper">            \\n              <!--overview start-->\\n              <!--\\n           <div class="row">\\n        <div class="col-lg-3 col-md-3 col-sm-12 col-xs-12"><a href="">\\n          <div class="info-box blue-bg boxes">\\n            <i class="fa fa-music"></i>\\n            <div class="count">New</div>\\n            <div class="title">Albums</div>\\n          </div>\\n        </div>\\n        </a>\\n        \\n        <div class="col-lg-3 col-md-3 col-sm-12 col-xs-12"><a href="">\\n          <div class="info-box brown-bg boxes">\\n            <i class="fa fa-upload"></i>\\n            <div class="count">My</div>\\n            <div class="title">Uploads</div>            \\n          </div>\\n        </div>\\n        </a>\\n        \\n        <div class="col-lg-3 col-md-3 col-sm-12 col-xs-12"><a href="">\\n          <div class="info-box dark-bg boxes">\\n            <i class="fa fa-thumbs-o-up"></i>\\n            <div class="count">Most</div>\\n            <div class="title">Rated</div>            \\n          </div>\\n        </div>\\n        </a>\\n        \\n        <div class="col-lg-3 col-md-3 col-sm-12 col-xs-12"><a href="">\\n          <div class="info-box green-bg boxes">\\n            <i class="fa fa-play-circle-o"></i>\\n            <div class="count">Live</div>\\n            <div class="title">Radio</div>            \\n          </div>\\n        </div>\\n        </a>\\n        \\n      </div>\\n        -->\\n\\n        <h1>Browse your favourite Videos</h1>\\n<table class="table table-striped table-hover">\\n    <thead>\\n        <tr>\\n            <strong><th>Title</th></strong>\\n            <strong><th>Category</th></strong>\\n        </tr>\\n    </thead>\\n    <tbody>\\n    \', escape=False)\nfor s in res:\n    response.write(\'\\n        <tr>\\n            <td>\', escape=False)\n    response.write(A(s.title, _href=URL(\'see\',args=s.id)))\n    response.write(\' \\n            </td>\\n            <td>\', escape=False)\n    response.write(A(s.category,_href=URL(\'by_category\',args=s.category)))\n    response.write(\'\\n            </td>\\n        </tr>\\n    \', escape=False)\n    pass\nresponse.write(\'\\n    </tbody>\\n</table>\\n            \\n        \\n\\n              <!-- project team & activity start -->\\n          \\n              <!-- project team & activity end -->\\n\\n          </section>\\n      </section>\\n      <!--main content end-->\\n  </section>\\n\\n\\n\\n\\n\\n\\n\\n\\n\\n\\n\\n  <!-- container section start -->\\n\\n    <!-- javascripts -->\\n        <!-- javascripts -->\\n    <script src="\', escape=False)\nresponse.write(URL(\'static\',\'js/jquery.js\'))\nresponse.write(\'"></script>\\n  <script src="\', escape=False)\nresponse.write(URL(\'static\',\'js/jquery-ui-1.10.4.min.js\'))\nresponse.write(\'"></script>\\n    <script src="\', escape=False)\nresponse.write(URL(\'static\',\'js/jquery-1.8.3.min.js\'))\nresponse.write(\'"></script>\\n    <script type="text/javascript" src="\', escape=False)\nresponse.write(URL(\'static\',\'js/jquery-ui-1.9.2.custom.min.js\'))\nresponse.write(\'"></script>\\n    <script type="text/javascript" src="\', escape=False)\nresponse.write(URL(\'static\',\'js/bootbox.js\'))\nresponse.write(\'"></script>\\n    <!-- bootstrap -->\\n    <script src="\', escape=False)\nresponse.write(URL(\'static\',\'js/bootstrap.min.js\'))\nresponse.write(\'"></script>\\n    <!-- nice scroll -->\\n    <script src="\', escape=False)\nresponse.write(URL(\'static\',\'js/jquery.scrollTo.min.js\'))\nresponse.write(\'"></script>\\n    <script src="\', escape=False)\nresponse.write(URL(\'static\',\'js/jquery.nicescroll.js\'))\nresponse.write(\'" type="text/javascript"></script>\\n    <!-- charts scripts -->\\n    <script src="\', escape=False)\nresponse.write(URL(\'static\',\'js/jquery.sparkline.js\'))\nresponse.write(\'" type="text/javascript"></script>\\n  <script src="\', escape=False)\nresponse.write(URL(\'static\',\'js/jquery.rateit.min.js\'))\nresponse.write(\'"></script>\\n    <!-- custom select -->\\n    <script src="\', escape=False)\nresponse.write(URL(\'static\',\'js/jquery.customSelect.min.js\'))\nresponse.write(\'" ></script>\\n    <!--custome script for all page-->\\n    <script src="\', escape=False)\nresponse.write(URL(\'static\',\'js/scripts.js\'))\nresponse.write(\'"></script>\\n    <!-- custom script for this page-->\\n    <script src="\', escape=False)\nresponse.write(URL(\'static\',\'js/sparkline-chart.js\'))\nresponse.write(\'"></script>\\n  <script src="\', escape=False)\nresponse.write(URL(\'static\',\'js/jquery-jvectormap-1.2.2.min.js\'))\nresponse.write(\'"></script>\\n  <script src="\', escape=False)\nresponse.write(URL(\'static\',\'js/jquery-jvectormap-world-mill-en.js\'))\nresponse.write(\'"></script>\\n  <script src="\', escape=False)\nresponse.write(URL(\'static\',\'js/xcharts.min.js\'))\nresponse.write(\'"></script>\\n  <script src="\', escape=False)\nresponse.write(URL(\'static\',\'js/jquery.autosize.min.js\'))\nresponse.write(\'"></script>\\n  <script src="\', escape=False)\nresponse.write(URL(\'static\',\'js/jquery.placeholder.min.js\'))\nresponse.write(\'"></script>\\n  <script src="\', escape=False)\nresponse.write(URL(\'static\',\'js/gdp-data.js\'))\nresponse.write(\'"></script> \\n  <script src="\', escape=False)\nresponse.write(URL(\'static\',\'js/morris.min.js\'))\nresponse.write(\'"></script>\\n  <script src="\', escape=False)\nresponse.write(URL(\'static\',\'js/sparklines.js\'))\nresponse.write(\'"></script> \\n  <script src="\', escape=False)\nresponse.write(URL(\'static\',\'js/charts.js\'))\nresponse.write(\'"></script>\\n  <script src="\', escape=False)\nresponse.write(URL(\'static\',\'js/jquery.slimscroll.min.js\'))\nresponse.write(\'"></script>\\n\\n  </body>\\n</html>\', escape=False)'
p7
sS'snapshot'
p8
(dp9
S'exception'
p10
(dp11
S'__hash__'
p12
S"<method-wrapper '__hash__' of exceptions.AttributeError object>"
p13
sS'__setattr__'
p14
S"<method-wrapper '__setattr__' of exceptions.AttributeError object>"
p15
sS'__reduce_ex__'
p16
S'<built-in method __reduce_ex__ of exceptions.AttributeError object>'
p17
sS'__getslice__'
p18
S"<method-wrapper '__getslice__' of exceptions.AttributeError object>"
p19
sS'__getitem__'
p20
S"<method-wrapper '__getitem__' of exceptions.AttributeError object>"
p21
sS'__setstate__'
p22
S'<built-in method __setstate__ of exceptions.AttributeError object>'
p23
sS'args'
p24
S'()'
p25
sS'__reduce__'
p26
S'<built-in method __reduce__ of exceptions.AttributeError object>'
p27
sS'__str__'
p28
S"<method-wrapper '__str__' of exceptions.AttributeError object>"
p29
sS'__format__'
p30
S'<built-in method __format__ of exceptions.AttributeError object>'
p31
sS'__getattribute__'
p32
S"<method-wrapper '__getattribute__' of exceptions.AttributeError object>"
p33
sS'__class__'
p34
S"<type 'exceptions.AttributeError'>"
p35
sS'__unicode__'
p36
S'<built-in method __unicode__ of exceptions.AttributeError object>'
p37
sS'__delattr__'
p38
S"<method-wrapper '__delattr__' of exceptions.AttributeError object>"
p39
sS'__subclasshook__'
p40
S'<built-in method __subclasshook__ of type object>'
p41
sS'__repr__'
p42
S"<method-wrapper '__repr__' of exceptions.AttributeError object>"
p43
sS'__dict__'
p44
S'{}'
p45
sS'__sizeof__'
p46
S'<built-in method __sizeof__ of exceptions.AttributeError object>'
p47
sS'__doc__'
p48
S"'Attribute not found.'"
p49
sS'__init__'
p50
S"<method-wrapper '__init__' of exceptions.AttributeError object>"
p51
sS'__new__'
p52
S'<built-in method __new__ of type object>'
p53
ssS'evalue'
p54
S''
sS'request'
p55
cgluon.html
XML_unpickle
p56
(S's:g\x00\x00<div><table><tr><td style="font-weight:bold;vertical-align:top;">ajax</td><td style="vertical-align:top;">:</td><td><div>False</div></td></tr><tr><td style="font-weight:bold;vertical-align:top;">application</td><td style="vertical-align:top;">:</td><td><div>final</div></td></tr><tr><td style="font-weight:bold;vertical-align:top;">args</td><td style="vertical-align:top;">:</td><td><div><table></table></div></td></tr><tr><td style="font-weight:bold;vertical-align:top;">cid</td><td style="vertical-align:top;">:</td><td><div>None</div></td></tr><tr><td style="font-weight:bold;vertical-align:top;">client</td><td style="vertical-align:top;">:</td><td><div>127.0.0.1</div></td></tr><tr><td style="font-weight:bold;vertical-align:top;">controller</td><td style="vertical-align:top;">:</td><td><div>default</div></td></tr><tr><td style="font-weight:bold;vertical-align:top;">cookies</td><td style="vertical-align:top;">:</td><td><div><table><tr><td style="font-weight:bold;vertical-align:top;">session_id_admin</td><td style="vertical-align:top;">:</td><td><div>127.0.0.1-144f05f8-0628-4f43-beef-3d0df169978f<table><tr><td style="font-weight:bold;vertical-align:top;">comment</td><td style="vertical-align:top;">:</td><td><div></div></td></tr><tr><td style="font-weight:bold;vertical-align:top;">domain</td><td style="vertical-align:top;">:</td><td><div></div></td></tr><tr><td style="font-weight:bold;vertical-align:top;">expires</td><td style="vertical-align:top;">:</td><td><div></div></td></tr><tr><td style="font-weight:bold;vertical-align:top;">httponly</td><td style="vertical-align:top;">:</td><td><div></div></td></tr><tr><td style="font-weight:bold;vertical-align:top;">max-age</td><td style="vertical-align:top;">:</td><td><div></div></td></tr><tr><td style="font-weight:bold;vertical-align:top;">path</td><td style="vertical-align:top;">:</td><td><div></div></td></tr><tr><td style="font-weight:bold;vertical-align:top;">secure</td><td style="vertical-align:top;">:</td><td><div></div></td></tr><tr><td style="font-weight:bold;vertical-align:top;">version</td><td style="vertical-align:top;">:</td><td><div></div></td></tr></table></div></td></tr><tr><td style="font-weight:bold;vertical-align:top;">session_id_final</td><td style="vertical-align:top;">:</td><td><div>127.0.0.1-4d0f8936-e68c-4380-942c-8a6ddd61ece3<table><tr><td style="font-weight:bold;vertical-align:top;">comment</td><td style="vertical-align:top;">:</td><td><div></div></td></tr><tr><td style="font-weight:bold;vertical-align:top;">domain</td><td style="vertical-align:top;">:</td><td><div></div></td></tr><tr><td style="font-weight:bold;vertical-align:top;">expires</td><td style="vertical-align:top;">:</td><td><div></div></td></tr><tr><td style="font-weight:bold;vertical-align:top;">httponly</td><td style="vertical-align:top;">:</td><td><div></div></td></tr><tr><td style="font-weight:bold;vertical-align:top;">max-age</td><td style="vertical-align:top;">:</td><td><div></div></td></tr><tr><td style="font-weight:bold;vertical-align:top;">path</td><td style="vertical-align:top;">:</td><td><div></div></td></tr><tr><td style="font-weight:bold;vertical-align:top;">secure</td><td style="vertical-align:top;">:</td><td><div></div></td></tr><tr><td style="font-weight:bold;vertical-align:top;">version</td><td style="vertical-align:top;">:</td><td><div></div></td></tr></table></div></td></tr><tr><td style="font-weight:bold;vertical-align:top;">session_id_modal</td><td style="vertical-align:top;">:</td><td><div>127.0.0.1-686792ce-a9d0-4eb2-913e-ce7e5a93b8fb<table><tr><td style="font-weight:bold;vertical-align:top;">comment</td><td style="vertical-align:top;">:</td><td><div></div></td></tr><tr><td style="font-weight:bold;vertical-align:top;">domain</td><td style="vertical-align:top;">:</td><td><div></div></td></tr><tr><td style="font-weight:bold;vertical-align:top;">expires</td><td style="vertical-align:top;">:</td><td><div></div></td></tr><tr><td style="font-weight:bold;vertical-align:top;">httponly</td><td style="vertical-align:top;">:</td><td><div></div></td></tr><tr><td style="font-weight:bold;vertical-align:top;">max-age</td><td style="vertical-align:top;">:</td><td><div></div></td></tr><tr><td style="font-weight:bold;vertical-align:top;">path</td><td style="vertical-align:top;">:</td><td><div></div></td></tr><tr><td style="font-weight:bold;vertical-align:top;">secure</td><td style="vertical-align:top;">:</td><td><div></div></td></tr><tr><td style="font-weight:bold;vertical-align:top;">version</td><td style="vertical-align:top;">:</td><td><div></div></td></tr></table></div></td></tr><tr><td style="font-weight:bold;vertical-align:top;">session_id_mymusic</td><td style="vertical-align:top;">:</td><td><div>127.0.0.1-488eddb4-c7b6-40bf-b289-6628f887272d<table><tr><td style="font-weight:bold;vertical-align:top;">comment</td><td style="vertical-align:top;">:</td><td><div></div></td></tr><tr><td style="font-weight:bold;vertical-align:top;">domain</td><td style="vertical-align:top;">:</td><td><div></div></td></tr><tr><td style="font-weight:bold;vertical-align:top;">expires</td><td style="vertical-align:top;">:</td><td><div></div></td></tr><tr><td style="font-weight:bold;vertical-align:top;">httponly</td><td style="vertical-align:top;">:</td><td><div></div></td></tr><tr><td style="font-weight:bold;vertical-align:top;">max-age</td><td style="vertical-align:top;">:</td><td><div></div></td></tr><tr><td style="font-weight:bold;vertical-align:top;">path</td><td style="vertical-align:top;">:</td><td><div></div></td></tr><tr><td style="font-weight:bold;vertical-align:top;">secure</td><td style="vertical-align:top;">:</td><td><div></div></td></tr><tr><td style="font-weight:bold;vertical-align:top;">version</td><td style="vertical-align:top;">:</td><td><div></div></td></tr></table></div></td></tr><tr><td style="font-weight:bold;vertical-align:top;">session_id_videolibrary</td><td style="vertical-align:top;">:</td><td><div>127.0.0.1-e9f1a0ee-6f98-4604-8075-717e10c6c66d<table><tr><td style="font-weight:bold;vertical-align:top;">comment</td><td style="vertical-align:top;">:</td><td><div></div></td></tr><tr><td style="font-weight:bold;vertical-align:top;">domain</td><td style="vertical-align:top;">:</td><td><div></div></td></tr><tr><td style="font-weight:bold;vertical-align:top;">expires</td><td style="vertical-align:top;">:</td><td><div></div></td></tr><tr><td style="font-weight:bold;vertical-align:top;">httponly</td><td style="vertical-align:top;">:</td><td><div></div></td></tr><tr><td style="font-weight:bold;vertical-align:top;">max-age</td><td style="vertical-align:top;">:</td><td><div></div></td></tr><tr><td style="font-weight:bold;vertical-align:top;">path</td><td style="vertical-align:top;">:</td><td><div></div></td></tr><tr><td style="font-weight:bold;vertical-align:top;">secure</td><td style="vertical-align:top;">:</td><td><div></div></td></tr><tr><td style="font-weight:bold;vertical-align:top;">version</td><td style="vertical-align:top;">:</td><td><div></div></td></tr></table></div></td></tr></table></div></td></tr><tr><td style="font-weight:bold;vertical-align:top;">env</td><td style="vertical-align:top;">:</td><td><div><table><tr><td style="font-weight:bold;vertical-align:top;">HTTP_ACCEPT</td><td style="vertical-align:top;">:</td><td><div>text/html,application/xhtml+xml,application/xml;q=0.9,image/webp,*/*;q=0.8</div></td></tr><tr><td style="font-weight:bold;vertical-align:top;">HTTP_ACCEPT_ENCODING</td><td style="vertical-align:top;">:</td><td><div>gzip, deflate, sdch</div></td></tr><tr><td style="font-weight:bold;vertical-align:top;">HTTP_ACCEPT_LANGUAGE</td><td style="vertical-align:top;">:</td><td><div>en-US,en;q=0.8</div></td></tr><tr><td style="font-weight:bold;vertical-align:top;">HTTP_CONNECTION</td><td style="vertical-align:top;">:</td><td><div>keep-alive</div></td></tr><tr><td style="font-weight:bold;vertical-align:top;">HTTP_COOKIE</td><td style="vertical-align:top;">:</td><td><div>session_id_videolibrary=127.0.0.1-e9f1a0ee-6f98-4604-8075-717e10c6c66d; session_id_mymusic=127.0.0.1-488eddb4-c7b6-40bf-b289-6628f887272d; session_id_modal=127.0.0.1-686792ce-a9d0-4eb2-913e-ce7e5a93b8fb; session_id_admin=127.0.0.1-144f05f8-0628-4f43-beef-3d0df169978f; session_id_final=127.0.0.1-4d0f8936-e68c-4380-942c-8a6ddd61ece3</div></td></tr><tr><td style="font-weight:bold;vertical-align:top;">HTTP_HOST</td><td style="vertical-align:top;">:</td><td><div>127.0.0.1:8000</div></td></tr><tr><td style="font-weight:bold;vertical-align:top;">HTTP_REFERER</td><td style="vertical-align:top;">:</td><td><div>http://127.0.0.1:8000/final</div></td></tr><tr><td style="font-weight:bold;vertical-align:top;">HTTP_UPGRADE_INSECURE_REQUESTS</td><td style="vertical-align:top;">:</td><td><div>1</div></td></tr><tr><td style="font-weight:bold;vertical-align:top;">HTTP_USER_AGENT</td><td style="vertical-align:top;">:</td><td><div>Mozilla/5.0 (X11; Linux x86_64) AppleWebKit/537.36 (KHTML, like Gecko) Chrome/45.0.2454.101 Safari/537.36</div></td></tr><tr><td style="font-weight:bold;vertical-align:top;">PATH_INFO</td><td style="vertical-align:top;">:</td><td><div>/final/default/pop.html</div></td></tr><tr><td style="font-weight:bold;vertical-align:top;">QUERY_STRING</td><td style="vertical-align:top;">:</td><td><div></div></td></tr><tr><td style="font-weight:bold;vertical-align:top;">REMOTE_ADDR</td><td style="vertical-align:top;">:</td><td><div>127.0.0.1</div></td></tr><tr><td style="font-weight:bold;vertical-align:top;">REMOTE_PORT</td><td style="vertical-align:top;">:</td><td><div>38654</div></td></tr><tr><td style="font-weight:bold;vertical-align:top;">REQUEST_METHOD</td><td style="vertical-align:top;">:</td><td><div>GET</div></td></tr><tr><td style="font-weight:bold;vertical-align:top;">SCRIPT_NAME</td><td style="vertical-align:top;">:</td><td><div></div></td></tr><tr><td style="font-weight:bold;vertical-align:top;">SERVER_NAME</td><td style="vertical-align:top;">:</td><td><div>abhi-Vostro-3546</div></td></tr><tr><td style="font-weight:bold;vertical-align:top;">SERVER_PORT</td><td style="vertical-align:top;">:</td><td><div>8000</div></td></tr><tr><td style="font-weight:bold;vertical-align:top;">SERVER_PROTOCOL</td><td style="vertical-align:top;">:</td><td><div>HTTP/1.1</div></td></tr><tr><td style="font-weight:bold;vertical-align:top;">SERVER_SOFTWARE</td><td style="vertical-align:top;">:</td><td><div>Rocket 1.2.6</div></td></tr><tr><td style="font-weight:bold;vertical-align:top;">app_folders</td><td style="vertical-align:top;">:</td><td><div>set([&#x27;/home/abhi/Downloads/CourseMaterial/web2Py/web2py/applications/welcome/&#x27;, &#x27;/home/abhi/Downloads/CourseMaterial/web2Py/web2py/applications/final/&#x27;])</div></td></tr><tr><td style="font-weight:bold;vertical-align:top;">applications_parent</td><td style="vertical-align:top;">:</td><td><div>/home/abhi/Downloads/CourseMaterial/web2Py/web2py</div></td></tr><tr><td style="font-weight:bold;vertical-align:top;">cmd_args</td><td style="vertical-align:top;">:</td><td><div><table></table></div></td></tr><tr><td style="font-weight:bold;vertical-align:top;">cmd_options</td><td style="vertical-align:top;">:</td><td><div>&lt;Values at 0x7f0df21c9fc8: {&#x27;verbose&#x27;: False, &#x27;ip&#x27;: &#x27;127.0.0.1&#x27;, &#x27;debuglevel&#x27;: 30, &#x27;with_scheduler&#x27;: False, &#x27;ips&#x27;: [&#x27;127.0.1.1&#x27;], &#x27;shutdown_timeout&#x27;: 5, &#x27;taskbar&#x27;: False, &#x27;with_coverage&#x27;: False, &#x27;scheduler_groups&#x27;: None, &#x27;port&#x27;: 8000, &#x27;maxthreads&#x27;: None, &#x27;softcron&#x27;: False, &#x27;server_name&#x27;: &#x27;abhi-Vostro-3546&#x27;, &#x27;bpython&#x27;: False, &#x27;nogui&#x27;: False, &#x27;pid_filename&#x27;: &#x27;httpserver.pid&#x27;, &#x27;print_errors&#x27;: False, &#x27;extcron&#x27;: False, &#x27;runcron&#x27;: False, &#x27;run_system_tests&#x27;: False, &#x27;test&#x27;: None, &#x27;folder&#x27;: &#x27;/home/abhi/Downloads/CourseMaterial/web2Py/web2py&#x27;, &#x27;config&#x27;: &#x27;&#x27;, &#x27;minthreads&#x27;: None, &#x27;shell&#x27;: None, &#x27;run&#x27;: &#x27;&#x27;, &#x27;log_filename&#x27;: &#x27;httpserver.log&#x27;, &#x27;profiler_dir&#x27;: None, &#x27;args&#x27;: [&#x27;&#x27;], &#x27;socket_timeout&#x27;: 5, &#x27;ssl_ca_certificate&#x27;: None, &#x27;scheduler&#x27;: None, &#x27;interfaces&#x27;: None, &#x27;ssl_private_key&#x27;: &#x27;&#x27;, &#x27;gae&#x27;: None, &#x27;password&#x27;: &#x27;&lt;ask&gt;&#x27;, &#x27;request_queue_size&#x27;: 5, &#x27;ssl_certificate&#x27;: &#x27;&#x27;, &#x27;cronjob&#x27;: False, &#x27;numthreads&#x27;: None, &#x27;quiet&#x27;: False, &#x27;import_models&#x27;: False, &#x27;timeout&#x27;: 10, &#x27;plain&#x27;: False, &#x27;nobanner&#x27;: False}&gt;</div></td></tr><tr><td style="font-weight:bold;vertical-align:top;">db_sessions</td><td style="vertical-align:top;">:</td><td><div>set([])</div></td></tr><tr><td style="font-weight:bold;vertical-align:top;">debugging</td><td style="vertical-align:top;">:</td><td><div>False</div></td></tr><tr><td style="font-weight:bold;vertical-align:top;">gluon_parent</td><td style="vertical-align:top;">:</td><td><div>/home/abhi/Downloads/CourseMaterial/web2Py/web2py</div></td></tr><tr><td style="font-weight:bold;vertical-align:top;">http_accept</td><td style="vertical-align:top;">:</td><td><div>text/html,application/xhtml+xml,application/xml;q=0.9,image/webp,*/*;q=0.8</div></td></tr><tr><td style="font-weight:bold;vertical-align:top;">http_accept_encoding</td><td style="vertical-align:top;">:</td><td><div>gzip, deflate, sdch</div></td></tr><tr><td style="font-weight:bold;vertical-align:top;">http_accept_language</td><td style="vertical-align:top;">:</td><td><div>en-US,en;q=0.8</div></td></tr><tr><td style="font-weight:bold;vertical-align:top;">http_connection</td><td style="vertical-align:top;">:</td><td><div>keep-alive</div></td></tr><tr><td style="font-weight:bold;vertical-align:top;">http_cookie</td><td style="vertical-align:top;">:</td><td><div>session_id_videolibrary=127.0.0.1-e9f1a0ee-6f98-4604-8075-717e10c6c66d; session_id_mymusic=127.0.0.1-488eddb4-c7b6-40bf-b289-6628f887272d; session_id_modal=127.0.0.1-686792ce-a9d0-4eb2-913e-ce7e5a93b8fb; session_id_admin=127.0.0.1-144f05f8-0628-4f43-beef-3d0df169978f; session_id_final=127.0.0.1-4d0f8936-e68c-4380-942c-8a6ddd61ece3</div></td></tr><tr><td style="font-weight:bold;vertical-align:top;">http_host</td><td style="vertical-align:top;">:</td><td><div>127.0.0.1:8000</div></td></tr><tr><td style="font-weight:bold;vertical-align:top;">http_referer</td><td style="vertical-align:top;">:</td><td><div>http://127.0.0.1:8000/final</div></td></tr><tr><td style="font-weight:bold;vertical-align:top;">http_upgrade_insecure_requests</td><td style="vertical-align:top;">:</td><td><div>1</div></td></tr><tr><td style="font-weight:bold;vertical-align:top;">http_user_agent</td><td style="vertical-align:top;">:</td><td><div>Mozilla/5.0 (X11; Linux x86_64) AppleWebKit/537.36 (KHTML, like Gecko) Chrome/45.0.2454.101 Safari/537.36</div></td></tr><tr><td style="font-weight:bold;vertical-align:top;">is_jython</td><td style="vertical-align:top;">:</td><td><div>False</div></td></tr><tr><td style="font-weight:bold;vertical-align:top;">is_pypy</td><td style="vertical-align:top;">:</td><td><div>False</div></td></tr><tr><td style="font-weight:bold;vertical-align:top;">is_source</td><td style="vertical-align:top;">:</td><td><div>True</div></td></tr><tr><td style="font-weight:bold;vertical-align:top;">local_hosts</td><td style="vertical-align:top;">:</td><td><div><table><tr><td><div>::1</div></td></tr><tr><td><div>127.0.1.1</div></td></tr><tr><td><div>::ffff:127.0.0.1</div></td></tr><tr><td><div>127.0.0.1</div></td></tr><tr><td><div>abhi-Vostro-3546</div></td></tr></table></div></td></tr><tr><td style="font-weight:bold;vertical-align:top;">path_info</td><td style="vertical-align:top;">:</td><td><div>/final/default/pop.html</div></td></tr><tr><td style="font-weight:bold;vertical-align:top;">query_string</td><td style="vertical-align:top;">:</td><td><div></div></td></tr><tr><td style="font-weight:bold;vertical-align:top;">remote_addr</td><td style="vertical-align:top;">:</td><td><div>127.0.0.1</div></td></tr><tr><td style="font-weight:bold;vertical-align:top;">remote_port</td><td style="vertical-align:top;">:</td><td><div>38654</div></td></tr><tr><td style="font-weight:bold;vertical-align:top;">request_method</td><td style="vertical-align:top;">:</td><td><div>GET</div></td></tr><tr><td style="font-weight:bold;vertical-align:top;">request_uri</td><td style="vertical-align:top;">:</td><td><div>/final/default/pop.html</div></td></tr><tr><td style="font-weight:bold;vertical-align:top;">script_name</td><td style="vertical-align:top;">:</td><td><div></div></td></tr><tr><td style="font-weight:bold;vertical-align:top;">server_name</td><td style="vertical-align:top;">:</td><td><div>abhi-Vostro-3546</div></td></tr><tr><td style="font-weight:bold;vertical-align:top;">server_port</td><td style="vertical-align:top;">:</td><td><div>8000</div></td></tr><tr><td style="font-weight:bold;vertical-align:top;">server_protocol</td><td style="vertical-align:top;">:</td><td><div>HTTP/1.1</div></td></tr><tr><td style="font-weight:bold;vertical-align:top;">server_software</td><td style="vertical-align:top;">:</td><td><div>Rocket 1.2.6</div></td></tr><tr><td style="font-weight:bold;vertical-align:top;">web2py_path</td><td style="vertical-align:top;">:</td><td><div>/home/abhi/Downloads/CourseMaterial/web2Py/web2py</div></td></tr><tr><td style="font-weight:bold;vertical-align:top;">web2py_version</td><td style="vertical-align:top;">:</td><td><div>2.12.3-stable+timestamp.2015.08.19.00.18.03</div></td></tr><tr><td style="font-weight:bold;vertical-align:top;">wsgi.errors</td><td style="vertical-align:top;">:</td><td><div>&lt;open file &#x27;&lt;stderr&gt;&#x27;, mode &#x27;w&#x27; at 0x7f0df94281e0&gt;</div></td></tr><tr><td style="font-weight:bold;vertical-align:top;">wsgi.file_wrapper</td><td style="vertical-align:top;">:</td><td><div>&lt;class wsgiref.util.FileWrapper at 0x7f0df2252e88&gt;</div></td></tr><tr><td style="font-weight:bold;vertical-align:top;">wsgi.input</td><td style="vertical-align:top;">:</td><td><div>&lt;socket._fileobject object at 0x7f0dc4c793d0&gt;</div></td></tr><tr><td style="font-weight:bold;vertical-align:top;">wsgi.multiprocess</td><td style="vertical-align:top;">:</td><td><div>False</div></td></tr><tr><td style="font-weight:bold;vertical-align:top;">wsgi.multithread</td><td style="vertical-align:top;">:</td><td><div>True</div></td></tr><tr><td style="font-weight:bold;vertical-align:top;">wsgi.run_once</td><td style="vertical-align:top;">:</td><td><div>False</div></td></tr><tr><td style="font-weight:bold;vertical-align:top;">wsgi.url_scheme</td><td style="vertical-align:top;">:</td><td><div>http</div></td></tr><tr><td style="font-weight:bold;vertical-align:top;">wsgi.version</td><td style="vertical-align:top;">:</td><td><div><table><tr><td><div>1</div></td></tr><tr><td><div>0</div></td></tr></table></div></td></tr><tr><td style="font-weight:bold;vertical-align:top;">wsgi_errors</td><td style="vertical-align:top;">:</td><td><div>&lt;open file &#x27;&lt;stderr&gt;&#x27;, mode &#x27;w&#x27; at 0x7f0df94281e0&gt;</div></td></tr><tr><td style="font-weight:bold;vertical-align:top;">wsgi_file_wrapper</td><td style="vertical-align:top;">:</td><td><div>&lt;class wsgiref.util.FileWrapper at 0x7f0df2252e88&gt;</div></td></tr><tr><td style="font-weight:bold;vertical-align:top;">wsgi_input</td><td style="vertical-align:top;">:</td><td><div>&lt;socket._fileobject object at 0x7f0dc4c793d0&gt;</div></td></tr><tr><td style="font-weight:bold;vertical-align:top;">wsgi_multiprocess</td><td style="vertical-align:top;">:</td><td><div>False</div></td></tr><tr><td style="font-weight:bold;vertical-align:top;">wsgi_multithread</td><td style="vertical-align:top;">:</td><td><div>True</div></td></tr><tr><td style="font-weight:bold;vertical-align:top;">wsgi_run_once</td><td style="vertical-align:top;">:</td><td><div>False</div></td></tr><tr><td style="font-weight:bold;vertical-align:top;">wsgi_url_scheme</td><td style="vertical-align:top;">:</td><td><div>http</div></td></tr><tr><td style="font-weight:bold;vertical-align:top;">wsgi_version</td><td style="vertical-align:top;">:</td><td><div><table><tr><td><div>1</div></td></tr><tr><td><div>0</div></td></tr></table></div></td></tr></table></div></td></tr><tr><td style="font-weight:bold;vertical-align:top;">extension</td><td style="vertical-align:top;">:</td><td><div>html</div></td></tr><tr><td style="font-weight:bold;vertical-align:top;">folder</td><td style="vertical-align:top;">:</td><td><div>/home/abhi/Downloads/CourseMaterial/web2Py/web2py/applications/final/</div></td></tr><tr><td style="font-weight:bold;vertical-align:top;">function</td><td style="vertical-align:top;">:</td><td><div>pop</div></td></tr><tr><td style="font-weight:bold;vertical-align:top;">global_settings</td><td style="vertical-align:top;">:</td><td><div><table><tr><td style="font-weight:bold;vertical-align:top;">app_folders</td><td style="vertical-align:top;">:</td><td><div>set([&#x27;/home/abhi/Downloads/CourseMaterial/web2Py/web2py/applications/welcome/&#x27;, &#x27;/home/abhi/Downloads/CourseMaterial/web2Py/web2py/applications/final/&#x27;])</div></td></tr><tr><td style="font-weight:bold;vertical-align:top;">applications_parent</td><td style="vertical-align:top;">:</td><td><div>/home/abhi/Downloads/CourseMaterial/web2Py/web2py</div></td></tr><tr><td style="font-weight:bold;vertical-align:top;">cmd_args</td><td style="vertical-align:top;">:</td><td><div><table></table></div></td></tr><tr><td style="font-weight:bold;vertical-align:top;">cmd_options</td><td style="vertical-align:top;">:</td><td><div>&lt;Values at 0x7f0df21c9fc8: {&#x27;verbose&#x27;: False, &#x27;ip&#x27;: &#x27;127.0.0.1&#x27;, &#x27;debuglevel&#x27;: 30, &#x27;with_scheduler&#x27;: False, &#x27;ips&#x27;: [&#x27;127.0.1.1&#x27;], &#x27;shutdown_timeout&#x27;: 5, &#x27;taskbar&#x27;: False, &#x27;with_coverage&#x27;: False, &#x27;scheduler_groups&#x27;: None, &#x27;port&#x27;: 8000, &#x27;maxthreads&#x27;: None, &#x27;softcron&#x27;: False, &#x27;server_name&#x27;: &#x27;abhi-Vostro-3546&#x27;, &#x27;bpython&#x27;: False, &#x27;nogui&#x27;: False, &#x27;pid_filename&#x27;: &#x27;httpserver.pid&#x27;, &#x27;print_errors&#x27;: False, &#x27;extcron&#x27;: False, &#x27;runcron&#x27;: False, &#x27;run_system_tests&#x27;: False, &#x27;test&#x27;: None, &#x27;folder&#x27;: &#x27;/home/abhi/Downloads/CourseMaterial/web2Py/web2py&#x27;, &#x27;config&#x27;: &#x27;&#x27;, &#x27;minthreads&#x27;: None, &#x27;shell&#x27;: None, &#x27;run&#x27;: &#x27;&#x27;, &#x27;log_filename&#x27;: &#x27;httpserver.log&#x27;, &#x27;profiler_dir&#x27;: None, &#x27;args&#x27;: [&#x27;&#x27;], &#x27;socket_timeout&#x27;: 5, &#x27;ssl_ca_certificate&#x27;: None, &#x27;scheduler&#x27;: None, &#x27;interfaces&#x27;: None, &#x27;ssl_private_key&#x27;: &#x27;&#x27;, &#x27;gae&#x27;: None, &#x27;password&#x27;: &#x27;&lt;ask&gt;&#x27;, &#x27;request_queue_size&#x27;: 5, &#x27;ssl_certificate&#x27;: &#x27;&#x27;, &#x27;cronjob&#x27;: False, &#x27;numthreads&#x27;: None, &#x27;quiet&#x27;: False, &#x27;import_models&#x27;: False, &#x27;timeout&#x27;: 10, &#x27;plain&#x27;: False, &#x27;nobanner&#x27;: False}&gt;</div></td></tr><tr><td style="font-weight:bold;vertical-align:top;">db_sessions</td><td style="vertical-align:top;">:</td><td><div>set([])</div></td></tr><tr><td style="font-weight:bold;vertical-align:top;">debugging</td><td style="vertical-align:top;">:</td><td><div>False</div></td></tr><tr><td style="font-weight:bold;vertical-align:top;">gluon_parent</td><td style="vertical-align:top;">:</td><td><div>/home/abhi/Downloads/CourseMaterial/web2Py/web2py</div></td></tr><tr><td style="font-weight:bold;vertical-align:top;">is_jython</td><td style="vertical-align:top;">:</td><td><div>False</div></td></tr><tr><td style="font-weight:bold;vertical-align:top;">is_pypy</td><td style="vertical-align:top;">:</td><td><div>False</div></td></tr><tr><td style="font-weight:bold;vertical-align:top;">is_source</td><td style="vertical-align:top;">:</td><td><div>True</div></td></tr><tr><td style="font-weight:bold;vertical-align:top;">local_hosts</td><td style="vertical-align:top;">:</td><td><div><table><tr><td><div>::1</div></td></tr><tr><td><div>127.0.1.1</div></td></tr><tr><td><div>::ffff:127.0.0.1</div></td></tr><tr><td><div>127.0.0.1</div></td></tr><tr><td><div>abhi-Vostro-3546</div></td></tr></table></div></td></tr><tr><td style="font-weight:bold;vertical-align:top;">web2py_version</td><td style="vertical-align:top;">:</td><td><div>2.12.3-stable+timestamp.2015.08.19.00.18.03</div></td></tr></table></div></td></tr><tr><td style="font-weight:bold;vertical-align:top;">is_https</td><td style="vertical-align:top;">:</td><td><div>False</div></td></tr><tr><td style="font-weight:bold;vertical-align:top;">is_local</td><td style="vertical-align:top;">:</td><td><div>True</div></td></tr><tr><td style="font-weight:bold;vertical-align:top;">is_restful</td><td style="vertical-align:top;">:</td><td><div>False</div></td></tr><tr><td style="font-weight:bold;vertical-align:top;">is_sheduler</td><td style="vertical-align:top;">:</td><td><div>None</div></td></tr><tr><td style="font-weight:bold;vertical-align:top;">is_shell</td><td style="vertical-align:top;">:</td><td><div>None</div></td></tr><tr><td style="font-weight:bold;vertical-align:top;">now</td><td style="vertical-align:top;">:</td><td><div>datetime.datetime(2015, 11, 23, 10, 58, 57, 878410)</div></td></tr><tr><td style="font-weight:bold;vertical-align:top;">raw_args</td><td style="vertical-align:top;">:</td><td><div></div></td></tr><tr><td style="font-weight:bold;vertical-align:top;">raw_extension</td><td style="vertical-align:top;">:</td><td><div>html</div></td></tr><tr><td style="font-weight:bold;vertical-align:top;">url</td><td style="vertical-align:top;">:</td><td><div>/final/default/pop.html</div></td></tr><tr><td style="font-weight:bold;vertical-align:top;">utcnow</td><td style="vertical-align:top;">:</td><td><div>datetime.datetime(2015, 11, 23, 5, 28, 57, 878436)</div></td></tr><tr><td style="font-weight:bold;vertical-align:top;">wsgi</td><td style="vertical-align:top;">:</td><td><div>&lt;gluon.main.LazyWSGI object at 0x7f0dc4a10f90&gt;</div></td></tr></table></div>'
tRp57
sS'frames'
p58
(lp59
(dp60
S'file'
p61
S'/home/abhi/Downloads/CourseMaterial/web2Py/web2py/gluon/restricted.py'
p62
sS'dump'
p63
(dp64
S'environment'
p65
S"{'A': <class 'gluon.html.A'>, 'ANY_OF': <class 'gluon.validators.ANY_OF'>, 'ASSIGNJS': <function ASSIGNJS>, 'AppConfig': <function AppConfig>, 'Auth': <class 'gluon.tools.Auth'>, 'B': <class 'gluon.html.B'>, 'BEAUTIFY': <class 'gluon.html.BEAUTIFY'>, 'BODY': <class 'gluon.html.BODY'>, 'BR': <class 'gluon.html.BR'>, 'BUTTON': <class 'gluon.html.BUTTON'>, ...}"
p66
sS'ccode'
p67
S'<code object <module> at 0x7f0dc49d5e30, file "/...plications/final/views/default/pop.html", line 1>'
p68
ssS'lnum'
p69
I227
sS'lines'
p70
(dp71
I224
S'            ccode = code'
p72
sI225
S'        else:'
p73
sI226
S'            ccode = compile2(code, layer)'
p74
sI227
S'        exec ccode in environment'
p75
sI228
S'    except HTTP:'
p76
sI229
S'        raise'
p77
sI230
S'    except RestrictedError:'
p78
sI231
S'        # do not encapsulate (obfuscate) the original RestrictedError'
p79
sI222
S'    try:'
p80
sI223
S'        if isinstance(code, types.CodeType):'
p81
ssS'call'
p82
S'(code=\'response.write(\\\'<!DOCTYPE html>\\\\n<html lang="en"..."></script>\\\\n\\\\n  </body>\\\\n</html>\\\', escape=False)\', environment={\'A\': <class \'gluon.html.A\'>, \'ANY_OF\': <class \'gluon.validators.ANY_OF\'>, \'ASSIGNJS\': <function ASSIGNJS>, \'AppConfig\': <function AppConfig>, \'Auth\': <class \'gluon.tools.Auth\'>, \'B\': <class \'gluon.html.B\'>, \'BEAUTIFY\': <class \'gluon.html.BEAUTIFY\'>, \'BODY\': <class \'gluon.html.BODY\'>, \'BR\': <class \'gluon.html.BR\'>, \'BUTTON\': <class \'gluon.html.BUTTON\'>, ...}, layer=\'/home/abhi/Downloads/CourseMaterial/web2Py/web2py/applications/final/views/default/pop.html\')'
p83
sS'func'
p84
S'restricted'
p85
sa(dp86
g61
S'/home/abhi/Downloads/CourseMaterial/web2Py/web2py/applications/final/views/default/pop.html'
p87
sg63
(dp88
S'search'
p89
S'undefined'
p90
sS'end'
p91
g90
sS'form'
p92
S'<gluon.sqlhtml.SQLFORM object>'
p93
ssg69
I74
sg70
(dp94
I65
S'response.write(\'">Create</a></li>\\n                          <li><a class="" href="\', escape=False)'
p95
sI66
S"response.write(URL('list.html'))"
p96
sI67
S'response.write(\'">Your Playlist1</a></li>\\n                          <li><a class="" href="\', escape=False)'
p97
sI68
S"response.write(URL('spons_playlist.html'))"
p98
sI69
S'response.write(\'">Sponsered</a></li>\\n                      </ul>\\n                  </li>\\n                  <li>\\n                      <a class="" href="\', escape=False)'
p99
sI70
S"response.write(URL('widgets.html'))"
p100
sI71
S'response.write(\'">\\n                          <i class="icon_genius"></i>\\n                          <span>See All</span>\\n                      </a>\\n                  </li>\\n                  <li>                     \\n                      <a class="" href=".html">\\n                          <i class="fa fa-music"></i>\\n                          <span>Top Charts</span>\\n                          \\n                      </a>\\n                                         \\n                  </li>\\n                             \\n                  <li class="sub-menu">\\n                      <a href="javascript:;" class="">\\n                          <i class="icon_table"></i>\\n                          <span>Discover</span>\\n                          <span class="menu-arrow arrow_carrot-right"></span>\\n                      </a>\\n                      <ul class="sub">\\n                          <li><a class="" href="bygenre.html">Genre</a></li>\\n                          <li><a class="" href="byartist.html">Artist/Band</a></li>\\n                          <li><a class="" href="bymovie.html">Movie</a></li>\\n                      </ul>\\n                  </li>\\n                  \\n                  <li class="sub-menu">\\n                      <a href="javascript:;" class="">\\n                          <i class="icon_documents_alt"></i>\\n                          <span>My Profile</span>\\n                          <span class="menu-arrow arrow_carrot-right"></span>\\n                      </a>\\n                      <ul class="sub">                          \\n                          <li><a class="" href="profile.html">Profile</a></li>\\n                          <li><a class="" href="history.html"><span>My History</span></a></li>\\n                          <li><a class="" href="myupload.html">My Uploads</a></li>\\n                      </ul>\\n                  </li>\\n                  \\n              </ul> <!-- sidebar menu end-->\\n          </div>\\n      </aside>\\n     <!--sidebar end-->\\n      \\n      <!--main content start-->\\n      <section id="main-content">\\n          <section class="wrapper">            \\n              <!--overview start-->\\n              <!--\\n           <div class="row">\\n        <div class="col-lg-3 col-md-3 col-sm-12 col-xs-12"><a href="">\\n          <div class="info-box blue-bg boxes">\\n            <i class="fa fa-music"></i>\\n            <div class="count">New</div>\\n            <div class="title">Albums</div>\\n          </div>\\n        </div>\\n        </a>\\n        \\n        <div class="col-lg-3 col-md-3 col-sm-12 col-xs-12"><a href="">\\n          <div class="info-box brown-bg boxes">\\n            <i class="fa fa-upload"></i>\\n            <div class="count">My</div>\\n            <div class="title">Uploads</div>            \\n          </div>\\n        </div>\\n        </a>\\n        \\n        <div class="col-lg-3 col-md-3 col-sm-12 col-xs-12"><a href="">\\n          <div class="info-box dark-bg boxes">\\n            <i class="fa fa-thumbs-o-up"></i>\\n            <div class="count">Most</div>\\n            <div class="title">Rated</div>            \\n          </div>\\n        </div>\\n        </a>\\n        \\n        <div class="col-lg-3 col-md-3 col-sm-12 col-xs-12"><a href="">\\n          <div class="info-box green-bg boxes">\\n            <i class="fa fa-play-circle-o"></i>\\n            <div class="count">Live</div>\\n            <div class="title">Radio</div>            \\n          </div>\\n        </div>\\n        </a>\\n        \\n      </div>\\n        -->\\n\\n        <h1>Browse your favourite Videos</h1>\\n<table class="table table-striped table-hover">\\n    <thead>\\n        <tr>\\n            <strong><th>Title</th></strong>\\n            <strong><th>Category</th></strong>\\n        </tr>\\n    </thead>\\n    <tbody>\\n    \', escape=False)'
p101
sI72
S'for s in res:'
p102
sI73
S"    response.write('\\n        <tr>\\n            <td>', escape=False)"
p103
sI74
S"    response.write(A(s.title, _href=URL('see',args=s.id)))"
p104
sI75
S"    response.write(' \\n            </td>\\n            <td>', escape=False)"
p105
sI76
S"    response.write(A(s.category,_href=URL('by_category',args=s.category)))"
p106
sI77
S"    response.write('\\n            </td>\\n        </tr>\\n    ', escape=False)"
p107
sI78
S'    pass'
p108
sI79
S'response.write(\'\\n    </tbody>\\n</table>\\n            \\n        \\n\\n              <!-- project team & activity start -->\\n          \\n              <!-- project team & activity end -->\\n\\n          </section>\\n      </section>\\n      <!--main content end-->\\n  </section>\\n\\n\\n\\n\\n\\n\\n\\n\\n\\n\\n\\n  <!-- container section start -->\\n\\n    <!-- javascripts -->\\n        <!-- javascripts -->\\n    <script src="\', escape=False)'
p109
sI80
S"response.write(URL('static','js/jquery.js'))"
p110
sI81
S'response.write(\'"></script>\\n  <script src="\', escape=False)'
p111
sI82
S"response.write(URL('static','js/jquery-ui-1.10.4.min.js'))"
p112
sI83
S'response.write(\'"></script>\\n    <script src="\', escape=False)'
p113
sI84
S"response.write(URL('static','js/jquery-1.8.3.min.js'))"
p114
ssg82
S'()'
p115
sg84
S'<module>'
p116
sa(dp117
g61
S'/home/abhi/Downloads/CourseMaterial/web2Py/web2py/gluon/packages/dal/pydal/objects.py'
p118
sg63
(dp119
S'builtinAttributeError'
p120
S"<type 'exceptions.AttributeError'>"
p121
ssg69
I90
sg70
(dp122
I85
S''
sI86
S'    def __getattr__(self, k):'
p123
sI87
S'        try:'
p124
sI88
S'            return self.__getitem__(k)'
p125
sI89
S'        except KeyError:'
p126
sI90
S'            raise AttributeError'
p127
sI91
S''
sI92
S'    def __copy__(self):'
p128
sI93
S'        return Row(self)'
p129
sI94
S''
ssg82
S"(self=<Row {'views': 14L}>, k='title')"
p130
sg84
S'__getattr__'
p131
sasS'pyver'
p132
S'Python 2.7.6: /usr/bin/python (prefix: /usr)'
p133
sS'session'
p134
g56
(S's\x1a\x00\x00\x00<div><table></table></div>'
tRp135
sS'etype'
p136
S"<type 'exceptions.AttributeError'>"
p137
sS'date'
p138
S'Mon Nov 23 10:58:58 2015'
p139
sS'response'
p140
g56
(S's\x91?\x00\x00<div><table><tr><td style="font-weight:bold;vertical-align:top;">body</td><td style="vertical-align:top;">:</td><td><div>&lt;cStringIO.StringO object at 0x7f0dc4a128b8&gt;</div></td></tr><tr><td style="font-weight:bold;vertical-align:top;">cookies</td><td style="vertical-align:top;">:</td><td><div><table><tr><td style="font-weight:bold;vertical-align:top;">session_id_final</td><td style="vertical-align:top;">:</td><td><div>127.0.0.1-4d0f8936-e68c-4380-942c-8a6ddd61ece3<table><tr><td style="font-weight:bold;vertical-align:top;">comment</td><td style="vertical-align:top;">:</td><td><div></div></td></tr><tr><td style="font-weight:bold;vertical-align:top;">domain</td><td style="vertical-align:top;">:</td><td><div></div></td></tr><tr><td style="font-weight:bold;vertical-align:top;">expires</td><td style="vertical-align:top;">:</td><td><div></div></td></tr><tr><td style="font-weight:bold;vertical-align:top;">httponly</td><td style="vertical-align:top;">:</td><td><div></div></td></tr><tr><td style="font-weight:bold;vertical-align:top;">max-age</td><td style="vertical-align:top;">:</td><td><div></div></td></tr><tr><td style="font-weight:bold;vertical-align:top;">path</td><td style="vertical-align:top;">:</td><td><div>/</div></td></tr><tr><td style="font-weight:bold;vertical-align:top;">secure</td><td style="vertical-align:top;">:</td><td><div></div></td></tr><tr><td style="font-weight:bold;vertical-align:top;">version</td><td style="vertical-align:top;">:</td><td><div></div></td></tr></table></div></td></tr></table></div></td></tr><tr><td style="font-weight:bold;vertical-align:top;">delimiters</td><td style="vertical-align:top;">:</td><td><div><table><tr><td><div>{{</div></td></tr><tr><td><div>}}</div></td></tr></table></div></td></tr><tr><td style="font-weight:bold;vertical-align:top;">files</td><td style="vertical-align:top;">:</td><td><div><table></table></div></td></tr><tr><td style="font-weight:bold;vertical-align:top;">flash</td><td style="vertical-align:top;">:</td><td><div></div></td></tr><tr><td style="font-weight:bold;vertical-align:top;">form_label_separator</td><td style="vertical-align:top;">:</td><td><div></div></td></tr><tr><td style="font-weight:bold;vertical-align:top;">formstyle</td><td style="vertical-align:top;">:</td><td><div>bootstrap3_inline</div></td></tr><tr><td style="font-weight:bold;vertical-align:top;">generic_patterns</td><td style="vertical-align:top;">:</td><td><div><table><tr><td><div>*</div></td></tr></table></div></td></tr><tr><td style="font-weight:bold;vertical-align:top;">google_analytics_id</td><td style="vertical-align:top;">:</td><td><div>None</div></td></tr><tr><td style="font-weight:bold;vertical-align:top;">headers</td><td style="vertical-align:top;">:</td><td><div><table><tr><td style="font-weight:bold;vertical-align:top;">X-Powered-By</td><td style="vertical-align:top;">:</td><td><div>web2py</div></td></tr></table></div></td></tr><tr><td style="font-weight:bold;vertical-align:top;">logo</td><td style="vertical-align:top;">:</td><td><div><a class="navbar-brand" href="http://www.web2py.com/" id="web2py-logo"><b>web<span>2</span>py</b>&trade;&nbsp;</a></div></td></tr><tr><td style="font-weight:bold;vertical-align:top;">menu</td><td style="vertical-align:top;">:</td><td><div><table><tr><td><div><table><tr><td><div>Home</div></td></tr><tr><td><div>False</div></td></tr><tr><td><div>/final/default/index</div></td></tr><tr><td><div><table></table></div></td></tr></table></div></td></tr><tr><td><div><table><tr><td><div>My Sites</div></td></tr><tr><td><div>False</div></td></tr><tr><td><div>/admin/default/site</div></td></tr></table></div></td></tr><tr><td><div><table><tr><td><div>This App</div></td></tr><tr><td><div>False</div></td></tr><tr><td><div>#</div></td></tr><tr><td><div><table><tr><td><div><table><tr><td><div>Design</div></td></tr><tr><td><div>False</div></td></tr><tr><td><div>/admin/default/design/final</div></td></tr></table></div></td></tr><tr><td><div><li class="divider"></li></div></td></tr><tr><td><div><table><tr><td><div>Controller</div></td></tr><tr><td><div>False</div></td></tr><tr><td><div>/admin/default/edit/final/controllers/default.py</div></td></tr></table></div></td></tr><tr><td><div><table><tr><td><div>View</div></td></tr><tr><td><div>False</div></td></tr><tr><td><div>/admin/default/edit/final/views/default/pop.html</div></td></tr></table></div></td></tr><tr><td><div><table><tr><td><div>DB Model</div></td></tr><tr><td><div>False</div></td></tr><tr><td><div>/admin/default/edit/final/models/db.py</div></td></tr></table></div></td></tr><tr><td><div><table><tr><td><div>Menu Model</div></td></tr><tr><td><div>False</div></td></tr><tr><td><div>/admin/default/edit/final/models/menu.py</div></td></tr></table></div></td></tr><tr><td><div><table><tr><td><div>Config.ini</div></td></tr><tr><td><div>False</div></td></tr><tr><td><div>/admin/default/edit/final/private/appconfig.ini</div></td></tr></table></div></td></tr><tr><td><div><table><tr><td><div>Layout</div></td></tr><tr><td><div>False</div></td></tr><tr><td><div>/admin/default/edit/final/views/layout.html</div></td></tr></table></div></td></tr><tr><td><div><table><tr><td><div>Stylesheet</div></td></tr><tr><td><div>False</div></td></tr><tr><td><div>/admin/default/edit/final/static/css/web2py-bootstrap3.css</div></td></tr></table></div></td></tr><tr><td><div><table><tr><td><div>Database</div></td></tr><tr><td><div>False</div></td></tr><tr><td><div>/final/appadmin/index</div></td></tr></table></div></td></tr><tr><td><div><table><tr><td><div>Errors</div></td></tr><tr><td><div>False</div></td></tr><tr><td><div>/admin/default/errors/final</div></td></tr></table></div></td></tr><tr><td><div><table><tr><td><div>About</div></td></tr><tr><td><div>False</div></td></tr><tr><td><div>/admin/default/about/final</div></td></tr></table></div></td></tr></table></div></td></tr></table></div></td></tr><tr><td><div><table><tr><td><div>web2py.com</div></td></tr><tr><td><div>False</div></td></tr><tr><td><div>#</div></td></tr><tr><td><div><table><tr><td><div><table><tr><td><div>Download</div></td></tr><tr><td><div>False</div></td></tr><tr><td><div>http://www.web2py.com/examples/default/download</div></td></tr></table></div></td></tr><tr><td><div><table><tr><td><div>Support</div></td></tr><tr><td><div>False</div></td></tr><tr><td><div>http://www.web2py.com/examples/default/support</div></td></tr></table></div></td></tr><tr><td><div><table><tr><td><div>Demo</div></td></tr><tr><td><div>False</div></td></tr><tr><td><div>http://web2py.com/demo_admin</div></td></tr></table></div></td></tr><tr><td><div><table><tr><td><div>Quick Examples</div></td></tr><tr><td><div>False</div></td></tr><tr><td><div>http://web2py.com/examples/default/examples</div></td></tr></table></div></td></tr><tr><td><div><table><tr><td><div>FAQ</div></td></tr><tr><td><div>False</div></td></tr><tr><td><div>http://web2py.com/AlterEgo</div></td></tr></table></div></td></tr><tr><td><div><table><tr><td><div>Videos</div></td></tr><tr><td><div>False</div></td></tr><tr><td><div>http://www.web2py.com/examples/default/videos/</div></td></tr></table></div></td></tr><tr><td><div><table><tr><td><div>Free Applications</div></td></tr><tr><td><div>False</div></td></tr><tr><td><div>http://web2py.com/appliances</div></td></tr></table></div></td></tr><tr><td><div><table><tr><td><div>Plugins</div></td></tr><tr><td><div>False</div></td></tr><tr><td><div>http://web2py.com/plugins</div></td></tr></table></div></td></tr><tr><td><div><table><tr><td><div>Recipes</div></td></tr><tr><td><div>False</div></td></tr><tr><td><div>http://web2pyslices.com/</div></td></tr></table></div></td></tr></table></div></td></tr></table></div></td></tr><tr><td><div><table><tr><td><div>Documentation</div></td></tr><tr><td><div>False</div></td></tr><tr><td><div>#</div></td></tr><tr><td><div><table><tr><td><div><table><tr><td><div>Online book</div></td></tr><tr><td><div>False</div></td></tr><tr><td><div>http://www.web2py.com/book</div></td></tr></table></div></td></tr><tr><td><div><li class="divider"></li></div></td></tr><tr><td><div><table><tr><td><div>Preface</div></td></tr><tr><td><div>False</div></td></tr><tr><td><div>http://www.web2py.com/book/default/chapter/00</div></td></tr></table></div></td></tr><tr><td><div><table><tr><td><div>Introduction</div></td></tr><tr><td><div>False</div></td></tr><tr><td><div>http://www.web2py.com/book/default/chapter/01</div></td></tr></table></div></td></tr><tr><td><div><table><tr><td><div>Python</div></td></tr><tr><td><div>False</div></td></tr><tr><td><div>http://www.web2py.com/book/default/chapter/02</div></td></tr></table></div></td></tr><tr><td><div><table><tr><td><div>Overview</div></td></tr><tr><td><div>False</div></td></tr><tr><td><div>http://www.web2py.com/book/default/chapter/03</div></td></tr></table></div></td></tr><tr><td><div><table><tr><td><div>The Core</div></td></tr><tr><td><div>False</div></td></tr><tr><td><div>http://www.web2py.com/book/default/chapter/04</div></td></tr></table></div></td></tr><tr><td><div><table><tr><td><div>The Views</div></td></tr><tr><td><div>False</div></td></tr><tr><td><div>http://www.web2py.com/book/default/chapter/05</div></td></tr></table></div></td></tr><tr><td><div><table><tr><td><div>Database</div></td></tr><tr><td><div>False</div></td></tr><tr><td><div>http://www.web2py.com/book/default/chapter/06</div></td></tr></table></div></td></tr><tr><td><div><table><tr><td><div>Forms and Validators</div></td></tr><tr><td><div>False</div></td></tr><tr><td><div>http://www.web2py.com/book/default/chapter/07</div></td></tr></table></div></td></tr><tr><td><div><table><tr><td><div>Email and SMS</div></td></tr><tr><td><div>False</div></td></tr><tr><td><div>http://www.web2py.com/book/default/chapter/08</div></td></tr></table></div></td></tr><tr><td><div><table><tr><td><div>Access Control</div></td></tr><tr><td><div>False</div></td></tr><tr><td><div>http://www.web2py.com/book/default/chapter/09</div></td></tr></table></div></td></tr><tr><td><div><table><tr><td><div>Services</div></td></tr><tr><td><div>False</div></td></tr><tr><td><div>http://www.web2py.com/book/default/chapter/10</div></td></tr></table></div></td></tr><tr><td><div><table><tr><td><div>Ajax Recipes</div></td></tr><tr><td><div>False</div></td></tr><tr><td><div>http://www.web2py.com/book/default/chapter/11</div></td></tr></table></div></td></tr><tr><td><div><table><tr><td><div>Components and Plugins</div></td></tr><tr><td><div>False</div></td></tr><tr><td><div>http://www.web2py.com/book/default/chapter/12</div></td></tr></table></div></td></tr><tr><td><div><table><tr><td><div>Deployment Recipes</div></td></tr><tr><td><div>False</div></td></tr><tr><td><div>http://www.web2py.com/book/default/chapter/13</div></td></tr></table></div></td></tr><tr><td><div><table><tr><td><div>Other Recipes</div></td></tr><tr><td><div>False</div></td></tr><tr><td><div>http://www.web2py.com/book/default/chapter/14</div></td></tr></table></div></td></tr><tr><td><div><table><tr><td><div>Helping web2py</div></td></tr><tr><td><div>False</div></td></tr><tr><td><div>http://www.web2py.com/book/default/chapter/15</div></td></tr></table></div></td></tr><tr><td><div><table><tr><td><div>Buy web2py\'s book</div></td></tr><tr><td><div>False</div></td></tr><tr><td><div>http://stores.lulu.com/web2py</div></td></tr></table></div></td></tr></table></div></td></tr></table></div></td></tr><tr><td><div><table><tr><td><div>Community</div></td></tr><tr><td><div>False</div></td></tr><tr><td><div>None</div></td></tr><tr><td><div><table><tr><td><div><table><tr><td><div>Groups</div></td></tr><tr><td><div>False</div></td></tr><tr><td><div>http://www.web2py.com/examples/default/usergroups</div></td></tr></table></div></td></tr><tr><td><div><table><tr><td><div>Twitter</div></td></tr><tr><td><div>False</div></td></tr><tr><td><div>http://twitter.com/web2py</div></td></tr></table></div></td></tr><tr><td><div><table><tr><td><div>Live Chat</div></td></tr><tr><td><div>False</div></td></tr><tr><td><div>http://webchat.freenode.net/?channels=web2py</div></td></tr></table></div></td></tr></table></div></td></tr></table></div></td></tr></table></div></td></tr><tr><td style="font-weight:bold;vertical-align:top;">meta</td><td style="vertical-align:top;">:</td><td><div><table><tr><td style="font-weight:bold;vertical-align:top;">author</td><td style="vertical-align:top;">:</td><td><div>Your Name &lt;you@example.com&gt;</div></td></tr><tr><td style="font-weight:bold;vertical-align:top;">description</td><td style="vertical-align:top;">:</td><td><div>a cool new app</div></td></tr><tr><td style="font-weight:bold;vertical-align:top;">generator</td><td style="vertical-align:top;">:</td><td><div>Web2py Web Framework</div></td></tr><tr><td style="font-weight:bold;vertical-align:top;">keywords</td><td style="vertical-align:top;">:</td><td><div>web2py, python, framework</div></td></tr></table></div></td></tr><tr><td style="font-weight:bold;vertical-align:top;">models_to_run</td><td style="vertical-align:top;">:</td><td><div><table><tr><td><div>^\\w+\\.py$</div></td></tr><tr><td><div>^default/\\w+\\.py$</div></td></tr><tr><td><div>^default/pop/\\w+\\.py$</div></td></tr></table></div></td></tr><tr><td style="font-weight:bold;vertical-align:top;">postprocessing</td><td style="vertical-align:top;">:</td><td><div><table></table></div></td></tr><tr><td style="font-weight:bold;vertical-align:top;">session_client</td><td style="vertical-align:top;">:</td><td><div>127.0.0.1</div></td></tr><tr><td style="font-weight:bold;vertical-align:top;">session_cookie_compression_level</td><td style="vertical-align:top;">:</td><td><div>None</div></td></tr><tr><td style="font-weight:bold;vertical-align:top;">session_cookie_expires</td><td style="vertical-align:top;">:</td><td><div>None</div></td></tr><tr><td style="font-weight:bold;vertical-align:top;">session_cookie_key</td><td style="vertical-align:top;">:</td><td><div>None</div></td></tr><tr><td style="font-weight:bold;vertical-align:top;">session_data_name</td><td style="vertical-align:top;">:</td><td><div>session_data_final</div></td></tr><tr><td style="font-weight:bold;vertical-align:top;">session_file</td><td style="vertical-align:top;">:</td><td><div>&lt;open file &#x27;/home/abhi/Downloads/CourseMaterial/web2Py/web2py/applications/final/sessions/162/0c0/127.0.0.1-4d0f8936-e68c-4380-942c-8a6ddd61ece3&#x27;, mode &#x27;rb+&#x27; at 0x7f0dc4c4bdb0&gt;</div></td></tr><tr><td style="font-weight:bold;vertical-align:top;">session_filename</td><td style="vertical-align:top;">:</td><td><div>/home/abhi/Downloads/CourseMaterial/web2Py/web2py/applications/final/sessions/127.0.0.1-4d0f8936-e68c-4380-942c-8a6ddd61ece3</div></td></tr><tr><td style="font-weight:bold;vertical-align:top;">session_hash</td><td style="vertical-align:top;">:</td><td><div>c267e12b5e35e6938f9f0681431abf3f</div></td></tr><tr><td style="font-weight:bold;vertical-align:top;">session_id</td><td style="vertical-align:top;">:</td><td><div>127.0.0.1-4d0f8936-e68c-4380-942c-8a6ddd61ece3</div></td></tr><tr><td style="font-weight:bold;vertical-align:top;">session_id_name</td><td style="vertical-align:top;">:</td><td><div>session_id_final</div></td></tr><tr><td style="font-weight:bold;vertical-align:top;">session_locked</td><td style="vertical-align:top;">:</td><td><div>True</div></td></tr><tr><td style="font-weight:bold;vertical-align:top;">session_masterapp</td><td style="vertical-align:top;">:</td><td><div>final</div></td></tr><tr><td style="font-weight:bold;vertical-align:top;">session_new</td><td style="vertical-align:top;">:</td><td><div>False</div></td></tr><tr><td style="font-weight:bold;vertical-align:top;">session_storage_type</td><td style="vertical-align:top;">:</td><td><div>file</div></td></tr><tr><td style="font-weight:bold;vertical-align:top;">status</td><td style="vertical-align:top;">:</td><td><div>200</div></td></tr><tr><td style="font-weight:bold;vertical-align:top;">subtitle</td><td style="vertical-align:top;">:</td><td><div></div></td></tr><tr><td style="font-weight:bold;vertical-align:top;">title</td><td style="vertical-align:top;">:</td><td><div>Final</div></td></tr><tr><td style="font-weight:bold;vertical-align:top;">view</td><td style="vertical-align:top;">:</td><td><div>default/pop.html</div></td></tr></table></div>'
tRp141
sS'locals'
p142
(dp143
S'k'
S"'title'"
p144
sS'self'
p145
S"<Row {'views': 14L}>"
p146
sssS'traceback'
p147
S'Traceback (most recent call last):\n  File "/home/abhi/Downloads/CourseMaterial/web2Py/web2py/gluon/restricted.py", line 227, in restricted\n    exec ccode in environment\n  File "/home/abhi/Downloads/CourseMaterial/web2Py/web2py/applications/final/views/default/pop.html", line 74, in <module>\n    <!--  search form end -->\n  File "/home/abhi/Downloads/CourseMaterial/web2Py/web2py/gluon/packages/dal/pydal/objects.py", line 90, in __getattr__\n    raise AttributeError\nAttributeError\n'
p148
s.