(dp1
S'output'
p2
S"<class 'httplib2.ServerNotFoundError'> Unable to find the server at www.googleapis.com"
p3
sS'layer'
p4
S'/home/abhi/Downloads/CourseMaterial/web2Py/web2py/applications/final/controllers/default.py'
p5
sS'code'
p6
S'# -*- coding: utf-8 -*-\n# this file is released under public domain and you can use without limitations\n\n#########################################################################\n## This is a sample controller\n## - index is the default action of any application\n## - user is required for authentication and authorization\n## - download is for downloading files uploaded in the db (does streaming)\n#########################################################################\nimport soundcloud\nfrom apiclient.discovery import build\nfrom apiclient.errors import HttpError\nfrom oauth2client.tools import argparser\n\n\n# Set DEVELOPER_KEY to the API key value from the APIs & auth > Registered apps\n# tab of\n#   https://cloud.google.com/console\n# Please ensure that you have enabled the YouTube Data API for your project.\nDEVELOPER_KEY = "AIzaSyBY_Z6jpdpSddA1VQEbAM6x0lNxLWyAir0"\nYOUTUBE_API_SERVICE_NAME = "youtube"\nYOUTUBE_API_VERSION = "v3"\n\nclient = soundcloud.Client(client_id=\'f4e257503f0990527a6e17e14158076e\')\n\n\n\n\n\n\n\n\n\n\n\n\n\ndef index():\n    form = SQLFORM.factory(Field(\'query\',\'string\'), Field(\'option\') ,formstyle=\'divs\', submit_button="Search")\n    response.flash = T("Hello World")\n    if form.process().accepted:\n        #k=redirect(URL(\'default\',\'results\', args=[1, formone.vars.search_query_1]))\n        print form.vars.query\n        redirect(URL(\'default\',\'search_results\', args=[form.vars.option, form.vars.query]))\n    elif form.errors:\n        print "failed"\n    else:\n        print "unknown"\n    #return dict(form=form)\n    return locals()\n\n\ndef test():\n    \n    form = SQLFORM.factory(Field(\'query\',\'string\'), Field(\'option\') ,formstyle=\'divs\', submit_button="Search")\n    response.flash = T("Hello World")\n    if form.process().accepted:\n        #k=redirect(URL(\'default\',\'results\', args=[1, formone.vars.search_query_1]))\n        print form.vars.query\n        redirect(URL(\'default\',\'search_results\', args=[form.vars.option, form.vars.query]))\n    elif form.errors:\n        print "failed"\n    else:\n        print "unknown"\n    return locals()\n\n\ndef search_results():\n    form = SQLFORM.factory(Field(\'query\',\'string\'), Field(\'option\'),formstyle=\'divs\', submit_button="Search")\n    if form.process().accepted:\n        #k=redirect(URL(\'default\',\'results\', args=[1, formone.vars.search_query_1]))\n        print form.vars.query\n        redirect(URL(\'default\',\'search_results\', args=[form.vars.option, form.vars.query]))\n    elif form.errors:\n        print "failed"\n    else:\n        print "unknown"\n    search = request.args(0) or redirect(URL(\'default\',\'index\'))\n    if search == \'V\':\n        import sys\n        reload(sys)\n        sys.setdefaultencoding("utf-8")\n        query = request.args(1) or redirect(URL(\'default\',\'index\'))\n        #try:\n        youtube = build(YOUTUBE_API_SERVICE_NAME, YOUTUBE_API_VERSION,developerKey=DEVELOPER_KEY)\n        search_response = youtube.search().list(q=query.encode(\'utf-8\'),part="id,snippet",maxResults=20).execute()\n        #except httplib2.ServerNotFoundError:\n            #print "Could not convert data to an integer."\n        #else:\n            #print "Haha"\n        l=[]\n        videos = []\n        channels = []\n        playlists = []\n        for search_result in search_response.get("items", []):\n            if search_result["id"]["kind"] == "youtube#video":\n                l.append(search_result["snippet"]["title"])\n                l.append(search_result["id"]["videoId"])\n                videos.append(l)\n                l=[]\n            elif search_result["id"]["kind"] == "youtube#channel":\n                channels.append("%s (%s)" % (search_result["snippet"]["title"],\n                                   search_result["id"]["channelId"]))\n            elif search_result["id"]["kind"] == "youtube#playlist":\n                playlists.append("%s (%s)" % (search_result["snippet"]["title"],\n                                    search_result["id"]["playlistId"]))\n        return dict(videos=videos[0:20],search=search,form=form,query=query)\n    elif search == \'A\':\n        query = request.args(1) or redirect(URL(\'default\',\'index\'))\n        tracks = client.get(\'/tracks\', q=query, limit=20)\n        """emb = []\n        for track in tracks:\n            print track.stream_url\n            url = client.get(track.stream_url, allow_redirects=False)\n            emb.append(url.location)\n            print url.location\n            #print type(track.title)"""\n        for t in tracks:\n            url=t.permalink_url\n            #print url\n            embed_info = client.get(\'/oembed\', url=url)\n            #print embed_info.html\n            #for x in t:\n            #    print x,t[x]\n            #print "\\n\\n"\n        return dict(tracks=tracks,search=search,form=form,query=query)\n\n\n"""def display_manual_form():\n    #form = SQLFORM(db.person)\n    form = SQLFORM.factory(Field(\'s1\',\'string\'), formstyle=\'divs\', submit_button="Search")\n    if form.process(session=None, formname=\'test\').accepted:\n        print query\n    elif form.errors:\n        response.flash = \'form has errors\'\n    else:\n        response.flash = \'please fill the form\'\n    # Note: no form instance is passed to the view\n    return dict()"""\n\ndef spons_playlist():\n    form = SQLFORM.factory(Field(\'query\',\'string\'), Field(\'option\') ,formstyle=\'divs\', submit_button="Search")\n    if form.process().accepted:\n        #k=redirect(URL(\'default\',\'results\', args=[1, formone.vars.search_query_1]))\n        print form.vars.query\n        redirect(URL(\'default\',\'search_results\', args=[form.vars.option, form.vars.query]))\n    elif form.errors:\n        print "failed"\n    else:\n        print "unknown"\n    #search = request.args(0, cast=int) or redirect(URL(\'default\',\'index\'))\n    return dict(form=form)\n\n"""def form_component():\n    form = SQLFORM.factory(Field(\'query\',\'string\'), formstyle=\'divs\', submit_button="Search")\n    if form.process().accepted:\n        #k=redirect(URL(\'default\',\'results\', args=[1, formone.vars.search_query_1]))\n        print form.vars.query\n        redirect(URL(\'default\',\'search_results\', args=[1, form.vars.query]))\n    elif form.errors:\n        print "failed"\n    else:\n        print "unknown"\n    songs = db(db.songs.genre==)\n    #search = request.args(0, cast=int) or redirect(URL(\'default\',\'index\'))\n    return locals()"""\n\n\n#@auth.requires_login()\ndef vote():\n    id=request.args(0,cast=int)\n    #print id\n    flag=True\n    if auth.user:\n        song=db.songs(id)\n        likes=db.songs_like(db.songs_like.songs1==id)\n        #print song\n        #print likes\n        if song:\n            if likes:\n                q=db((db.songs_like.user_id==auth.user.id)&(db.songs_like.songs1==id)).select()\n                print q[0].total\n                if q[0].total==0:\n                    print "Increased Like"\n                    song.update_record(Likes=song.Likes+1)\n                    likes.update_record(total=1)\n                    flag=False\n                else:\n                    print "Deleted Like"\n                    if song.Likes!=0:\n                        song.update_record(Likes=song.Likes-1)\n                    else:\n                        song.update_record(Likes=0)\n                    likes.update_record(total=0)\n                    flag=True\n                    #db((db.songs_like.songs1==song.id)&(db.songs_like.user_id==auth.user.id)).delete()\n            else:\n                #print auth.user.id , song.id\n                db.songs_like.insert(total=1,songs1=song.id,user_id=auth.user.id)\n        else:\n            return str("Song on which you tried to vote doesnt exist")\n        song=db.songs(id)\n        return str(song.Likes)\n    else:\n        return str("Please Log IN")\n\n\n\n@auth.requires_login()\ndef mark_favourite():\n    id=request.args(0,cast=int)\n    print id\n    x=db((db.favourite.songid==id)&(db.favourite.user_id==auth.user.id)).select()\n    print "x is = "\n    print x\n    if not x:\n        db.favourite.insert(songid=id,user_id=auth.user.id)\n        redirect(URL(\'default\',\'see\', args=[1,id]))\n    else :\n        redirect(URL(\'default\',\'index\'))\n\n@auth.requires_login()\ndef favsong():\n    form = SQLFORM.factory(Field(\'query\',\'string\'),Field(\'option\') ,formstyle=\'divs\', submit_button="Search")\n    if form.process().accepted:\n        #k=redirect(URL(\'default\',\'results\', args=[1, formone.vars.search_query_1]))\n        print form.vars.query\n        print form.vars.option\n        redirect(URL(\'default\',\'search_results\', args=[form.vars.option, form.vars.query]))\n    elif form.errors:\n        print "failed"\n    else:\n        print "unknown"\n    result=db(db.favourite.user_id==auth.user.id).select()\n    l=[]\n    for r in result:\n        k=db(db.songs.id==r.songid).select()\n        if k[0].category == \'Audio\':\n            l.append(k[0])\n    return dict(song=l,form=form)\n\n@auth.requires_login()\ndef favideo():\n    form = SQLFORM.factory(Field(\'query\',\'string\'), Field(\'option\') ,formstyle=\'divs\', submit_button="Search")\n    if form.process().accepted:\n        #k=redirect(URL(\'default\',\'results\', args=[1, formone.vars.search_query_1]))\n        print form.vars.query\n        redirect(URL(\'default\',\'search_results\', args=[form.vars.option, form.vars.query]))\n    elif form.errors:\n        print "failed"\n    else:\n        print "unknown"\n    result=db(db.favourite.user_id==auth.user.id).select()\n    l=[]\n    for r in result:\n        k=db(db.songs.id==r.songid).select()\n        if k[0].category == \'Video\':\n            l.append(k[0])\n    return dict(song=l,form=form)\n\ndef widgets():\n    form = SQLFORM.factory(Field(\'query\',\'string\'),Field(\'option\') , formstyle=\'divs\', submit_button="Search")\n    if form.process().accepted:\n        #k=redirect(URL(\'default\',\'results\', args=[1, formone.vars.search_query_1]))\n        print form.vars.query\n        redirect(URL(\'default\',\'search_results\', args=[form.vars.option, form.vars.query]))\n    elif form.errors:\n        print "failed"\n    else:\n        print "unknown"\n\n    song=db().select(db.songs.title,db.songs.id,db.songs.category)\n    return locals()\n\n\ndef radio():\n\n    form = SQLFORM.factory(Field(\'query\',\'string\'), Field(\'option\') ,formstyle=\'divs\', submit_button="Search")\n    response.flash = T("Hello World")\n    if form.process().accepted:\n        #k=redirect(URL(\'default\',\'results\', args=[1, formone.vars.search_query_1]))\n        print form.vars.query\n        redirect(URL(\'default\',\'search_results\', args=[form.vars.option, form.vars.query]))\n    elif form.errors:\n        print "failed"\n    else:\n        print "unknown"\n    import json\n    import urllib2\n    url = "http://api.dirble.com/v2/stations?per_page=30&token=f1a8a36dd125c2e665dafec481"\n    data = json.load(urllib2.urlopen(url))\n    #return dict(form=form)\n    return locals()\n\ndef see():\n    form = SQLFORM.factory(Field(\'query\',\'string\'),Field(\'option\') , formstyle=\'divs\', submit_button="Search")\n    if form.process().accepted:\n        #k=redirect(URL(\'default\',\'results\', args=[1, formone.vars.search_query_1]))\n        #print form.vars.query\n        redirect(URL(\'default\',\'search_results\', args=[form.vars.option, form.vars.query]))\n    elif form.errors:\n        print "failed"\n    else:\n        print "unknown"\n    id=request.args(0,cast=int)\n    #print db.songs(id)\n    song=db.songs(id) or redirect(URL(\'index\'))\n    comments=db(db.cmnt.songs1==song.id).select()\n    #print song.id\n    #song.Likes.default=0\n    Likes=song.Likes\n    #print Likes\n    #for comment in comments:\n    if auth.user:\n        #db.cmnt.songs1=id\n        db.cmnt.songs1.default=id\n        formcmnt=SQLFORM(db.cmnt)\n        if formcmnt.process().accepted:\n            redirect(URL(\'see\',args=id))\n        else:\n            response.flash="Success!"\n    else:\n        formcmnt=A("Please Login for commenting and liking",_href=URL(\'user/login\',vars=dict(_next=URL(args=request.args))))\n    return locals()\n\ndef upload():\n    form=SQLFORM(db.videos, fields=[\'title\',\'description\',\'video\'])\n    return locals()\n\ndef insert():\n    vars=request.get_vars\n    title=vars.title\n    url=vars.url\n    print url\n    category=vars.category\n    genre=vars.genre\n    likes=0\n    existing=db(db.songs.title==vars.title).select()\n    #if category == \'Audio\':\n        #url = client.get(url, allow_redirects=False)\n        #url=url.location\n    if existing:\n        new_id=existing.id\n    else:    \n        db.songs.insert(title=title,url=url,category=category,genre=genre,Likes=likes)\n        new_id=db(db.songs.id>0).count()\n    redirect(URL(\'see\',args=new_id))\n\n"""def see():\n    x=0\n    id=request.args(0,cast=int)\n    print db.songs(id)\n    song=db.songs(id) or redirect(URL(\'index\'))\n    comments=db(db.cmnt.songs1==song.id).select()\n    print song.id\n    #song.Likes.default=0\n    Likes=song.Likes\n    #for comment in comments:\n    if auth.user:\n        #db.cmnt.songs1=id\n        db.cmnt.songs1.default=id\n        form=SQLFORM(db.cmnt)\n        if form.process().accepted:\n            redirect(URL(\'see\',args=id))\n        else:\n            response.flash="Success!"\n    else:\n        form=A("Please Login for commenting and liking",_href=URL(\'user/login\',vars=dict(_next=URL(args=request.args))))\n    return locals()\n"""\n\n@auth.requires_login()\ndef mark_favourite():\n    id=request.args(0,cast=int)\n    print id\n    x=db((db.favourite.songid==id)&(db.favourite.user_id==auth.user.id)).select()\n    print "x is = "\n    print x\n    if not x:\n        db.favourite.insert(songid=id,user_id=auth.user.id)\n        redirect(URL(\'default\',\'see\', args=[1,id]))\n    else :\n        redirect(URL(\'default\',\'index\'))\n\ndef user():\n    """\n    exposes:\n    http://..../[app]/default/user/login\n    http://..../[app]/default/user/logout\n    http://..../[app]/default/user/register\n    http://..../[app]/default/user/profile\n    http://..../[app]/default/user/retrieve_password\n    http://..../[app]/default/user/change_password\n    http://..../[app]/default/user/manage_users (requires membership in\n    http://..../[app]/default/user/bulk_register\n    use @auth.requires_login()\n        @auth.requires_membership(\'group name\')\n        @auth.requires_permission(\'read\',\'table name\',record_id)\n    to decorate functions that need access control\n    """\n    return dict(form=auth())\n\n\n@cache.action()\ndef download():\n    """\n    allows downloading of uploaded files\n    http://..../[app]/default/download/[filename]\n    """\n    return response.download(request, db)\n\n\ndef call():\n    """\n    exposes services. for example:\n    http://..../[app]/default/call/jsonrpc\n    decorate with @services.jsonrpc the functions to expose\n    supports xml, json, xmlrpc, jsonrpc, amfrpc, rss, csv\n    """\n    return service()\nresponse._vars=response._caller(search_results)\n'
p7
sS'snapshot'
p8
(dp9
S'exception'
p10
(dp11
S'__module__'
p12
S"'httplib2'"
p13
sS'__getslice__'
p14
S"<method-wrapper '__getslice__' of ServerNotFoundError object>"
p15
sS'__str__'
p16
S"<method-wrapper '__str__' of ServerNotFoundError object>"
p17
sS'__reduce__'
p18
S'<built-in method __reduce__ of ServerNotFoundError object>'
p19
sS'__dict__'
p20
S'{}'
p21
sS'__sizeof__'
p22
S'<built-in method __sizeof__ of ServerNotFoundError object>'
p23
sS'__weakref__'
p24
S'None'
p25
sS'__init__'
p26
S"<method-wrapper '__init__' of ServerNotFoundError object>"
p27
sS'__setattr__'
p28
S"<method-wrapper '__setattr__' of ServerNotFoundError object>"
p29
sS'__reduce_ex__'
p30
S'<built-in method __reduce_ex__ of ServerNotFoundError object>'
p31
sS'__new__'
p32
S'<built-in method __new__ of type object>'
p33
sS'__format__'
p34
S'<built-in method __format__ of ServerNotFoundError object>'
p35
sS'__class__'
p36
S"<class 'httplib2.ServerNotFoundError'>"
p37
sS'__doc__'
p38
S'None'
p39
sS'__getitem__'
p40
S"<method-wrapper '__getitem__' of ServerNotFoundError object>"
p41
sS'__setstate__'
p42
S'<built-in method __setstate__ of ServerNotFoundError object>'
p43
sS'__getattribute__'
p44
S"<method-wrapper '__getattribute__' of ServerNotFoundError object>"
p45
sS'args'
p46
S"('Unable to find the server at www.googleapis.com',)"
p47
sS'__subclasshook__'
p48
S'<built-in method __subclasshook__ of type object>'
p49
sS'__unicode__'
p50
S'<built-in method __unicode__ of ServerNotFoundError object>'
p51
sS'__delattr__'
p52
S"<method-wrapper '__delattr__' of ServerNotFoundError object>"
p53
sS'__repr__'
p54
S"<method-wrapper '__repr__' of ServerNotFoundError object>"
p55
sS'__hash__'
p56
S"<method-wrapper '__hash__' of ServerNotFoundError object>"
p57
ssS'evalue'
p58
S'Unable to find the server at www.googleapis.com'
p59
sS'request'
p60
cgluon.html
XML_unpickle
p61
(S'sJj\x00\x00<div><table><tr><td style="font-weight:bold;vertical-align:top;">ajax</td><td style="vertical-align:top;">:</td><td><div>False</div></td></tr><tr><td style="font-weight:bold;vertical-align:top;">application</td><td style="vertical-align:top;">:</td><td><div>final</div></td></tr><tr><td style="font-weight:bold;vertical-align:top;">args</td><td style="vertical-align:top;">:</td><td><div><table><tr><td><div>V</div></td></tr><tr><td><div>fir</div></td></tr></table></div></td></tr><tr><td style="font-weight:bold;vertical-align:top;">cid</td><td style="vertical-align:top;">:</td><td><div>None</div></td></tr><tr><td style="font-weight:bold;vertical-align:top;">client</td><td style="vertical-align:top;">:</td><td><div>127.0.0.1</div></td></tr><tr><td style="font-weight:bold;vertical-align:top;">controller</td><td style="vertical-align:top;">:</td><td><div>default</div></td></tr><tr><td style="font-weight:bold;vertical-align:top;">cookies</td><td style="vertical-align:top;">:</td><td><div><table><tr><td style="font-weight:bold;vertical-align:top;">session_id_admin</td><td style="vertical-align:top;">:</td><td><div>127.0.0.1-144f05f8-0628-4f43-beef-3d0df169978f<table><tr><td style="font-weight:bold;vertical-align:top;">comment</td><td style="vertical-align:top;">:</td><td><div></div></td></tr><tr><td style="font-weight:bold;vertical-align:top;">domain</td><td style="vertical-align:top;">:</td><td><div></div></td></tr><tr><td style="font-weight:bold;vertical-align:top;">expires</td><td style="vertical-align:top;">:</td><td><div></div></td></tr><tr><td style="font-weight:bold;vertical-align:top;">httponly</td><td style="vertical-align:top;">:</td><td><div></div></td></tr><tr><td style="font-weight:bold;vertical-align:top;">max-age</td><td style="vertical-align:top;">:</td><td><div></div></td></tr><tr><td style="font-weight:bold;vertical-align:top;">path</td><td style="vertical-align:top;">:</td><td><div></div></td></tr><tr><td style="font-weight:bold;vertical-align:top;">secure</td><td style="vertical-align:top;">:</td><td><div></div></td></tr><tr><td style="font-weight:bold;vertical-align:top;">version</td><td style="vertical-align:top;">:</td><td><div></div></td></tr></table></div></td></tr><tr><td style="font-weight:bold;vertical-align:top;">session_id_final</td><td style="vertical-align:top;">:</td><td><div>127.0.0.1-a4b8581c-805d-4905-89d5-57608d71a28c<table><tr><td style="font-weight:bold;vertical-align:top;">comment</td><td style="vertical-align:top;">:</td><td><div></div></td></tr><tr><td style="font-weight:bold;vertical-align:top;">domain</td><td style="vertical-align:top;">:</td><td><div></div></td></tr><tr><td style="font-weight:bold;vertical-align:top;">expires</td><td style="vertical-align:top;">:</td><td><div></div></td></tr><tr><td style="font-weight:bold;vertical-align:top;">httponly</td><td style="vertical-align:top;">:</td><td><div></div></td></tr><tr><td style="font-weight:bold;vertical-align:top;">max-age</td><td style="vertical-align:top;">:</td><td><div></div></td></tr><tr><td style="font-weight:bold;vertical-align:top;">path</td><td style="vertical-align:top;">:</td><td><div></div></td></tr><tr><td style="font-weight:bold;vertical-align:top;">secure</td><td style="vertical-align:top;">:</td><td><div></div></td></tr><tr><td style="font-weight:bold;vertical-align:top;">version</td><td style="vertical-align:top;">:</td><td><div></div></td></tr></table></div></td></tr><tr><td style="font-weight:bold;vertical-align:top;">session_id_modal</td><td style="vertical-align:top;">:</td><td><div>127.0.0.1-686792ce-a9d0-4eb2-913e-ce7e5a93b8fb<table><tr><td style="font-weight:bold;vertical-align:top;">comment</td><td style="vertical-align:top;">:</td><td><div></div></td></tr><tr><td style="font-weight:bold;vertical-align:top;">domain</td><td style="vertical-align:top;">:</td><td><div></div></td></tr><tr><td style="font-weight:bold;vertical-align:top;">expires</td><td style="vertical-align:top;">:</td><td><div></div></td></tr><tr><td style="font-weight:bold;vertical-align:top;">httponly</td><td style="vertical-align:top;">:</td><td><div></div></td></tr><tr><td style="font-weight:bold;vertical-align:top;">max-age</td><td style="vertical-align:top;">:</td><td><div></div></td></tr><tr><td style="font-weight:bold;vertical-align:top;">path</td><td style="vertical-align:top;">:</td><td><div></div></td></tr><tr><td style="font-weight:bold;vertical-align:top;">secure</td><td style="vertical-align:top;">:</td><td><div></div></td></tr><tr><td style="font-weight:bold;vertical-align:top;">version</td><td style="vertical-align:top;">:</td><td><div></div></td></tr></table></div></td></tr><tr><td style="font-weight:bold;vertical-align:top;">session_id_mymusic</td><td style="vertical-align:top;">:</td><td><div>127.0.0.1-488eddb4-c7b6-40bf-b289-6628f887272d<table><tr><td style="font-weight:bold;vertical-align:top;">comment</td><td style="vertical-align:top;">:</td><td><div></div></td></tr><tr><td style="font-weight:bold;vertical-align:top;">domain</td><td style="vertical-align:top;">:</td><td><div></div></td></tr><tr><td style="font-weight:bold;vertical-align:top;">expires</td><td style="vertical-align:top;">:</td><td><div></div></td></tr><tr><td style="font-weight:bold;vertical-align:top;">httponly</td><td style="vertical-align:top;">:</td><td><div></div></td></tr><tr><td style="font-weight:bold;vertical-align:top;">max-age</td><td style="vertical-align:top;">:</td><td><div></div></td></tr><tr><td style="font-weight:bold;vertical-align:top;">path</td><td style="vertical-align:top;">:</td><td><div></div></td></tr><tr><td style="font-weight:bold;vertical-align:top;">secure</td><td style="vertical-align:top;">:</td><td><div></div></td></tr><tr><td style="font-weight:bold;vertical-align:top;">version</td><td style="vertical-align:top;">:</td><td><div></div></td></tr></table></div></td></tr><tr><td style="font-weight:bold;vertical-align:top;">session_id_videolibrary</td><td style="vertical-align:top;">:</td><td><div>127.0.0.1-e9f1a0ee-6f98-4604-8075-717e10c6c66d<table><tr><td style="font-weight:bold;vertical-align:top;">comment</td><td style="vertical-align:top;">:</td><td><div></div></td></tr><tr><td style="font-weight:bold;vertical-align:top;">domain</td><td style="vertical-align:top;">:</td><td><div></div></td></tr><tr><td style="font-weight:bold;vertical-align:top;">expires</td><td style="vertical-align:top;">:</td><td><div></div></td></tr><tr><td style="font-weight:bold;vertical-align:top;">httponly</td><td style="vertical-align:top;">:</td><td><div></div></td></tr><tr><td style="font-weight:bold;vertical-align:top;">max-age</td><td style="vertical-align:top;">:</td><td><div></div></td></tr><tr><td style="font-weight:bold;vertical-align:top;">path</td><td style="vertical-align:top;">:</td><td><div></div></td></tr><tr><td style="font-weight:bold;vertical-align:top;">secure</td><td style="vertical-align:top;">:</td><td><div></div></td></tr><tr><td style="font-weight:bold;vertical-align:top;">version</td><td style="vertical-align:top;">:</td><td><div></div></td></tr></table></div></td></tr></table></div></td></tr><tr><td style="font-weight:bold;vertical-align:top;">env</td><td style="vertical-align:top;">:</td><td><div><table><tr><td style="font-weight:bold;vertical-align:top;">HTTP_ACCEPT</td><td style="vertical-align:top;">:</td><td><div>text/html,application/xhtml+xml,application/xml;q=0.9,image/webp,*/*;q=0.8</div></td></tr><tr><td style="font-weight:bold;vertical-align:top;">HTTP_ACCEPT_ENCODING</td><td style="vertical-align:top;">:</td><td><div>gzip, deflate, sdch</div></td></tr><tr><td style="font-weight:bold;vertical-align:top;">HTTP_ACCEPT_LANGUAGE</td><td style="vertical-align:top;">:</td><td><div>en-US,en;q=0.8</div></td></tr><tr><td style="font-weight:bold;vertical-align:top;">HTTP_CACHE_CONTROL</td><td style="vertical-align:top;">:</td><td><div>max-age=0</div></td></tr><tr><td style="font-weight:bold;vertical-align:top;">HTTP_CONNECTION</td><td style="vertical-align:top;">:</td><td><div>keep-alive</div></td></tr><tr><td style="font-weight:bold;vertical-align:top;">HTTP_COOKIE</td><td style="vertical-align:top;">:</td><td><div>session_id_videolibrary=127.0.0.1-e9f1a0ee-6f98-4604-8075-717e10c6c66d; session_id_mymusic=127.0.0.1-488eddb4-c7b6-40bf-b289-6628f887272d; session_id_modal=127.0.0.1-686792ce-a9d0-4eb2-913e-ce7e5a93b8fb; session_id_admin=127.0.0.1-144f05f8-0628-4f43-beef-3d0df169978f; session_id_final=127.0.0.1-a4b8581c-805d-4905-89d5-57608d71a28c</div></td></tr><tr><td style="font-weight:bold;vertical-align:top;">HTTP_HOST</td><td style="vertical-align:top;">:</td><td><div>127.0.0.1:8000</div></td></tr><tr><td style="font-weight:bold;vertical-align:top;">HTTP_REFERER</td><td style="vertical-align:top;">:</td><td><div>http://127.0.0.1:8000/final/default/see/29</div></td></tr><tr><td style="font-weight:bold;vertical-align:top;">HTTP_UPGRADE_INSECURE_REQUESTS</td><td style="vertical-align:top;">:</td><td><div>1</div></td></tr><tr><td style="font-weight:bold;vertical-align:top;">HTTP_USER_AGENT</td><td style="vertical-align:top;">:</td><td><div>Mozilla/5.0 (X11; Linux x86_64) AppleWebKit/537.36 (KHTML, like Gecko) Chrome/45.0.2454.101 Safari/537.36</div></td></tr><tr><td style="font-weight:bold;vertical-align:top;">PATH_INFO</td><td style="vertical-align:top;">:</td><td><div>/final/default/search_results/V/fir</div></td></tr><tr><td style="font-weight:bold;vertical-align:top;">QUERY_STRING</td><td style="vertical-align:top;">:</td><td><div></div></td></tr><tr><td style="font-weight:bold;vertical-align:top;">REMOTE_ADDR</td><td style="vertical-align:top;">:</td><td><div>127.0.0.1</div></td></tr><tr><td style="font-weight:bold;vertical-align:top;">REMOTE_PORT</td><td style="vertical-align:top;">:</td><td><div>57598</div></td></tr><tr><td style="font-weight:bold;vertical-align:top;">REQUEST_METHOD</td><td style="vertical-align:top;">:</td><td><div>GET</div></td></tr><tr><td style="font-weight:bold;vertical-align:top;">SCRIPT_NAME</td><td style="vertical-align:top;">:</td><td><div></div></td></tr><tr><td style="font-weight:bold;vertical-align:top;">SERVER_NAME</td><td style="vertical-align:top;">:</td><td><div>abhi-Vostro-3546</div></td></tr><tr><td style="font-weight:bold;vertical-align:top;">SERVER_PORT</td><td style="vertical-align:top;">:</td><td><div>8000</div></td></tr><tr><td style="font-weight:bold;vertical-align:top;">SERVER_PROTOCOL</td><td style="vertical-align:top;">:</td><td><div>HTTP/1.1</div></td></tr><tr><td style="font-weight:bold;vertical-align:top;">SERVER_SOFTWARE</td><td style="vertical-align:top;">:</td><td><div>Rocket 1.2.6</div></td></tr><tr><td style="font-weight:bold;vertical-align:top;">app_folders</td><td style="vertical-align:top;">:</td><td><div>set([&#x27;/home/abhi/Downloads/CourseMaterial/web2Py/web2py/applications/welcome/&#x27;, &#x27;/home/abhi/Downloads/CourseMaterial/web2Py/web2py/applications/modal/&#x27;, &#x27;/home/abhi/Downloads/CourseMaterial/web2Py/web2py/applications/final/&#x27;, &#x27;/home/abhi/Downloads/CourseMaterial/web2Py/web2py/applications/admin/&#x27;])</div></td></tr><tr><td style="font-weight:bold;vertical-align:top;">applications_parent</td><td style="vertical-align:top;">:</td><td><div>/home/abhi/Downloads/CourseMaterial/web2Py/web2py</div></td></tr><tr><td style="font-weight:bold;vertical-align:top;">cmd_args</td><td style="vertical-align:top;">:</td><td><div><table></table></div></td></tr><tr><td style="font-weight:bold;vertical-align:top;">cmd_options</td><td style="vertical-align:top;">:</td><td><div>&lt;Values at 0x7f8401c8dfc8: {&#x27;verbose&#x27;: False, &#x27;ip&#x27;: &#x27;127.0.0.1&#x27;, &#x27;debuglevel&#x27;: 30, &#x27;with_scheduler&#x27;: False, &#x27;ips&#x27;: [&#x27;127.0.1.1&#x27;], &#x27;shutdown_timeout&#x27;: 5, &#x27;taskbar&#x27;: False, &#x27;with_coverage&#x27;: False, &#x27;scheduler_groups&#x27;: None, &#x27;port&#x27;: 8000, &#x27;maxthreads&#x27;: None, &#x27;softcron&#x27;: False, &#x27;server_name&#x27;: &#x27;abhi-Vostro-3546&#x27;, &#x27;bpython&#x27;: False, &#x27;nogui&#x27;: False, &#x27;pid_filename&#x27;: &#x27;httpserver.pid&#x27;, &#x27;print_errors&#x27;: False, &#x27;extcron&#x27;: False, &#x27;runcron&#x27;: False, &#x27;run_system_tests&#x27;: False, &#x27;test&#x27;: None, &#x27;folder&#x27;: &#x27;/home/abhi/Downloads/CourseMaterial/web2Py/web2py&#x27;, &#x27;config&#x27;: &#x27;&#x27;, &#x27;minthreads&#x27;: None, &#x27;shell&#x27;: None, &#x27;run&#x27;: &#x27;&#x27;, &#x27;log_filename&#x27;: &#x27;httpserver.log&#x27;, &#x27;profiler_dir&#x27;: None, &#x27;args&#x27;: [&#x27;&#x27;], &#x27;socket_timeout&#x27;: 5, &#x27;ssl_ca_certificate&#x27;: None, &#x27;scheduler&#x27;: None, &#x27;interfaces&#x27;: None, &#x27;ssl_private_key&#x27;: &#x27;&#x27;, &#x27;gae&#x27;: None, &#x27;password&#x27;: &#x27;&lt;ask&gt;&#x27;, &#x27;request_queue_size&#x27;: 5, &#x27;ssl_certificate&#x27;: &#x27;&#x27;, &#x27;cronjob&#x27;: False, &#x27;numthreads&#x27;: None, &#x27;quiet&#x27;: False, &#x27;import_models&#x27;: False, &#x27;timeout&#x27;: 10, &#x27;plain&#x27;: False, &#x27;nobanner&#x27;: False}&gt;</div></td></tr><tr><td style="font-weight:bold;vertical-align:top;">db_sessions</td><td style="vertical-align:top;">:</td><td><div>set([])</div></td></tr><tr><td style="font-weight:bold;vertical-align:top;">debugging</td><td style="vertical-align:top;">:</td><td><div>False</div></td></tr><tr><td style="font-weight:bold;vertical-align:top;">gluon_parent</td><td style="vertical-align:top;">:</td><td><div>/home/abhi/Downloads/CourseMaterial/web2Py/web2py</div></td></tr><tr><td style="font-weight:bold;vertical-align:top;">http_accept</td><td style="vertical-align:top;">:</td><td><div>text/html,application/xhtml+xml,application/xml;q=0.9,image/webp,*/*;q=0.8</div></td></tr><tr><td style="font-weight:bold;vertical-align:top;">http_accept_encoding</td><td style="vertical-align:top;">:</td><td><div>gzip, deflate, sdch</div></td></tr><tr><td style="font-weight:bold;vertical-align:top;">http_accept_language</td><td style="vertical-align:top;">:</td><td><div>en-US,en;q=0.8</div></td></tr><tr><td style="font-weight:bold;vertical-align:top;">http_cache_control</td><td style="vertical-align:top;">:</td><td><div>max-age=0</div></td></tr><tr><td style="font-weight:bold;vertical-align:top;">http_connection</td><td style="vertical-align:top;">:</td><td><div>keep-alive</div></td></tr><tr><td style="font-weight:bold;vertical-align:top;">http_cookie</td><td style="vertical-align:top;">:</td><td><div>session_id_videolibrary=127.0.0.1-e9f1a0ee-6f98-4604-8075-717e10c6c66d; session_id_mymusic=127.0.0.1-488eddb4-c7b6-40bf-b289-6628f887272d; session_id_modal=127.0.0.1-686792ce-a9d0-4eb2-913e-ce7e5a93b8fb; session_id_admin=127.0.0.1-144f05f8-0628-4f43-beef-3d0df169978f; session_id_final=127.0.0.1-a4b8581c-805d-4905-89d5-57608d71a28c</div></td></tr><tr><td style="font-weight:bold;vertical-align:top;">http_host</td><td style="vertical-align:top;">:</td><td><div>127.0.0.1:8000</div></td></tr><tr><td style="font-weight:bold;vertical-align:top;">http_referer</td><td style="vertical-align:top;">:</td><td><div>http://127.0.0.1:8000/final/default/see/29</div></td></tr><tr><td style="font-weight:bold;vertical-align:top;">http_upgrade_insecure_requests</td><td style="vertical-align:top;">:</td><td><div>1</div></td></tr><tr><td style="font-weight:bold;vertical-align:top;">http_user_agent</td><td style="vertical-align:top;">:</td><td><div>Mozilla/5.0 (X11; Linux x86_64) AppleWebKit/537.36 (KHTML, like Gecko) Chrome/45.0.2454.101 Safari/537.36</div></td></tr><tr><td style="font-weight:bold;vertical-align:top;">is_jython</td><td style="vertical-align:top;">:</td><td><div>False</div></td></tr><tr><td style="font-weight:bold;vertical-align:top;">is_pypy</td><td style="vertical-align:top;">:</td><td><div>False</div></td></tr><tr><td style="font-weight:bold;vertical-align:top;">is_source</td><td style="vertical-align:top;">:</td><td><div>True</div></td></tr><tr><td style="font-weight:bold;vertical-align:top;">local_hosts</td><td style="vertical-align:top;">:</td><td><div><table><tr><td><div>::1</div></td></tr><tr><td><div>127.0.1.1</div></td></tr><tr><td><div>::ffff:127.0.0.1</div></td></tr><tr><td><div>127.0.0.1</div></td></tr><tr><td><div>abhi-Vostro-3546</div></td></tr></table></div></td></tr><tr><td style="font-weight:bold;vertical-align:top;">path_info</td><td style="vertical-align:top;">:</td><td><div>/final/default/search_results/V/fir</div></td></tr><tr><td style="font-weight:bold;vertical-align:top;">query_string</td><td style="vertical-align:top;">:</td><td><div></div></td></tr><tr><td style="font-weight:bold;vertical-align:top;">remote_addr</td><td style="vertical-align:top;">:</td><td><div>127.0.0.1</div></td></tr><tr><td style="font-weight:bold;vertical-align:top;">remote_port</td><td style="vertical-align:top;">:</td><td><div>57598</div></td></tr><tr><td style="font-weight:bold;vertical-align:top;">request_method</td><td style="vertical-align:top;">:</td><td><div>GET</div></td></tr><tr><td style="font-weight:bold;vertical-align:top;">request_uri</td><td style="vertical-align:top;">:</td><td><div>/final/default/search_results/V/fir</div></td></tr><tr><td style="font-weight:bold;vertical-align:top;">script_name</td><td style="vertical-align:top;">:</td><td><div></div></td></tr><tr><td style="font-weight:bold;vertical-align:top;">server_name</td><td style="vertical-align:top;">:</td><td><div>abhi-Vostro-3546</div></td></tr><tr><td style="font-weight:bold;vertical-align:top;">server_port</td><td style="vertical-align:top;">:</td><td><div>8000</div></td></tr><tr><td style="font-weight:bold;vertical-align:top;">server_protocol</td><td style="vertical-align:top;">:</td><td><div>HTTP/1.1</div></td></tr><tr><td style="font-weight:bold;vertical-align:top;">server_software</td><td style="vertical-align:top;">:</td><td><div>Rocket 1.2.6</div></td></tr><tr><td style="font-weight:bold;vertical-align:top;">web2py_path</td><td style="vertical-align:top;">:</td><td><div>/home/abhi/Downloads/CourseMaterial/web2Py/web2py</div></td></tr><tr><td style="font-weight:bold;vertical-align:top;">web2py_version</td><td style="vertical-align:top;">:</td><td><div>2.12.3-stable+timestamp.2015.08.19.00.18.03</div></td></tr><tr><td style="font-weight:bold;vertical-align:top;">wsgi.errors</td><td style="vertical-align:top;">:</td><td><div>&lt;open file &#x27;&lt;stderr&gt;&#x27;, mode &#x27;w&#x27; at 0x7f8408eec1e0&gt;</div></td></tr><tr><td style="font-weight:bold;vertical-align:top;">wsgi.file_wrapper</td><td style="vertical-align:top;">:</td><td><div>&lt;class wsgiref.util.FileWrapper at 0x7f8401d16e88&gt;</div></td></tr><tr><td style="font-weight:bold;vertical-align:top;">wsgi.input</td><td style="vertical-align:top;">:</td><td><div>&lt;socket._fileobject object at 0x7f83c30cbb50&gt;</div></td></tr><tr><td style="font-weight:bold;vertical-align:top;">wsgi.multiprocess</td><td style="vertical-align:top;">:</td><td><div>False</div></td></tr><tr><td style="font-weight:bold;vertical-align:top;">wsgi.multithread</td><td style="vertical-align:top;">:</td><td><div>True</div></td></tr><tr><td style="font-weight:bold;vertical-align:top;">wsgi.run_once</td><td style="vertical-align:top;">:</td><td><div>False</div></td></tr><tr><td style="font-weight:bold;vertical-align:top;">wsgi.url_scheme</td><td style="vertical-align:top;">:</td><td><div>http</div></td></tr><tr><td style="font-weight:bold;vertical-align:top;">wsgi.version</td><td style="vertical-align:top;">:</td><td><div><table><tr><td><div>1</div></td></tr><tr><td><div>0</div></td></tr></table></div></td></tr><tr><td style="font-weight:bold;vertical-align:top;">wsgi_errors</td><td style="vertical-align:top;">:</td><td><div>&lt;open file &#x27;&lt;stderr&gt;&#x27;, mode &#x27;w&#x27; at 0x7f8408eec1e0&gt;</div></td></tr><tr><td style="font-weight:bold;vertical-align:top;">wsgi_file_wrapper</td><td style="vertical-align:top;">:</td><td><div>&lt;class wsgiref.util.FileWrapper at 0x7f8401d16e88&gt;</div></td></tr><tr><td style="font-weight:bold;vertical-align:top;">wsgi_input</td><td style="vertical-align:top;">:</td><td><div>&lt;socket._fileobject object at 0x7f83c30cbb50&gt;</div></td></tr><tr><td style="font-weight:bold;vertical-align:top;">wsgi_multiprocess</td><td style="vertical-align:top;">:</td><td><div>False</div></td></tr><tr><td style="font-weight:bold;vertical-align:top;">wsgi_multithread</td><td style="vertical-align:top;">:</td><td><div>True</div></td></tr><tr><td style="font-weight:bold;vertical-align:top;">wsgi_run_once</td><td style="vertical-align:top;">:</td><td><div>False</div></td></tr><tr><td style="font-weight:bold;vertical-align:top;">wsgi_url_scheme</td><td style="vertical-align:top;">:</td><td><div>http</div></td></tr><tr><td style="font-weight:bold;vertical-align:top;">wsgi_version</td><td style="vertical-align:top;">:</td><td><div><table><tr><td><div>1</div></td></tr><tr><td><div>0</div></td></tr></table></div></td></tr></table></div></td></tr><tr><td style="font-weight:bold;vertical-align:top;">extension</td><td style="vertical-align:top;">:</td><td><div>html</div></td></tr><tr><td style="font-weight:bold;vertical-align:top;">folder</td><td style="vertical-align:top;">:</td><td><div>/home/abhi/Downloads/CourseMaterial/web2Py/web2py/applications/final/</div></td></tr><tr><td style="font-weight:bold;vertical-align:top;">function</td><td style="vertical-align:top;">:</td><td><div>search_results</div></td></tr><tr><td style="font-weight:bold;vertical-align:top;">global_settings</td><td style="vertical-align:top;">:</td><td><div><table><tr><td style="font-weight:bold;vertical-align:top;">app_folders</td><td style="vertical-align:top;">:</td><td><div>set([&#x27;/home/abhi/Downloads/CourseMaterial/web2Py/web2py/applications/welcome/&#x27;, &#x27;/home/abhi/Downloads/CourseMaterial/web2Py/web2py/applications/modal/&#x27;, &#x27;/home/abhi/Downloads/CourseMaterial/web2Py/web2py/applications/final/&#x27;, &#x27;/home/abhi/Downloads/CourseMaterial/web2Py/web2py/applications/admin/&#x27;])</div></td></tr><tr><td style="font-weight:bold;vertical-align:top;">applications_parent</td><td style="vertical-align:top;">:</td><td><div>/home/abhi/Downloads/CourseMaterial/web2Py/web2py</div></td></tr><tr><td style="font-weight:bold;vertical-align:top;">cmd_args</td><td style="vertical-align:top;">:</td><td><div><table></table></div></td></tr><tr><td style="font-weight:bold;vertical-align:top;">cmd_options</td><td style="vertical-align:top;">:</td><td><div>&lt;Values at 0x7f8401c8dfc8: {&#x27;verbose&#x27;: False, &#x27;ip&#x27;: &#x27;127.0.0.1&#x27;, &#x27;debuglevel&#x27;: 30, &#x27;with_scheduler&#x27;: False, &#x27;ips&#x27;: [&#x27;127.0.1.1&#x27;], &#x27;shutdown_timeout&#x27;: 5, &#x27;taskbar&#x27;: False, &#x27;with_coverage&#x27;: False, &#x27;scheduler_groups&#x27;: None, &#x27;port&#x27;: 8000, &#x27;maxthreads&#x27;: None, &#x27;softcron&#x27;: False, &#x27;server_name&#x27;: &#x27;abhi-Vostro-3546&#x27;, &#x27;bpython&#x27;: False, &#x27;nogui&#x27;: False, &#x27;pid_filename&#x27;: &#x27;httpserver.pid&#x27;, &#x27;print_errors&#x27;: False, &#x27;extcron&#x27;: False, &#x27;runcron&#x27;: False, &#x27;run_system_tests&#x27;: False, &#x27;test&#x27;: None, &#x27;folder&#x27;: &#x27;/home/abhi/Downloads/CourseMaterial/web2Py/web2py&#x27;, &#x27;config&#x27;: &#x27;&#x27;, &#x27;minthreads&#x27;: None, &#x27;shell&#x27;: None, &#x27;run&#x27;: &#x27;&#x27;, &#x27;log_filename&#x27;: &#x27;httpserver.log&#x27;, &#x27;profiler_dir&#x27;: None, &#x27;args&#x27;: [&#x27;&#x27;], &#x27;socket_timeout&#x27;: 5, &#x27;ssl_ca_certificate&#x27;: None, &#x27;scheduler&#x27;: None, &#x27;interfaces&#x27;: None, &#x27;ssl_private_key&#x27;: &#x27;&#x27;, &#x27;gae&#x27;: None, &#x27;password&#x27;: &#x27;&lt;ask&gt;&#x27;, &#x27;request_queue_size&#x27;: 5, &#x27;ssl_certificate&#x27;: &#x27;&#x27;, &#x27;cronjob&#x27;: False, &#x27;numthreads&#x27;: None, &#x27;quiet&#x27;: False, &#x27;import_models&#x27;: False, &#x27;timeout&#x27;: 10, &#x27;plain&#x27;: False, &#x27;nobanner&#x27;: False}&gt;</div></td></tr><tr><td style="font-weight:bold;vertical-align:top;">db_sessions</td><td style="vertical-align:top;">:</td><td><div>set([])</div></td></tr><tr><td style="font-weight:bold;vertical-align:top;">debugging</td><td style="vertical-align:top;">:</td><td><div>False</div></td></tr><tr><td style="font-weight:bold;vertical-align:top;">gluon_parent</td><td style="vertical-align:top;">:</td><td><div>/home/abhi/Downloads/CourseMaterial/web2Py/web2py</div></td></tr><tr><td style="font-weight:bold;vertical-align:top;">is_jython</td><td style="vertical-align:top;">:</td><td><div>False</div></td></tr><tr><td style="font-weight:bold;vertical-align:top;">is_pypy</td><td style="vertical-align:top;">:</td><td><div>False</div></td></tr><tr><td style="font-weight:bold;vertical-align:top;">is_source</td><td style="vertical-align:top;">:</td><td><div>True</div></td></tr><tr><td style="font-weight:bold;vertical-align:top;">local_hosts</td><td style="vertical-align:top;">:</td><td><div><table><tr><td><div>::1</div></td></tr><tr><td><div>127.0.1.1</div></td></tr><tr><td><div>::ffff:127.0.0.1</div></td></tr><tr><td><div>127.0.0.1</div></td></tr><tr><td><div>abhi-Vostro-3546</div></td></tr></table></div></td></tr><tr><td style="font-weight:bold;vertical-align:top;">web2py_version</td><td style="vertical-align:top;">:</td><td><div>2.12.3-stable+timestamp.2015.08.19.00.18.03</div></td></tr></table></div></td></tr><tr><td style="font-weight:bold;vertical-align:top;">is_https</td><td style="vertical-align:top;">:</td><td><div>False</div></td></tr><tr><td style="font-weight:bold;vertical-align:top;">is_local</td><td style="vertical-align:top;">:</td><td><div>True</div></td></tr><tr><td style="font-weight:bold;vertical-align:top;">is_restful</td><td style="vertical-align:top;">:</td><td><div>False</div></td></tr><tr><td style="font-weight:bold;vertical-align:top;">is_sheduler</td><td style="vertical-align:top;">:</td><td><div>None</div></td></tr><tr><td style="font-weight:bold;vertical-align:top;">is_shell</td><td style="vertical-align:top;">:</td><td><div>None</div></td></tr><tr><td style="font-weight:bold;vertical-align:top;">now</td><td style="vertical-align:top;">:</td><td><div>datetime.datetime(2015, 11, 20, 2, 17, 23, 711402)</div></td></tr><tr><td style="font-weight:bold;vertical-align:top;">raw_args</td><td style="vertical-align:top;">:</td><td><div>V/fir</div></td></tr><tr><td style="font-weight:bold;vertical-align:top;">raw_extension</td><td style="vertical-align:top;">:</td><td><div>None</div></td></tr><tr><td style="font-weight:bold;vertical-align:top;">url</td><td style="vertical-align:top;">:</td><td><div>/final/default/search_results/V/fir</div></td></tr><tr><td style="font-weight:bold;vertical-align:top;">utcnow</td><td style="vertical-align:top;">:</td><td><div>datetime.datetime(2015, 11, 19, 20, 47, 23, 711420)</div></td></tr><tr><td style="font-weight:bold;vertical-align:top;">wsgi</td><td style="vertical-align:top;">:</td><td><div>&lt;gluon.main.LazyWSGI object at 0x7f83c36474d0&gt;</div></td></tr></table></div>'
tRp62
sS'frames'
p63
(lp64
(dp65
S'file'
p66
S'/home/abhi/Downloads/CourseMaterial/web2Py/web2py/gluon/restricted.py'
p67
sS'dump'
p68
(dp69
S'environment'
p70
S"{'A': <class 'gluon.html.A'>, 'ANY_OF': <class 'gluon.validators.ANY_OF'>, 'ASSIGNJS': <function ASSIGNJS>, 'AppConfig': <function AppConfig>, 'Auth': <class 'gluon.tools.Auth'>, 'B': <class 'gluon.html.B'>, 'BEAUTIFY': <class 'gluon.html.BEAUTIFY'>, 'BODY': <class 'gluon.html.BODY'>, 'BR': <class 'gluon.html.BR'>, 'BUTTON': <class 'gluon.html.BUTTON'>, ...}"
p71
sS'ccode'
p72
S'<code object <module> at 0x7f83c13d4830, file "/...lications/final/controllers/default.py", line 10>'
p73
ssS'lnum'
p74
I227
sS'lines'
p75
(dp76
I224
S'            ccode = code'
p77
sI225
S'        else:'
p78
sI226
S'            ccode = compile2(code, layer)'
p79
sI227
S'        exec ccode in environment'
p80
sI228
S'    except HTTP:'
p81
sI229
S'        raise'
p82
sI230
S'    except RestrictedError:'
p83
sI231
S'        # do not encapsulate (obfuscate) the original RestrictedError'
p84
sI222
S'    try:'
p85
sI223
S'        if isinstance(code, types.CodeType):'
p86
ssS'call'
p87
S"(code='# -*- coding: utf-8 -*-\\n# this file is released ...\\nresponse._vars=response._caller(search_results)\\n', environment={'A': <class 'gluon.html.A'>, 'ANY_OF': <class 'gluon.validators.ANY_OF'>, 'ASSIGNJS': <function ASSIGNJS>, 'AppConfig': <function AppConfig>, 'Auth': <class 'gluon.tools.Auth'>, 'B': <class 'gluon.html.B'>, 'BEAUTIFY': <class 'gluon.html.BEAUTIFY'>, 'BODY': <class 'gluon.html.BODY'>, 'BR': <class 'gluon.html.BR'>, 'BUTTON': <class 'gluon.html.BUTTON'>, ...}, layer='/home/abhi/Downloads/CourseMaterial/web2Py/web2py/applications/final/controllers/default.py')"
p88
sS'func'
p89
S'restricted'
p90
sa(dp91
g66
S'/home/abhi/Downloads/CourseMaterial/web2Py/web2py/applications/final/controllers/default.py'
p92
sg68
(dp93
sg74
I421
sg75
(dp94
I416
S'    http://..../[app]/default/call/jsonrpc'
p95
sI417
S'    decorate with @services.jsonrpc the functions to expose'
p96
sI418
S'    supports xml, json, xmlrpc, jsonrpc, amfrpc, rss, csv'
p97
sI419
S'    """'
p98
sI420
S'    return service()'
p99
sI411
S''
sI412
S''
sI413
S'def call():'
p100
sI414
S'    """'
p101
sI415
S'    exposes services. for example:'
p102
ssg87
S'()'
p103
sg89
S'<module>'
p104
sa(dp105
g66
S'/home/abhi/Downloads/CourseMaterial/web2Py/web2py/gluon/globals.py'
p106
sg68
(dp107
S'self'
p108
S'undefined'
p109
sS'f'
S'<function search_results>'
p110
ssg74
I412
sg75
(dp111
I416
S"        self.generic_patterns = ['*']"
p112
sI407
S"        self.flash = ''            # used by the default view layout"
p113
sI408
S'        self.meta = Storage()      # used by web2py_ajax.html'
p114
sI409
S'        self.menu = []             # used by the default view layout'
p115
sI410
S'        self.files = []            # used by web2py_ajax.html'
p116
sI411
S'        self._vars = None'
p117
sI412
S'        self._caller = lambda f: f()'
p118
sI413
S'        self._view_environment = None'
p119
sI414
S'        self._custom_commit = None'
p120
sI415
S'        self._custom_rollback = None'
p121
ssg87
S'(f=<function search_results>)'
p122
sg89
S'<lambda>'
p123
sa(dp124
g66
S'/home/abhi/Downloads/CourseMaterial/web2Py/web2py/applications/final/controllers/default.py'
p125
sg68
(dp126
S'query.encode'
p127
S'<built-in method encode of str object>'
p128
sS'youtube'
p129
S'<googleapiclient.discovery.Resource object>'
p130
sS'maxResults'
p131
g109
sS'q'
g109
sS'part'
p132
g109
sS'youtube.search'
p133
S'<bound method Resource.methodResource of <googleapiclient.discovery.Resource object>>'
p134
sS'query'
p135
S"'fir'"
p136
sS'search_response'
p137
g109
sS').list'
p138
g109
ssg74
I86
sg75
(dp139
I81
S'        reload(sys)'
p140
sI82
S'        sys.setdefaultencoding("utf-8")'
p141
sI83
S"        query = request.args(1) or redirect(URL('default','index'))"
p142
sI84
S'        #try:'
p143
sI85
S'        youtube = build(YOUTUBE_API_SERVICE_NAME, YOUTUBE_API_VERSION,developerKey=DEVELOPER_KEY)'
p144
sI86
S'        search_response = youtube.search().list(q=query.encode(\'utf-8\'),part="id,snippet",maxResults=20).execute()'
p145
sI87
S'        #except httplib2.ServerNotFoundError:'
p146
sI88
S'            #print "Could not convert data to an integer."'
p147
sI89
S'        #else:'
p148
sI90
S'            #print "Haha"'
p149
ssg87
S'()'
p150
sg89
S'search_results'
p151
sa(dp152
g66
S'/usr/local/lib/python2.7/dist-packages/oauth2client/util.py'
p153
sg68
(dp154
S'wrapped'
p155
S'<function execute>'
p156
sS'args'
p157
S'(<googleapiclient.http.HttpRequest object>,)'
p158
sS'kwargs'
p159
g21
ssg74
I142
sg75
(dp160
I137
S'                    raise TypeError(message)'
p161
sI138
S'                elif positional_parameters_enforcement == POSITIONAL_WARNING:'
p162
sI139
S'                    logger.warning(message)'
p163
sI140
S'                else:  # IGNORE'
p164
sI141
S'                    pass'
p165
sI142
S'            return wrapped(*args, **kwargs)'
p166
sI143
S'        return positional_wrapper'
p167
sI144
S''
sI145
S'    if isinstance(max_positional_args, six.integer_types):'
p168
sI146
S'        return positional_decorator'
p169
ssg87
S'(*args=(<googleapiclient.http.HttpRequest object>,), **kwargs={})'
p170
sg89
S'positional_wrapper'
p171
sa(dp172
g66
S'/home/abhi/Downloads/CourseMaterial/web2Py/web2py/build/bdist.linux-x86_64/egg/googleapiclient/http.py'
p173
sg68
(dp174
sg74
I722
sg75
(dp175
I717
S'        self._sleep(self._rand() * 2**retry_num)'
p176
sI718
S"        logging.warning('Retry #%d for request: %s %s, following status: %d'"
p177
sI719
S'                        % (retry_num, self.method, self.uri, resp.status))'
p178
sI720
S''
sI721
S'      resp, content = http.request(str(self.uri), method=str(self.method),'
p179
sI722
S'                                   body=self.body, headers=self.headers)'
p180
sI723
S'      if resp.status < 500:'
p181
sI724
S'        break'
p182
sI725
S''
sI726
S'    for callback in self.response_callbacks:'
p183
ssg87
S'(self=<googleapiclient.http.HttpRequest object>, http=<httplib2.Http object>, num_retries=0)'
p184
sg89
S'execute'
p185
sa(dp186
g66
S'/usr/local/lib/python2.7/dist-packages/httplib2/__init__.py'
p187
sg68
(dp188
S'body'
p189
S'None'
p190
sS'cachekey'
p191
S'None'
p192
sS'redirections'
p193
S'5'
sS'self'
p194
S'<httplib2.Http object>'
p195
sS'uri'
p196
S"'https://www.googleapis.com/youtube/v3/search?q=f...SyBY_Z6jpdpSddA1VQEbAM6x0lNxLWyAir0&maxResults=20'"
p197
sS'authority'
p198
S"'www.googleapis.com'"
p199
sS'method'
p200
S"'GET'"
p201
sS'content'
p202
g109
sS'headers'
p203
S"{'accept': 'application/json', 'accept-encoding': 'gzip, deflate', 'content-length': '0', 'user-agent': 'google-api-python-client/1.4.2 (gzip)'}"
p204
sS'self._request'
p205
S'<bound method Http._request of <httplib2.Http object>>'
p206
sS'response'
p207
g109
sS'conn'
p208
S'<httplib2.HTTPSConnectionWithTimeout instance>'
p209
sS'request_uri'
p210
S"'/youtube/v3/search?q=fir&alt=json&part=id%2Csnip...SyBY_Z6jpdpSddA1VQEbAM6x0lNxLWyAir0&maxResults=20'"
p211
ssg74
I1608
sg75
(dp212
I1603
S"                if cc.has_key('only-if-cached'):"
p213
sI1604
S"                    info['status'] = '504'"
p214
sI1605
S'                    response = Response(info)'
p215
sI1606
S'                    content = ""'
p216
sI1607
S'                else:'
p217
sI1608
S'                    (response, content) = self._request(conn, authority, uri, request_uri, method, body, headers, redirections, cachekey)'
p218
sI1609
S'        except Exception, e:'
p219
sI1610
S'            if self.force_exception_to_status_code:'
p220
sI1611
S'                if isinstance(e, HttpLib2ErrorWithResponse):'
p221
sI1612
S'                    response = e.response'
p222
ssg87
S"(self=<httplib2.Http object>, uri='https://www.googleapis.com/youtube/v3/search?q=f...SyBY_Z6jpdpSddA1VQEbAM6x0lNxLWyAir0&maxResults=20', method='GET', body=None, headers={'accept': 'application/json', 'accept-encoding': 'gzip, deflate', 'content-length': '0', 'user-agent': 'google-api-python-client/1.4.2 (gzip)'}, redirections=5, connection_type=<class httplib2.HTTPSConnectionWithTimeout>)"
p223
sg89
g60
sa(dp224
g66
S'/usr/local/lib/python2.7/dist-packages/httplib2/__init__.py'
p225
sg68
(dp226
S'body'
p227
S'None'
p228
sS'self'
p229
S'<httplib2.Http object>'
p230
sS'method'
p231
S"'GET'"
p232
sS'content'
p233
g109
sS'headers'
p234
S"{'accept': 'application/json', 'accept-encoding': 'gzip, deflate', 'content-length': '0', 'user-agent': 'google-api-python-client/1.4.2 (gzip)'}"
p235
sS'self._conn_request'
p236
S'<bound method Http._conn_request of <httplib2.Http object>>'
p237
sS'response'
p238
g109
sS'conn'
p239
S'<httplib2.HTTPSConnectionWithTimeout instance>'
p240
sS'request_uri'
p241
S"'/youtube/v3/search?q=fir&alt=json&part=id%2Csnip...SyBY_Z6jpdpSddA1VQEbAM6x0lNxLWyAir0&maxResults=20'"
p242
ssg74
I1350
sg75
(dp243
I1345
S'        auths = [(auth.depth(request_uri), auth) for auth in self.authorizations if auth.inscope(host, request_uri)]'
p244
sI1346
S'        auth = auths and sorted(auths)[0][1] or None'
p245
sI1347
S'        if auth:'
p246
sI1348
S'            auth.request(method, request_uri, headers, body)'
p247
sI1349
S''
sI1350
S'        (response, content) = self._conn_request(conn, request_uri, method, body, headers)'
p248
sI1351
S''
sI1352
S'        if auth:'
p249
sI1353
S'            if auth.response(response, body):'
p250
sI1354
S'                auth.request(method, request_uri, headers, body)'
p251
ssg87
S"(self=<httplib2.Http object>, conn=<httplib2.HTTPSConnectionWithTimeout instance>, host='www.googleapis.com', absolute_uri='https://www.googleapis.com/youtube/v3/search?q=f...SyBY_Z6jpdpSddA1VQEbAM6x0lNxLWyAir0&maxResults=20', request_uri='/youtube/v3/search?q=fir&alt=json&part=id%2Csnip...SyBY_Z6jpdpSddA1VQEbAM6x0lNxLWyAir0&maxResults=20', method='GET', body=None, headers={'accept': 'application/json', 'accept-encoding': 'gzip, deflate', 'content-length': '0', 'user-agent': 'google-api-python-client/1.4.2 (gzip)'}, redirections=5, cachekey=None)"
p252
sg89
S'_request'
p253
sa(dp254
g66
S'/usr/local/lib/python2.7/dist-packages/httplib2/__init__.py'
p255
sg68
(dp256
S'global ServerNotFoundError'
p257
S"<class 'httplib2.ServerNotFoundError'>"
p258
sS'conn'
p259
S'<httplib2.HTTPSConnectionWithTimeout instance>'
p260
sS'conn.host'
p261
S"'www.googleapis.com'"
p262
ssg74
I1278
sg75
(dp263
I1280
S'                conn.close()'
p264
sI1281
S'                raise'
p265
sI1282
S'            except socket.error, e:'
p266
sI1273
S'                conn.request(method, request_uri, body, headers)'
p267
sI1274
S'            except socket.timeout:'
p268
sI1275
S'                raise'
p269
sI1276
S'            except socket.gaierror:'
p270
sI1277
S'                conn.close()'
p271
sI1278
S'                raise ServerNotFoundError("Unable to find the server at %s" % conn.host)'
p272
sI1279
S'            except ssl_SSLError:'
p273
ssg87
S"(self=<httplib2.Http object>, conn=<httplib2.HTTPSConnectionWithTimeout instance>, request_uri='/youtube/v3/search?q=fir&alt=json&part=id%2Csnip...SyBY_Z6jpdpSddA1VQEbAM6x0lNxLWyAir0&maxResults=20', method='GET', body=None, headers={'accept': 'application/json', 'accept-encoding': 'gzip, deflate', 'content-length': '0', 'user-agent': 'google-api-python-client/1.4.2 (gzip)'})"
p274
sg89
S'_conn_request'
p275
sasS'pyver'
p276
S'Python 2.7.6: /usr/bin/python (prefix: /usr)'
p277
sS'session'
p278
g61
(S's7\x01\x00\x00<div><table><tr><td style="font-weight:bold;vertical-align:top;">last_orderby</td><td style="vertical-align:top;">:</td><td><div>None</div></td></tr><tr><td style="font-weight:bold;vertical-align:top;">last_query</td><td style="vertical-align:top;">:</td><td><div>db.videos.id&gt;0</div></td></tr></table></div>'
tRp279
sS'etype'
p280
S"<class 'httplib2.ServerNotFoundError'>"
p281
sS'date'
p282
S'Fri Nov 20 02:17:43 2015'
p283
sS'response'
p284
g61
(S's\xb2?\x00\x00<div><table><tr><td style="font-weight:bold;vertical-align:top;">body</td><td style="vertical-align:top;">:</td><td><div>&lt;cStringIO.StringO object at 0x7f83c347fc00&gt;</div></td></tr><tr><td style="font-weight:bold;vertical-align:top;">cookies</td><td style="vertical-align:top;">:</td><td><div><table><tr><td style="font-weight:bold;vertical-align:top;">session_id_final</td><td style="vertical-align:top;">:</td><td><div>127.0.0.1-a4b8581c-805d-4905-89d5-57608d71a28c<table><tr><td style="font-weight:bold;vertical-align:top;">comment</td><td style="vertical-align:top;">:</td><td><div></div></td></tr><tr><td style="font-weight:bold;vertical-align:top;">domain</td><td style="vertical-align:top;">:</td><td><div></div></td></tr><tr><td style="font-weight:bold;vertical-align:top;">expires</td><td style="vertical-align:top;">:</td><td><div></div></td></tr><tr><td style="font-weight:bold;vertical-align:top;">httponly</td><td style="vertical-align:top;">:</td><td><div></div></td></tr><tr><td style="font-weight:bold;vertical-align:top;">max-age</td><td style="vertical-align:top;">:</td><td><div></div></td></tr><tr><td style="font-weight:bold;vertical-align:top;">path</td><td style="vertical-align:top;">:</td><td><div>/</div></td></tr><tr><td style="font-weight:bold;vertical-align:top;">secure</td><td style="vertical-align:top;">:</td><td><div></div></td></tr><tr><td style="font-weight:bold;vertical-align:top;">version</td><td style="vertical-align:top;">:</td><td><div></div></td></tr></table></div></td></tr></table></div></td></tr><tr><td style="font-weight:bold;vertical-align:top;">delimiters</td><td style="vertical-align:top;">:</td><td><div><table><tr><td><div>{{</div></td></tr><tr><td><div>}}</div></td></tr></table></div></td></tr><tr><td style="font-weight:bold;vertical-align:top;">files</td><td style="vertical-align:top;">:</td><td><div><table></table></div></td></tr><tr><td style="font-weight:bold;vertical-align:top;">flash</td><td style="vertical-align:top;">:</td><td><div></div></td></tr><tr><td style="font-weight:bold;vertical-align:top;">form_label_separator</td><td style="vertical-align:top;">:</td><td><div></div></td></tr><tr><td style="font-weight:bold;vertical-align:top;">formstyle</td><td style="vertical-align:top;">:</td><td><div>bootstrap3_inline</div></td></tr><tr><td style="font-weight:bold;vertical-align:top;">generic_patterns</td><td style="vertical-align:top;">:</td><td><div><table><tr><td><div>*</div></td></tr></table></div></td></tr><tr><td style="font-weight:bold;vertical-align:top;">google_analytics_id</td><td style="vertical-align:top;">:</td><td><div>None</div></td></tr><tr><td style="font-weight:bold;vertical-align:top;">headers</td><td style="vertical-align:top;">:</td><td><div><table><tr><td style="font-weight:bold;vertical-align:top;">X-Powered-By</td><td style="vertical-align:top;">:</td><td><div>web2py</div></td></tr></table></div></td></tr><tr><td style="font-weight:bold;vertical-align:top;">logo</td><td style="vertical-align:top;">:</td><td><div><a class="navbar-brand" href="http://www.web2py.com/" id="web2py-logo"><b>web<span>2</span>py</b>&trade;&nbsp;</a></div></td></tr><tr><td style="font-weight:bold;vertical-align:top;">menu</td><td style="vertical-align:top;">:</td><td><div><table><tr><td><div><table><tr><td><div>Home</div></td></tr><tr><td><div>False</div></td></tr><tr><td><div>/final/default/index</div></td></tr><tr><td><div><table></table></div></td></tr></table></div></td></tr><tr><td><div><table><tr><td><div>My Sites</div></td></tr><tr><td><div>False</div></td></tr><tr><td><div>/admin/default/site</div></td></tr></table></div></td></tr><tr><td><div><table><tr><td><div>This App</div></td></tr><tr><td><div>False</div></td></tr><tr><td><div>#</div></td></tr><tr><td><div><table><tr><td><div><table><tr><td><div>Design</div></td></tr><tr><td><div>False</div></td></tr><tr><td><div>/admin/default/design/final</div></td></tr></table></div></td></tr><tr><td><div><li class="divider"></li></div></td></tr><tr><td><div><table><tr><td><div>Controller</div></td></tr><tr><td><div>False</div></td></tr><tr><td><div>/admin/default/edit/final/controllers/default.py</div></td></tr></table></div></td></tr><tr><td><div><table><tr><td><div>View</div></td></tr><tr><td><div>False</div></td></tr><tr><td><div>/admin/default/edit/final/views/default/search_results.html</div></td></tr></table></div></td></tr><tr><td><div><table><tr><td><div>DB Model</div></td></tr><tr><td><div>False</div></td></tr><tr><td><div>/admin/default/edit/final/models/db.py</div></td></tr></table></div></td></tr><tr><td><div><table><tr><td><div>Menu Model</div></td></tr><tr><td><div>False</div></td></tr><tr><td><div>/admin/default/edit/final/models/menu.py</div></td></tr></table></div></td></tr><tr><td><div><table><tr><td><div>Config.ini</div></td></tr><tr><td><div>False</div></td></tr><tr><td><div>/admin/default/edit/final/private/appconfig.ini</div></td></tr></table></div></td></tr><tr><td><div><table><tr><td><div>Layout</div></td></tr><tr><td><div>False</div></td></tr><tr><td><div>/admin/default/edit/final/views/layout.html</div></td></tr></table></div></td></tr><tr><td><div><table><tr><td><div>Stylesheet</div></td></tr><tr><td><div>False</div></td></tr><tr><td><div>/admin/default/edit/final/static/css/web2py-bootstrap3.css</div></td></tr></table></div></td></tr><tr><td><div><table><tr><td><div>Database</div></td></tr><tr><td><div>False</div></td></tr><tr><td><div>/final/appadmin/index</div></td></tr></table></div></td></tr><tr><td><div><table><tr><td><div>Errors</div></td></tr><tr><td><div>False</div></td></tr><tr><td><div>/admin/default/errors/final</div></td></tr></table></div></td></tr><tr><td><div><table><tr><td><div>About</div></td></tr><tr><td><div>False</div></td></tr><tr><td><div>/admin/default/about/final</div></td></tr></table></div></td></tr></table></div></td></tr></table></div></td></tr><tr><td><div><table><tr><td><div>web2py.com</div></td></tr><tr><td><div>False</div></td></tr><tr><td><div>#</div></td></tr><tr><td><div><table><tr><td><div><table><tr><td><div>Download</div></td></tr><tr><td><div>False</div></td></tr><tr><td><div>http://www.web2py.com/examples/default/download</div></td></tr></table></div></td></tr><tr><td><div><table><tr><td><div>Support</div></td></tr><tr><td><div>False</div></td></tr><tr><td><div>http://www.web2py.com/examples/default/support</div></td></tr></table></div></td></tr><tr><td><div><table><tr><td><div>Demo</div></td></tr><tr><td><div>False</div></td></tr><tr><td><div>http://web2py.com/demo_admin</div></td></tr></table></div></td></tr><tr><td><div><table><tr><td><div>Quick Examples</div></td></tr><tr><td><div>False</div></td></tr><tr><td><div>http://web2py.com/examples/default/examples</div></td></tr></table></div></td></tr><tr><td><div><table><tr><td><div>FAQ</div></td></tr><tr><td><div>False</div></td></tr><tr><td><div>http://web2py.com/AlterEgo</div></td></tr></table></div></td></tr><tr><td><div><table><tr><td><div>Videos</div></td></tr><tr><td><div>False</div></td></tr><tr><td><div>http://www.web2py.com/examples/default/videos/</div></td></tr></table></div></td></tr><tr><td><div><table><tr><td><div>Free Applications</div></td></tr><tr><td><div>False</div></td></tr><tr><td><div>http://web2py.com/appliances</div></td></tr></table></div></td></tr><tr><td><div><table><tr><td><div>Plugins</div></td></tr><tr><td><div>False</div></td></tr><tr><td><div>http://web2py.com/plugins</div></td></tr></table></div></td></tr><tr><td><div><table><tr><td><div>Recipes</div></td></tr><tr><td><div>False</div></td></tr><tr><td><div>http://web2pyslices.com/</div></td></tr></table></div></td></tr></table></div></td></tr></table></div></td></tr><tr><td><div><table><tr><td><div>Documentation</div></td></tr><tr><td><div>False</div></td></tr><tr><td><div>#</div></td></tr><tr><td><div><table><tr><td><div><table><tr><td><div>Online book</div></td></tr><tr><td><div>False</div></td></tr><tr><td><div>http://www.web2py.com/book</div></td></tr></table></div></td></tr><tr><td><div><li class="divider"></li></div></td></tr><tr><td><div><table><tr><td><div>Preface</div></td></tr><tr><td><div>False</div></td></tr><tr><td><div>http://www.web2py.com/book/default/chapter/00</div></td></tr></table></div></td></tr><tr><td><div><table><tr><td><div>Introduction</div></td></tr><tr><td><div>False</div></td></tr><tr><td><div>http://www.web2py.com/book/default/chapter/01</div></td></tr></table></div></td></tr><tr><td><div><table><tr><td><div>Python</div></td></tr><tr><td><div>False</div></td></tr><tr><td><div>http://www.web2py.com/book/default/chapter/02</div></td></tr></table></div></td></tr><tr><td><div><table><tr><td><div>Overview</div></td></tr><tr><td><div>False</div></td></tr><tr><td><div>http://www.web2py.com/book/default/chapter/03</div></td></tr></table></div></td></tr><tr><td><div><table><tr><td><div>The Core</div></td></tr><tr><td><div>False</div></td></tr><tr><td><div>http://www.web2py.com/book/default/chapter/04</div></td></tr></table></div></td></tr><tr><td><div><table><tr><td><div>The Views</div></td></tr><tr><td><div>False</div></td></tr><tr><td><div>http://www.web2py.com/book/default/chapter/05</div></td></tr></table></div></td></tr><tr><td><div><table><tr><td><div>Database</div></td></tr><tr><td><div>False</div></td></tr><tr><td><div>http://www.web2py.com/book/default/chapter/06</div></td></tr></table></div></td></tr><tr><td><div><table><tr><td><div>Forms and Validators</div></td></tr><tr><td><div>False</div></td></tr><tr><td><div>http://www.web2py.com/book/default/chapter/07</div></td></tr></table></div></td></tr><tr><td><div><table><tr><td><div>Email and SMS</div></td></tr><tr><td><div>False</div></td></tr><tr><td><div>http://www.web2py.com/book/default/chapter/08</div></td></tr></table></div></td></tr><tr><td><div><table><tr><td><div>Access Control</div></td></tr><tr><td><div>False</div></td></tr><tr><td><div>http://www.web2py.com/book/default/chapter/09</div></td></tr></table></div></td></tr><tr><td><div><table><tr><td><div>Services</div></td></tr><tr><td><div>False</div></td></tr><tr><td><div>http://www.web2py.com/book/default/chapter/10</div></td></tr></table></div></td></tr><tr><td><div><table><tr><td><div>Ajax Recipes</div></td></tr><tr><td><div>False</div></td></tr><tr><td><div>http://www.web2py.com/book/default/chapter/11</div></td></tr></table></div></td></tr><tr><td><div><table><tr><td><div>Components and Plugins</div></td></tr><tr><td><div>False</div></td></tr><tr><td><div>http://www.web2py.com/book/default/chapter/12</div></td></tr></table></div></td></tr><tr><td><div><table><tr><td><div>Deployment Recipes</div></td></tr><tr><td><div>False</div></td></tr><tr><td><div>http://www.web2py.com/book/default/chapter/13</div></td></tr></table></div></td></tr><tr><td><div><table><tr><td><div>Other Recipes</div></td></tr><tr><td><div>False</div></td></tr><tr><td><div>http://www.web2py.com/book/default/chapter/14</div></td></tr></table></div></td></tr><tr><td><div><table><tr><td><div>Helping web2py</div></td></tr><tr><td><div>False</div></td></tr><tr><td><div>http://www.web2py.com/book/default/chapter/15</div></td></tr></table></div></td></tr><tr><td><div><table><tr><td><div>Buy web2py\'s book</div></td></tr><tr><td><div>False</div></td></tr><tr><td><div>http://stores.lulu.com/web2py</div></td></tr></table></div></td></tr></table></div></td></tr></table></div></td></tr><tr><td><div><table><tr><td><div>Community</div></td></tr><tr><td><div>False</div></td></tr><tr><td><div>None</div></td></tr><tr><td><div><table><tr><td><div><table><tr><td><div>Groups</div></td></tr><tr><td><div>False</div></td></tr><tr><td><div>http://www.web2py.com/examples/default/usergroups</div></td></tr></table></div></td></tr><tr><td><div><table><tr><td><div>Twitter</div></td></tr><tr><td><div>False</div></td></tr><tr><td><div>http://twitter.com/web2py</div></td></tr></table></div></td></tr><tr><td><div><table><tr><td><div>Live Chat</div></td></tr><tr><td><div>False</div></td></tr><tr><td><div>http://webchat.freenode.net/?channels=web2py</div></td></tr></table></div></td></tr></table></div></td></tr></table></div></td></tr></table></div></td></tr><tr><td style="font-weight:bold;vertical-align:top;">meta</td><td style="vertical-align:top;">:</td><td><div><table><tr><td style="font-weight:bold;vertical-align:top;">author</td><td style="vertical-align:top;">:</td><td><div>Your Name &lt;you@example.com&gt;</div></td></tr><tr><td style="font-weight:bold;vertical-align:top;">description</td><td style="vertical-align:top;">:</td><td><div>a cool new app</div></td></tr><tr><td style="font-weight:bold;vertical-align:top;">generator</td><td style="vertical-align:top;">:</td><td><div>Web2py Web Framework</div></td></tr><tr><td style="font-weight:bold;vertical-align:top;">keywords</td><td style="vertical-align:top;">:</td><td><div>web2py, python, framework</div></td></tr></table></div></td></tr><tr><td style="font-weight:bold;vertical-align:top;">models_to_run</td><td style="vertical-align:top;">:</td><td><div><table><tr><td><div>^\\w+\\.py$</div></td></tr><tr><td><div>^default/\\w+\\.py$</div></td></tr><tr><td><div>^default/search_results/\\w+\\.py$</div></td></tr></table></div></td></tr><tr><td style="font-weight:bold;vertical-align:top;">postprocessing</td><td style="vertical-align:top;">:</td><td><div><table></table></div></td></tr><tr><td style="font-weight:bold;vertical-align:top;">session_client</td><td style="vertical-align:top;">:</td><td><div>127.0.0.1</div></td></tr><tr><td style="font-weight:bold;vertical-align:top;">session_cookie_compression_level</td><td style="vertical-align:top;">:</td><td><div>None</div></td></tr><tr><td style="font-weight:bold;vertical-align:top;">session_cookie_expires</td><td style="vertical-align:top;">:</td><td><div>None</div></td></tr><tr><td style="font-weight:bold;vertical-align:top;">session_cookie_key</td><td style="vertical-align:top;">:</td><td><div>None</div></td></tr><tr><td style="font-weight:bold;vertical-align:top;">session_data_name</td><td style="vertical-align:top;">:</td><td><div>session_data_final</div></td></tr><tr><td style="font-weight:bold;vertical-align:top;">session_file</td><td style="vertical-align:top;">:</td><td><div>&lt;open file &#x27;/home/abhi/Downloads/CourseMaterial/web2Py/web2py/applications/final/sessions/1e0/190/127.0.0.1-a4b8581c-805d-4905-89d5-57608d71a28c&#x27;, mode &#x27;rb+&#x27; at 0x7f83c2390780&gt;</div></td></tr><tr><td style="font-weight:bold;vertical-align:top;">session_filename</td><td style="vertical-align:top;">:</td><td><div>/home/abhi/Downloads/CourseMaterial/web2Py/web2py/applications/final/sessions/127.0.0.1-a4b8581c-805d-4905-89d5-57608d71a28c</div></td></tr><tr><td style="font-weight:bold;vertical-align:top;">session_hash</td><td style="vertical-align:top;">:</td><td><div>424adfdb8f1654e89d86c776f359ec0a</div></td></tr><tr><td style="font-weight:bold;vertical-align:top;">session_id</td><td style="vertical-align:top;">:</td><td><div>127.0.0.1-a4b8581c-805d-4905-89d5-57608d71a28c</div></td></tr><tr><td style="font-weight:bold;vertical-align:top;">session_id_name</td><td style="vertical-align:top;">:</td><td><div>session_id_final</div></td></tr><tr><td style="font-weight:bold;vertical-align:top;">session_locked</td><td style="vertical-align:top;">:</td><td><div>True</div></td></tr><tr><td style="font-weight:bold;vertical-align:top;">session_masterapp</td><td style="vertical-align:top;">:</td><td><div>final</div></td></tr><tr><td style="font-weight:bold;vertical-align:top;">session_new</td><td style="vertical-align:top;">:</td><td><div>False</div></td></tr><tr><td style="font-weight:bold;vertical-align:top;">session_storage_type</td><td style="vertical-align:top;">:</td><td><div>file</div></td></tr><tr><td style="font-weight:bold;vertical-align:top;">status</td><td style="vertical-align:top;">:</td><td><div>200</div></td></tr><tr><td style="font-weight:bold;vertical-align:top;">subtitle</td><td style="vertical-align:top;">:</td><td><div></div></td></tr><tr><td style="font-weight:bold;vertical-align:top;">title</td><td style="vertical-align:top;">:</td><td><div>Final</div></td></tr><tr><td style="font-weight:bold;vertical-align:top;">view</td><td style="vertical-align:top;">:</td><td><div>default/search_results.html</div></td></tr></table></div>'
tRp285
sS'locals'
p286
(dp287
S'body'
p288
S'None'
p289
sS'i'
S'1'
sS'self'
p290
S'<httplib2.Http object>'
p291
sS'headers'
p292
S"{'accept': 'application/json', 'accept-encoding': 'gzip, deflate', 'content-length': '0', 'user-agent': 'google-api-python-client/1.4.2 (gzip)'}"
p293
sS'request_uri'
p294
S"'/youtube/v3/search?q=fir&alt=json&part=id%2Csnip...SyBY_Z6jpdpSddA1VQEbAM6x0lNxLWyAir0&maxResults=20'"
p295
sS'method'
p296
S"'GET'"
p297
sS'conn'
p298
S'<httplib2.HTTPSConnectionWithTimeout instance>'
p299
sS'seen_bad_status_line'
p300
S'False'
p301
sssS'traceback'
p302
S'Traceback (most recent call last):\n  File "/home/abhi/Downloads/CourseMaterial/web2Py/web2py/gluon/restricted.py", line 227, in restricted\n    exec ccode in environment\n  File "/home/abhi/Downloads/CourseMaterial/web2Py/web2py/applications/final/controllers/default.py", line 421, in <module>\n  File "/home/abhi/Downloads/CourseMaterial/web2Py/web2py/gluon/globals.py", line 412, in <lambda>\n    self._caller = lambda f: f()\n  File "/home/abhi/Downloads/CourseMaterial/web2Py/web2py/applications/final/controllers/default.py", line 86, in search_results\n    search_response = youtube.search().list(q=query.encode(\'utf-8\'),part="id,snippet",maxResults=20).execute()\n  File "/usr/local/lib/python2.7/dist-packages/oauth2client/util.py", line 142, in positional_wrapper\n    return wrapped(*args, **kwargs)\n  File "build/bdist.linux-x86_64/egg/googleapiclient/http.py", line 722, in execute\n    body=self.body, headers=self.headers)\n  File "/usr/local/lib/python2.7/dist-packages/httplib2/__init__.py", line 1608, in request\n    (response, content) = self._request(conn, authority, uri, request_uri, method, body, headers, redirections, cachekey)\n  File "/usr/local/lib/python2.7/dist-packages/httplib2/__init__.py", line 1350, in _request\n    (response, content) = self._conn_request(conn, request_uri, method, body, headers)\n  File "/usr/local/lib/python2.7/dist-packages/httplib2/__init__.py", line 1278, in _conn_request\n    raise ServerNotFoundError("Unable to find the server at %s" % conn.host)\nServerNotFoundError: Unable to find the server at www.googleapis.com\n'
p303
s.