(dp1
S'output'
p2
S"<type 'exceptions.SyntaxError'> Set: no tables selected"
p3
sS'layer'
p4
S'/home/abhi/Downloads/CourseMaterial/web2Py/web2py/applications/final/controllers/default.py'
p5
sS'code'
p6
S'# -*- coding: utf-8 -*-\n# this file is released under public domain and you can use without limitations\n\n#########################################################################\n## This is a sample controller\n## - index is the default action of any application\n## - user is required for authentication and authorization\n## - download is for downloading files uploaded in the db (does streaming)\n#########################################################################\nimport soundcloud\nfrom apiclient.discovery import build\nfrom apiclient.errors import HttpError\nfrom oauth2client.tools import argparser\nimport httplib2\n\n\n# Set DEVELOPER_KEY to the API key value from the APIs & auth > Registered apps\n# tab of\n#   https://cloud.google.com/console\n# Please ensure that you have enabled the YouTube Data API for your project.\nDEVELOPER_KEY = "AIzaSyBY_Z6jpdpSddA1VQEbAM6x0lNxLWyAir0"\nYOUTUBE_API_SERVICE_NAME = "youtube"\nYOUTUBE_API_VERSION = "v3"\n\nclient = soundcloud.Client(client_id=\'f4e257503f0990527a6e17e14158076e\')\n\n\n\n\n\n\n\n\n\n\n\n\n\ndef index():\n    form = SQLFORM.factory(Field(\'query\',\'string\'), Field(\'option\') ,formstyle=\'divs\', submit_button="Search")\n    response.flash = T("Hello World")\n    if form.process().accepted:\n        #k=redirect(URL(\'default\',\'results\', args=[1, formone.vars.search_query_1]))\n        print form.vars.query\n        redirect(URL(\'default\',\'search_results\', args=[form.vars.option, form.vars.query]))\n    elif form.errors:\n        print "failed"\n    else:\n        print "unknown"\n    #return dict(form=form)\n    return locals()\n\n\ndef test():\n    \n    form = SQLFORM.factory(Field(\'query\',\'string\'), Field(\'option\') ,formstyle=\'divs\', submit_button="Search")\n    response.flash = T("Hello World")\n    if form.process().accepted:\n        #k=redirect(URL(\'default\',\'results\', args=[1, formone.vars.search_query_1]))\n        print form.vars.query\n        redirect(URL(\'default\',\'search_results\', args=[form.vars.option, form.vars.query]))\n    elif form.errors:\n        print "failed"\n    else:\n        print "unknown"\n    return locals()\n\ndef no_net():\n    return locals()\n    \ndef search_results():\n    form = SQLFORM.factory(Field(\'query\',\'string\'), Field(\'option\'),formstyle=\'divs\', submit_button="Search")\n    if form.process().accepted:\n        #k=redirect(URL(\'default\',\'results\', args=[1, formone.vars.search_query_1]))\n        print form.vars.query\n        redirect(URL(\'default\',\'search_results\', args=[form.vars.option, form.vars.query]))\n    elif form.errors:\n        print "failed"\n    else:\n        print "unknown"\n    search = request.args(0) or redirect(URL(\'default\',\'index\'))\n    if search == \'V\':\n        import sys\n        reload(sys)\n        sys.setdefaultencoding("utf-8")\n        query = request.args(1) or redirect(URL(\'default\',\'index\'))\n        try:\n            youtube = build(YOUTUBE_API_SERVICE_NAME, YOUTUBE_API_VERSION,developerKey=DEVELOPER_KEY)\n        #try:\n            search_response = youtube.search().list(q=query.encode(\'utf-8\'),part="id,snippet",maxResults=20).execute()\n        except:# httplib2.ServerNotFoundError:\n            #print ""\n            redirect(URL(\'default\',\'no_net\'))\n        #else:\n            #redirect(URL(\'default\',\'no_net\'))\n        l=[]\n        videos = []\n        channels = []\n        playlists = []\n        for search_result in search_response.get("items", []):\n            if search_result["id"]["kind"] == "youtube#video":\n                l.append(search_result["snippet"]["title"])\n                l.append(search_result["id"]["videoId"])\n                videos.append(l)\n                l=[]\n            elif search_result["id"]["kind"] == "youtube#channel":\n                channels.append("%s (%s)" % (search_result["snippet"]["title"],\n                                   search_result["id"]["channelId"]))\n            elif search_result["id"]["kind"] == "youtube#playlist":\n                playlists.append("%s (%s)" % (search_result["snippet"]["title"],\n                                    search_result["id"]["playlistId"]))\n        return dict(videos=videos[0:20],search=search,form=form,query=query)\n    elif search == \'A\':\n        query = request.args(1) or redirect(URL(\'default\',\'index\'))\n        try:\n            tracks = client.get(\'/tracks\', q=query, limit=20)\n        except:# httplib2.ServerNotFoundError:\n            #print "check"\n            redirect(URL(\'default\',\'no_net\'))\n        #else:\n            #print "channel"\n            #redirect(URL(\'default\',\'no_net\'))\n        """emb = []\n        for track in tracks:\n            print track.stream_url\n            url = client.get(track.stream_url, allow_redirects=False)\n            emb.append(url.location)\n            print url.location\n            #print type(track.title)"""\n        for t in tracks:\n            url=t.permalink_url\n            #print url\n            embed_info = client.get(\'/oembed\', url=url)\n            #print embed_info.html\n            #for x in t:\n            #    print x,t[x]\n            #print "\\n\\n"\n        return dict(tracks=tracks,search=search,form=form,query=query)\n\n\n"""def display_manual_form():\n    #form = SQLFORM(db.person)\n    form = SQLFORM.factory(Field(\'s1\',\'string\'), formstyle=\'divs\', submit_button="Search")\n    if form.process(session=None, formname=\'test\').accepted:\n        print query\n    elif form.errors:\n        response.flash = \'form has errors\'\n    else:\n        response.flash = \'please fill the form\'\n    # Note: no form instance is passed to the view\n    return dict()"""\n\ndef spons_playlist():\n    form = SQLFORM.factory(Field(\'query\',\'string\'), Field(\'option\') ,formstyle=\'divs\', submit_button="Search")\n    if form.process().accepted:\n        #k=redirect(URL(\'default\',\'results\', args=[1, formone.vars.search_query_1]))\n        print form.vars.query\n        redirect(URL(\'default\',\'search_results\', args=[form.vars.option, form.vars.query]))\n    elif form.errors:\n        print "failed"\n    else:\n        print "unknown"\n    #search = request.args(0, cast=int) or redirect(URL(\'default\',\'index\'))\n    return dict(form=form)\n\n"""def form_component():\n    form = SQLFORM.factory(Field(\'query\',\'string\'), formstyle=\'divs\', submit_button="Search")\n    if form.process().accepted:\n        #k=redirect(URL(\'default\',\'results\', args=[1, formone.vars.search_query_1]))\n        print form.vars.query\n        redirect(URL(\'default\',\'search_results\', args=[1, form.vars.query]))\n    elif form.errors:\n        print "failed"\n    else:\n        print "unknown"\n    songs = db(db.songs.genre==)\n    #search = request.args(0, cast=int) or redirect(URL(\'default\',\'index\'))\n    return locals()"""\n\n\n#@auth.requires_login()\ndef vote():\n    id=request.args(0,cast=int)\n    #print id\n    flag=True\n    if auth.user:\n        song=db.songs(id)\n        likes=db.songs_like(db.songs_like.songs1==id)\n        #print song\n        #print likes\n        if song:\n            if likes:\n                q=db((db.songs_like.user_id==auth.user.id)&(db.songs_like.songs1==id)).select()\n                print q[0].total\n                if q[0].total==0:\n                    print "Increased Like"\n                    song.update_record(Likes=song.Likes+1)\n                    likes.update_record(total=1)\n                    flag=False\n                else:\n                    print "Deleted Like"\n                    if song.Likes!=0:\n                        song.update_record(Likes=song.Likes-1)\n                    else:\n                        song.update_record(Likes=0)\n                    likes.update_record(total=0)\n                    flag=True\n                    #db((db.songs_like.songs1==song.id)&(db.songs_like.user_id==auth.user.id)).delete()\n            else:\n                #print auth.user.id , song.id\n                db.songs_like.insert(total=1,songs1=song.id,user_id=auth.user.id)\n        else:\n            return str("Song on which you tried to vote doesnt exist")\n        song=db.songs(id)\n        return str(song.Likes)\n    else:\n        return str("Please Log IN")\n\n\n\n@auth.requires_login()\ndef mark_favourite():\n    id=request.args(0,cast=int)\n    print id\n    x=db((db.favourite.songid==id)&(db.favourite.user_id==auth.user.id)).select()\n    print "x is = "\n    print x\n    if not x:\n        db.favourite.insert(songid=id,user_id=auth.user.id)\n        redirect(URL(\'default\',\'see\', args=[1,id]))\n    else :\n        redirect(URL(\'default\',\'index\'))\n\n@auth.requires_login()\ndef favsong():\n    form = SQLFORM.factory(Field(\'query\',\'string\'),Field(\'option\') ,formstyle=\'divs\', submit_button="Search")\n    if form.process().accepted:\n        #k=redirect(URL(\'default\',\'results\', args=[1, formone.vars.search_query_1]))\n        print form.vars.query\n        print form.vars.option\n        redirect(URL(\'default\',\'search_results\', args=[form.vars.option, form.vars.query]))\n    elif form.errors:\n        print "failed"\n    else:\n        print "unknown"\n    result=db(db.favourite.user_id==auth.user.id).select()\n    l=[]\n    for r in result:\n        k=db(db.songs.id==r.songid).select()\n        if k[0].category == \'Audio\':\n            l.append(k[0])\n    return dict(song=l,form=form)\n\n@auth.requires_login()\ndef favideo():\n    form = SQLFORM.factory(Field(\'query\',\'string\'), Field(\'option\') ,formstyle=\'divs\', submit_button="Search")\n    if form.process().accepted:\n        #k=redirect(URL(\'default\',\'results\', args=[1, formone.vars.search_query_1]))\n        print form.vars.query\n        redirect(URL(\'default\',\'search_results\', args=[form.vars.option, form.vars.query]))\n    elif form.errors:\n        print "failed"\n    else:\n        print "unknown"\n    result=db(db.favourite.user_id==auth.user.id).select()\n    l=[]\n    for r in result:\n        k=db(db.songs.id==r.songid).select()\n        if k[0].category == \'Video\':\n            l.append(k[0])\n    return dict(song=l,form=form)\n\ndef widgets():\n    form = SQLFORM.factory(Field(\'query\',\'string\'),Field(\'option\') , formstyle=\'divs\', submit_button="Search")\n    if form.process().accepted:\n        #k=redirect(URL(\'default\',\'results\', args=[1, formone.vars.search_query_1]))\n        print form.vars.query\n        redirect(URL(\'default\',\'search_results\', args=[form.vars.option, form.vars.query]))\n    elif form.errors:\n        print "failed"\n    else:\n        print "unknown"\n\n    song=db().select(db.songs.title,db.songs.id,db.songs.category)\n    return locals()\n\n\ndef radio():\n\n    form = SQLFORM.factory(Field(\'query\',\'string\'), Field(\'option\') ,formstyle=\'divs\', submit_button="Search")\n    response.flash = T("Hello World")\n    if form.process().accepted:\n        #k=redirect(URL(\'default\',\'results\', args=[1, formone.vars.search_query_1]))\n        print form.vars.query\n        redirect(URL(\'default\',\'search_results\', args=[form.vars.option, form.vars.query]))\n    elif form.errors:\n        print "failed"\n    else:\n        print "unknown"\n    import json\n    import urllib2\n    url = "http://api.dirble.com/v2/stations?per_page=30&token=f1a8a36dd125c2e665dafec481"\n    data = json.load(urllib2.urlopen(url))\n    #return dict(form=form)\n    return locals()\ndef fav():\n    form = SQLFORM.factory(Field(\'query\',\'string\'), Field(\'option\') ,formstyle=\'divs\', submit_button="Search")\n    if form.process().accepted:\n        #k=redirect(URL(\'default\',\'results\', args=[1, formone.vars.search_query_1]))\n        print form.vars.query\n        redirect(URL(\'default\',\'search_results\', args=[form.vars.option, form.vars.query]))\n    elif form.errors:\n        print "failed"\n    else:\n        print "unknown"\n    result=db().select(id,groupby=db.fav.songs1)\n    print result\n    """l=[]\n    for r in result:\n        k=db(db.songs.id==r.songid).select()"""\n    return dict(result=result)\n\ndef see():\n    form = SQLFORM.factory(Field(\'query\',\'string\'),Field(\'option\') , formstyle=\'divs\', submit_button="Search")\n    if form.process().accepted:\n        #k=redirect(URL(\'default\',\'results\', args=[1, formone.vars.search_query_1]))\n        #print form.vars.query\n        redirect(URL(\'default\',\'search_results\', args=[form.vars.option, form.vars.query]))\n    elif form.errors:\n        print "failed"\n    else:\n        print "unknown"\n    id=request.args(0,cast=int)\n    #print db.songs(id)\n    db.songs(id)\n    song=db.songs(id) or redirect(URL(\'index\'))\n    views = song.views\n    song.update_record(views = views+1)\n    print "View = ",views\n    comments=db(db.cmnt.songs1==song.id).select()\n    #print song.id\n    #song.Likes.default=0\n    Likes=song.Likes\n    #print Likes\n    #for comment in comments:\n    if auth.user:\n        #db.cmnt.songs1=id\n        db.cmnt.songs1.default=id\n        formcmnt=SQLFORM(db.cmnt)\n        if formcmnt.process().accepted:\n            redirect(URL(\'see\',args=id))\n        else:\n            response.flash="Success!"\n    else:\n        formcmnt=A("Please Login for commenting and liking",_href=URL(\'user/login\',vars=dict(_next=URL(args=request.args))))\n    return locals()\n\ndef upload():\n    form=SQLFORM(db.videos, fields=[\'title\',\'description\',\'video\'])\n    return locals()\n\ndef insert():\n    vars=request.get_vars\n    title=vars.title\n    url=vars.url\n    print url\n    category=vars.category\n    genre=vars.genre\n    likes=0\n    existing=db(db.songs.title==vars.title).select()\n    #if category == \'Audio\':\n        #url = client.get(url, allow_redirects=False)\n        #url=url.location\n    if existing:\n        new_id=existing.id\n    else:    \n        db.songs.insert(title=title,url=url,category=category,genre=genre,Likes=likes)\n        new_id=db(db.songs.id>0).count()\n    redirect(URL(\'see\',args=new_id))\n\n"""def see():\n    x=0\n    id=request.args(0,cast=int)\n    print db.songs(id)\n    song=db.songs(id) or redirect(URL(\'index\'))\n    comments=db(db.cmnt.songs1==song.id).select()\n    print song.id\n    #song.Likes.default=0\n    Likes=song.Likes\n    #for comment in comments:\n    if auth.user:\n        #db.cmnt.songs1=id\n        db.cmnt.songs1.default=id\n        form=SQLFORM(db.cmnt)\n        if form.process().accepted:\n            redirect(URL(\'see\',args=id))\n        else:\n            response.flash="Success!"\n    else:\n        form=A("Please Login for commenting and liking",_href=URL(\'user/login\',vars=dict(_next=URL(args=request.args))))\n    return locals()\n"""\n\n@auth.requires_login()\ndef mark_favourite():\n    id=request.args(0,cast=int)\n    print id\n    x=db((db.favourite.songid==id)&(db.favourite.user_id==auth.user.id)).select()\n    print "x is = "\n    print x\n    if not x:\n        db.favourite.insert(songid=id,user_id=auth.user.id)\n        redirect(URL(\'default\',\'see\', args=[1,id]))\n    else :\n        redirect(URL(\'default\',\'index\'))\n\ndef user():\n    """\n    exposes:\n    http://..../[app]/default/user/login\n    http://..../[app]/default/user/logout\n    http://..../[app]/default/user/register\n    http://..../[app]/default/user/profile\n    http://..../[app]/default/user/retrieve_password\n    http://..../[app]/default/user/change_password\n    http://..../[app]/default/user/manage_users (requires membership in\n    http://..../[app]/default/user/bulk_register\n    use @auth.requires_login()\n        @auth.requires_membership(\'group name\')\n        @auth.requires_permission(\'read\',\'table name\',record_id)\n    to decorate functions that need access control\n    """\n    return dict(form=auth())\n\n\n@cache.action()\ndef download():\n    """\n    allows downloading of uploaded files\n    http://..../[app]/default/download/[filename]\n    """\n    return response.download(request, db)\n\n\ndef call():\n    """\n    exposes services. for example:\n    http://..../[app]/default/call/jsonrpc\n    decorate with @services.jsonrpc the functions to expose\n    supports xml, json, xmlrpc, jsonrpc, amfrpc, rss, csv\n    """\n    return service()\nresponse._vars=response._caller(fav)\n'
p7
sS'snapshot'
p8
(dp9
S'exception'
p10
(dp11
S'__getslice__'
p12
S"<method-wrapper '__getslice__' of exceptions.SyntaxError object>"
p13
sS'text'
p14
S'None'
p15
sS'__str__'
p16
S"<method-wrapper '__str__' of exceptions.SyntaxError object>"
p17
sS'__reduce__'
p18
S'<built-in method __reduce__ of exceptions.SyntaxError object>'
p19
sS'__dict__'
p20
S'{}'
p21
sS'__sizeof__'
p22
S'<built-in method __sizeof__ of exceptions.SyntaxError object>'
p23
sS'__init__'
p24
S"<method-wrapper '__init__' of exceptions.SyntaxError object>"
p25
sS'__setattr__'
p26
S"<method-wrapper '__setattr__' of exceptions.SyntaxError object>"
p27
sS'__reduce_ex__'
p28
S'<built-in method __reduce_ex__ of exceptions.SyntaxError object>'
p29
sS'__new__'
p30
S'<built-in method __new__ of type object>'
p31
sS'__format__'
p32
S'<built-in method __format__ of exceptions.SyntaxError object>'
p33
sS'__class__'
p34
S"<type 'exceptions.SyntaxError'>"
p35
sS'filename'
p36
S'None'
p37
sS'lineno'
p38
S'None'
p39
sS'msg'
p40
S"'Set: no tables selected'"
p41
sS'__doc__'
p42
S"'Invalid syntax.'"
p43
sS'__getitem__'
p44
S"<method-wrapper '__getitem__' of exceptions.SyntaxError object>"
p45
sS'__setstate__'
p46
S'<built-in method __setstate__ of exceptions.SyntaxError object>'
p47
sS'__getattribute__'
p48
S"<method-wrapper '__getattribute__' of exceptions.SyntaxError object>"
p49
sS'print_file_and_line'
p50
S'None'
p51
sS'args'
p52
S"('Set: no tables selected',)"
p53
sS'__subclasshook__'
p54
S'<built-in method __subclasshook__ of type object>'
p55
sS'offset'
p56
S'None'
p57
sS'__unicode__'
p58
S'<built-in method __unicode__ of exceptions.SyntaxError object>'
p59
sS'__delattr__'
p60
S"<method-wrapper '__delattr__' of exceptions.SyntaxError object>"
p61
sS'__repr__'
p62
S"<method-wrapper '__repr__' of exceptions.SyntaxError object>"
p63
sS'__hash__'
p64
S"<method-wrapper '__hash__' of exceptions.SyntaxError object>"
p65
ssS'evalue'
p66
S'Set: no tables selected'
p67
sS'request'
p68
cgluon.html
XML_unpickle
p69
(S'sch\x00\x00<div><table><tr><td style="font-weight:bold;vertical-align:top;">ajax</td><td style="vertical-align:top;">:</td><td><div>False</div></td></tr><tr><td style="font-weight:bold;vertical-align:top;">application</td><td style="vertical-align:top;">:</td><td><div>final</div></td></tr><tr><td style="font-weight:bold;vertical-align:top;">args</td><td style="vertical-align:top;">:</td><td><div><table></table></div></td></tr><tr><td style="font-weight:bold;vertical-align:top;">cid</td><td style="vertical-align:top;">:</td><td><div>None</div></td></tr><tr><td style="font-weight:bold;vertical-align:top;">client</td><td style="vertical-align:top;">:</td><td><div>127.0.0.1</div></td></tr><tr><td style="font-weight:bold;vertical-align:top;">controller</td><td style="vertical-align:top;">:</td><td><div>default</div></td></tr><tr><td style="font-weight:bold;vertical-align:top;">cookies</td><td style="vertical-align:top;">:</td><td><div><table><tr><td style="font-weight:bold;vertical-align:top;">session_id_admin</td><td style="vertical-align:top;">:</td><td><div>127.0.0.1-144f05f8-0628-4f43-beef-3d0df169978f<table><tr><td style="font-weight:bold;vertical-align:top;">comment</td><td style="vertical-align:top;">:</td><td><div></div></td></tr><tr><td style="font-weight:bold;vertical-align:top;">domain</td><td style="vertical-align:top;">:</td><td><div></div></td></tr><tr><td style="font-weight:bold;vertical-align:top;">expires</td><td style="vertical-align:top;">:</td><td><div></div></td></tr><tr><td style="font-weight:bold;vertical-align:top;">httponly</td><td style="vertical-align:top;">:</td><td><div></div></td></tr><tr><td style="font-weight:bold;vertical-align:top;">max-age</td><td style="vertical-align:top;">:</td><td><div></div></td></tr><tr><td style="font-weight:bold;vertical-align:top;">path</td><td style="vertical-align:top;">:</td><td><div></div></td></tr><tr><td style="font-weight:bold;vertical-align:top;">secure</td><td style="vertical-align:top;">:</td><td><div></div></td></tr><tr><td style="font-weight:bold;vertical-align:top;">version</td><td style="vertical-align:top;">:</td><td><div></div></td></tr></table></div></td></tr><tr><td style="font-weight:bold;vertical-align:top;">session_id_final</td><td style="vertical-align:top;">:</td><td><div>127.0.0.1-9bf62b76-d34d-4ad0-88b9-831cab2a4e75<table><tr><td style="font-weight:bold;vertical-align:top;">comment</td><td style="vertical-align:top;">:</td><td><div></div></td></tr><tr><td style="font-weight:bold;vertical-align:top;">domain</td><td style="vertical-align:top;">:</td><td><div></div></td></tr><tr><td style="font-weight:bold;vertical-align:top;">expires</td><td style="vertical-align:top;">:</td><td><div></div></td></tr><tr><td style="font-weight:bold;vertical-align:top;">httponly</td><td style="vertical-align:top;">:</td><td><div></div></td></tr><tr><td style="font-weight:bold;vertical-align:top;">max-age</td><td style="vertical-align:top;">:</td><td><div></div></td></tr><tr><td style="font-weight:bold;vertical-align:top;">path</td><td style="vertical-align:top;">:</td><td><div></div></td></tr><tr><td style="font-weight:bold;vertical-align:top;">secure</td><td style="vertical-align:top;">:</td><td><div></div></td></tr><tr><td style="font-weight:bold;vertical-align:top;">version</td><td style="vertical-align:top;">:</td><td><div></div></td></tr></table></div></td></tr><tr><td style="font-weight:bold;vertical-align:top;">session_id_modal</td><td style="vertical-align:top;">:</td><td><div>127.0.0.1-686792ce-a9d0-4eb2-913e-ce7e5a93b8fb<table><tr><td style="font-weight:bold;vertical-align:top;">comment</td><td style="vertical-align:top;">:</td><td><div></div></td></tr><tr><td style="font-weight:bold;vertical-align:top;">domain</td><td style="vertical-align:top;">:</td><td><div></div></td></tr><tr><td style="font-weight:bold;vertical-align:top;">expires</td><td style="vertical-align:top;">:</td><td><div></div></td></tr><tr><td style="font-weight:bold;vertical-align:top;">httponly</td><td style="vertical-align:top;">:</td><td><div></div></td></tr><tr><td style="font-weight:bold;vertical-align:top;">max-age</td><td style="vertical-align:top;">:</td><td><div></div></td></tr><tr><td style="font-weight:bold;vertical-align:top;">path</td><td style="vertical-align:top;">:</td><td><div></div></td></tr><tr><td style="font-weight:bold;vertical-align:top;">secure</td><td style="vertical-align:top;">:</td><td><div></div></td></tr><tr><td style="font-weight:bold;vertical-align:top;">version</td><td style="vertical-align:top;">:</td><td><div></div></td></tr></table></div></td></tr><tr><td style="font-weight:bold;vertical-align:top;">session_id_mymusic</td><td style="vertical-align:top;">:</td><td><div>127.0.0.1-488eddb4-c7b6-40bf-b289-6628f887272d<table><tr><td style="font-weight:bold;vertical-align:top;">comment</td><td style="vertical-align:top;">:</td><td><div></div></td></tr><tr><td style="font-weight:bold;vertical-align:top;">domain</td><td style="vertical-align:top;">:</td><td><div></div></td></tr><tr><td style="font-weight:bold;vertical-align:top;">expires</td><td style="vertical-align:top;">:</td><td><div></div></td></tr><tr><td style="font-weight:bold;vertical-align:top;">httponly</td><td style="vertical-align:top;">:</td><td><div></div></td></tr><tr><td style="font-weight:bold;vertical-align:top;">max-age</td><td style="vertical-align:top;">:</td><td><div></div></td></tr><tr><td style="font-weight:bold;vertical-align:top;">path</td><td style="vertical-align:top;">:</td><td><div></div></td></tr><tr><td style="font-weight:bold;vertical-align:top;">secure</td><td style="vertical-align:top;">:</td><td><div></div></td></tr><tr><td style="font-weight:bold;vertical-align:top;">version</td><td style="vertical-align:top;">:</td><td><div></div></td></tr></table></div></td></tr><tr><td style="font-weight:bold;vertical-align:top;">session_id_videolibrary</td><td style="vertical-align:top;">:</td><td><div>127.0.0.1-e9f1a0ee-6f98-4604-8075-717e10c6c66d<table><tr><td style="font-weight:bold;vertical-align:top;">comment</td><td style="vertical-align:top;">:</td><td><div></div></td></tr><tr><td style="font-weight:bold;vertical-align:top;">domain</td><td style="vertical-align:top;">:</td><td><div></div></td></tr><tr><td style="font-weight:bold;vertical-align:top;">expires</td><td style="vertical-align:top;">:</td><td><div></div></td></tr><tr><td style="font-weight:bold;vertical-align:top;">httponly</td><td style="vertical-align:top;">:</td><td><div></div></td></tr><tr><td style="font-weight:bold;vertical-align:top;">max-age</td><td style="vertical-align:top;">:</td><td><div></div></td></tr><tr><td style="font-weight:bold;vertical-align:top;">path</td><td style="vertical-align:top;">:</td><td><div></div></td></tr><tr><td style="font-weight:bold;vertical-align:top;">secure</td><td style="vertical-align:top;">:</td><td><div></div></td></tr><tr><td style="font-weight:bold;vertical-align:top;">version</td><td style="vertical-align:top;">:</td><td><div></div></td></tr></table></div></td></tr></table></div></td></tr><tr><td style="font-weight:bold;vertical-align:top;">env</td><td style="vertical-align:top;">:</td><td><div><table><tr><td style="font-weight:bold;vertical-align:top;">HTTP_ACCEPT</td><td style="vertical-align:top;">:</td><td><div>text/html,application/xhtml+xml,application/xml;q=0.9,image/webp,*/*;q=0.8</div></td></tr><tr><td style="font-weight:bold;vertical-align:top;">HTTP_ACCEPT_ENCODING</td><td style="vertical-align:top;">:</td><td><div>gzip, deflate, sdch</div></td></tr><tr><td style="font-weight:bold;vertical-align:top;">HTTP_ACCEPT_LANGUAGE</td><td style="vertical-align:top;">:</td><td><div>en-US,en;q=0.8</div></td></tr><tr><td style="font-weight:bold;vertical-align:top;">HTTP_CACHE_CONTROL</td><td style="vertical-align:top;">:</td><td><div>max-age=0</div></td></tr><tr><td style="font-weight:bold;vertical-align:top;">HTTP_CONNECTION</td><td style="vertical-align:top;">:</td><td><div>keep-alive</div></td></tr><tr><td style="font-weight:bold;vertical-align:top;">HTTP_COOKIE</td><td style="vertical-align:top;">:</td><td><div>session_id_videolibrary=127.0.0.1-e9f1a0ee-6f98-4604-8075-717e10c6c66d; session_id_mymusic=127.0.0.1-488eddb4-c7b6-40bf-b289-6628f887272d; session_id_modal=127.0.0.1-686792ce-a9d0-4eb2-913e-ce7e5a93b8fb; session_id_admin=127.0.0.1-144f05f8-0628-4f43-beef-3d0df169978f; session_id_final=127.0.0.1-9bf62b76-d34d-4ad0-88b9-831cab2a4e75</div></td></tr><tr><td style="font-weight:bold;vertical-align:top;">HTTP_HOST</td><td style="vertical-align:top;">:</td><td><div>127.0.0.1:8000</div></td></tr><tr><td style="font-weight:bold;vertical-align:top;">HTTP_REFERER</td><td style="vertical-align:top;">:</td><td><div>http://127.0.0.1:8000/final</div></td></tr><tr><td style="font-weight:bold;vertical-align:top;">HTTP_UPGRADE_INSECURE_REQUESTS</td><td style="vertical-align:top;">:</td><td><div>1</div></td></tr><tr><td style="font-weight:bold;vertical-align:top;">HTTP_USER_AGENT</td><td style="vertical-align:top;">:</td><td><div>Mozilla/5.0 (X11; Linux x86_64) AppleWebKit/537.36 (KHTML, like Gecko) Chrome/45.0.2454.101 Safari/537.36</div></td></tr><tr><td style="font-weight:bold;vertical-align:top;">PATH_INFO</td><td style="vertical-align:top;">:</td><td><div>/final/default/fav.html</div></td></tr><tr><td style="font-weight:bold;vertical-align:top;">QUERY_STRING</td><td style="vertical-align:top;">:</td><td><div></div></td></tr><tr><td style="font-weight:bold;vertical-align:top;">REMOTE_ADDR</td><td style="vertical-align:top;">:</td><td><div>127.0.0.1</div></td></tr><tr><td style="font-weight:bold;vertical-align:top;">REMOTE_PORT</td><td style="vertical-align:top;">:</td><td><div>38202</div></td></tr><tr><td style="font-weight:bold;vertical-align:top;">REQUEST_METHOD</td><td style="vertical-align:top;">:</td><td><div>GET</div></td></tr><tr><td style="font-weight:bold;vertical-align:top;">SCRIPT_NAME</td><td style="vertical-align:top;">:</td><td><div></div></td></tr><tr><td style="font-weight:bold;vertical-align:top;">SERVER_NAME</td><td style="vertical-align:top;">:</td><td><div>abhi-Vostro-3546</div></td></tr><tr><td style="font-weight:bold;vertical-align:top;">SERVER_PORT</td><td style="vertical-align:top;">:</td><td><div>8000</div></td></tr><tr><td style="font-weight:bold;vertical-align:top;">SERVER_PROTOCOL</td><td style="vertical-align:top;">:</td><td><div>HTTP/1.1</div></td></tr><tr><td style="font-weight:bold;vertical-align:top;">SERVER_SOFTWARE</td><td style="vertical-align:top;">:</td><td><div>Rocket 1.2.6</div></td></tr><tr><td style="font-weight:bold;vertical-align:top;">app_folders</td><td style="vertical-align:top;">:</td><td><div>set([&#x27;/home/abhi/Downloads/CourseMaterial/web2Py/web2py/applications/welcome/&#x27;, &#x27;/home/abhi/Downloads/CourseMaterial/web2Py/web2py/applications/final/&#x27;])</div></td></tr><tr><td style="font-weight:bold;vertical-align:top;">applications_parent</td><td style="vertical-align:top;">:</td><td><div>/home/abhi/Downloads/CourseMaterial/web2Py/web2py</div></td></tr><tr><td style="font-weight:bold;vertical-align:top;">cmd_args</td><td style="vertical-align:top;">:</td><td><div><table></table></div></td></tr><tr><td style="font-weight:bold;vertical-align:top;">cmd_options</td><td style="vertical-align:top;">:</td><td><div>&lt;Values at 0x7f1aba57efc8: {&#x27;verbose&#x27;: False, &#x27;ip&#x27;: &#x27;127.0.0.1&#x27;, &#x27;debuglevel&#x27;: 30, &#x27;with_scheduler&#x27;: False, &#x27;ips&#x27;: [&#x27;127.0.1.1&#x27;], &#x27;shutdown_timeout&#x27;: 5, &#x27;taskbar&#x27;: False, &#x27;with_coverage&#x27;: False, &#x27;scheduler_groups&#x27;: None, &#x27;port&#x27;: 8000, &#x27;maxthreads&#x27;: None, &#x27;softcron&#x27;: False, &#x27;server_name&#x27;: &#x27;abhi-Vostro-3546&#x27;, &#x27;bpython&#x27;: False, &#x27;nogui&#x27;: False, &#x27;pid_filename&#x27;: &#x27;httpserver.pid&#x27;, &#x27;print_errors&#x27;: False, &#x27;extcron&#x27;: False, &#x27;runcron&#x27;: False, &#x27;run_system_tests&#x27;: False, &#x27;test&#x27;: None, &#x27;folder&#x27;: &#x27;/home/abhi/Downloads/CourseMaterial/web2Py/web2py&#x27;, &#x27;config&#x27;: &#x27;&#x27;, &#x27;minthreads&#x27;: None, &#x27;shell&#x27;: None, &#x27;run&#x27;: &#x27;&#x27;, &#x27;log_filename&#x27;: &#x27;httpserver.log&#x27;, &#x27;profiler_dir&#x27;: None, &#x27;args&#x27;: [&#x27;&#x27;], &#x27;socket_timeout&#x27;: 5, &#x27;ssl_ca_certificate&#x27;: None, &#x27;scheduler&#x27;: None, &#x27;interfaces&#x27;: None, &#x27;ssl_private_key&#x27;: &#x27;&#x27;, &#x27;gae&#x27;: None, &#x27;password&#x27;: &#x27;&lt;ask&gt;&#x27;, &#x27;request_queue_size&#x27;: 5, &#x27;ssl_certificate&#x27;: &#x27;&#x27;, &#x27;cronjob&#x27;: False, &#x27;numthreads&#x27;: None, &#x27;quiet&#x27;: False, &#x27;import_models&#x27;: False, &#x27;timeout&#x27;: 10, &#x27;plain&#x27;: False, &#x27;nobanner&#x27;: False}&gt;</div></td></tr><tr><td style="font-weight:bold;vertical-align:top;">db_sessions</td><td style="vertical-align:top;">:</td><td><div>set([])</div></td></tr><tr><td style="font-weight:bold;vertical-align:top;">debugging</td><td style="vertical-align:top;">:</td><td><div>False</div></td></tr><tr><td style="font-weight:bold;vertical-align:top;">gluon_parent</td><td style="vertical-align:top;">:</td><td><div>/home/abhi/Downloads/CourseMaterial/web2Py/web2py</div></td></tr><tr><td style="font-weight:bold;vertical-align:top;">http_accept</td><td style="vertical-align:top;">:</td><td><div>text/html,application/xhtml+xml,application/xml;q=0.9,image/webp,*/*;q=0.8</div></td></tr><tr><td style="font-weight:bold;vertical-align:top;">http_accept_encoding</td><td style="vertical-align:top;">:</td><td><div>gzip, deflate, sdch</div></td></tr><tr><td style="font-weight:bold;vertical-align:top;">http_accept_language</td><td style="vertical-align:top;">:</td><td><div>en-US,en;q=0.8</div></td></tr><tr><td style="font-weight:bold;vertical-align:top;">http_cache_control</td><td style="vertical-align:top;">:</td><td><div>max-age=0</div></td></tr><tr><td style="font-weight:bold;vertical-align:top;">http_connection</td><td style="vertical-align:top;">:</td><td><div>keep-alive</div></td></tr><tr><td style="font-weight:bold;vertical-align:top;">http_cookie</td><td style="vertical-align:top;">:</td><td><div>session_id_videolibrary=127.0.0.1-e9f1a0ee-6f98-4604-8075-717e10c6c66d; session_id_mymusic=127.0.0.1-488eddb4-c7b6-40bf-b289-6628f887272d; session_id_modal=127.0.0.1-686792ce-a9d0-4eb2-913e-ce7e5a93b8fb; session_id_admin=127.0.0.1-144f05f8-0628-4f43-beef-3d0df169978f; session_id_final=127.0.0.1-9bf62b76-d34d-4ad0-88b9-831cab2a4e75</div></td></tr><tr><td style="font-weight:bold;vertical-align:top;">http_host</td><td style="vertical-align:top;">:</td><td><div>127.0.0.1:8000</div></td></tr><tr><td style="font-weight:bold;vertical-align:top;">http_referer</td><td style="vertical-align:top;">:</td><td><div>http://127.0.0.1:8000/final</div></td></tr><tr><td style="font-weight:bold;vertical-align:top;">http_upgrade_insecure_requests</td><td style="vertical-align:top;">:</td><td><div>1</div></td></tr><tr><td style="font-weight:bold;vertical-align:top;">http_user_agent</td><td style="vertical-align:top;">:</td><td><div>Mozilla/5.0 (X11; Linux x86_64) AppleWebKit/537.36 (KHTML, like Gecko) Chrome/45.0.2454.101 Safari/537.36</div></td></tr><tr><td style="font-weight:bold;vertical-align:top;">is_jython</td><td style="vertical-align:top;">:</td><td><div>False</div></td></tr><tr><td style="font-weight:bold;vertical-align:top;">is_pypy</td><td style="vertical-align:top;">:</td><td><div>False</div></td></tr><tr><td style="font-weight:bold;vertical-align:top;">is_source</td><td style="vertical-align:top;">:</td><td><div>True</div></td></tr><tr><td style="font-weight:bold;vertical-align:top;">local_hosts</td><td style="vertical-align:top;">:</td><td><div><table><tr><td><div>::1</div></td></tr><tr><td><div>127.0.1.1</div></td></tr><tr><td><div>::ffff:127.0.0.1</div></td></tr><tr><td><div>127.0.0.1</div></td></tr><tr><td><div>abhi-Vostro-3546</div></td></tr></table></div></td></tr><tr><td style="font-weight:bold;vertical-align:top;">path_info</td><td style="vertical-align:top;">:</td><td><div>/final/default/fav.html</div></td></tr><tr><td style="font-weight:bold;vertical-align:top;">query_string</td><td style="vertical-align:top;">:</td><td><div></div></td></tr><tr><td style="font-weight:bold;vertical-align:top;">remote_addr</td><td style="vertical-align:top;">:</td><td><div>127.0.0.1</div></td></tr><tr><td style="font-weight:bold;vertical-align:top;">remote_port</td><td style="vertical-align:top;">:</td><td><div>38202</div></td></tr><tr><td style="font-weight:bold;vertical-align:top;">request_method</td><td style="vertical-align:top;">:</td><td><div>GET</div></td></tr><tr><td style="font-weight:bold;vertical-align:top;">request_uri</td><td style="vertical-align:top;">:</td><td><div>/final/default/fav.html</div></td></tr><tr><td style="font-weight:bold;vertical-align:top;">script_name</td><td style="vertical-align:top;">:</td><td><div></div></td></tr><tr><td style="font-weight:bold;vertical-align:top;">server_name</td><td style="vertical-align:top;">:</td><td><div>abhi-Vostro-3546</div></td></tr><tr><td style="font-weight:bold;vertical-align:top;">server_port</td><td style="vertical-align:top;">:</td><td><div>8000</div></td></tr><tr><td style="font-weight:bold;vertical-align:top;">server_protocol</td><td style="vertical-align:top;">:</td><td><div>HTTP/1.1</div></td></tr><tr><td style="font-weight:bold;vertical-align:top;">server_software</td><td style="vertical-align:top;">:</td><td><div>Rocket 1.2.6</div></td></tr><tr><td style="font-weight:bold;vertical-align:top;">web2py_path</td><td style="vertical-align:top;">:</td><td><div>/home/abhi/Downloads/CourseMaterial/web2Py/web2py</div></td></tr><tr><td style="font-weight:bold;vertical-align:top;">web2py_version</td><td style="vertical-align:top;">:</td><td><div>2.12.3-stable+timestamp.2015.08.19.00.18.03</div></td></tr><tr><td style="font-weight:bold;vertical-align:top;">wsgi.errors</td><td style="vertical-align:top;">:</td><td><div>&lt;open file &#x27;&lt;stderr&gt;&#x27;, mode &#x27;w&#x27; at 0x7f1ac17dd1e0&gt;</div></td></tr><tr><td style="font-weight:bold;vertical-align:top;">wsgi.file_wrapper</td><td style="vertical-align:top;">:</td><td><div>&lt;class wsgiref.util.FileWrapper at 0x7f1aba607e88&gt;</div></td></tr><tr><td style="font-weight:bold;vertical-align:top;">wsgi.input</td><td style="vertical-align:top;">:</td><td><div>&lt;socket._fileobject object at 0x7f1a8c838350&gt;</div></td></tr><tr><td style="font-weight:bold;vertical-align:top;">wsgi.multiprocess</td><td style="vertical-align:top;">:</td><td><div>False</div></td></tr><tr><td style="font-weight:bold;vertical-align:top;">wsgi.multithread</td><td style="vertical-align:top;">:</td><td><div>True</div></td></tr><tr><td style="font-weight:bold;vertical-align:top;">wsgi.run_once</td><td style="vertical-align:top;">:</td><td><div>False</div></td></tr><tr><td style="font-weight:bold;vertical-align:top;">wsgi.url_scheme</td><td style="vertical-align:top;">:</td><td><div>http</div></td></tr><tr><td style="font-weight:bold;vertical-align:top;">wsgi.version</td><td style="vertical-align:top;">:</td><td><div><table><tr><td><div>1</div></td></tr><tr><td><div>0</div></td></tr></table></div></td></tr><tr><td style="font-weight:bold;vertical-align:top;">wsgi_errors</td><td style="vertical-align:top;">:</td><td><div>&lt;open file &#x27;&lt;stderr&gt;&#x27;, mode &#x27;w&#x27; at 0x7f1ac17dd1e0&gt;</div></td></tr><tr><td style="font-weight:bold;vertical-align:top;">wsgi_file_wrapper</td><td style="vertical-align:top;">:</td><td><div>&lt;class wsgiref.util.FileWrapper at 0x7f1aba607e88&gt;</div></td></tr><tr><td style="font-weight:bold;vertical-align:top;">wsgi_input</td><td style="vertical-align:top;">:</td><td><div>&lt;socket._fileobject object at 0x7f1a8c838350&gt;</div></td></tr><tr><td style="font-weight:bold;vertical-align:top;">wsgi_multiprocess</td><td style="vertical-align:top;">:</td><td><div>False</div></td></tr><tr><td style="font-weight:bold;vertical-align:top;">wsgi_multithread</td><td style="vertical-align:top;">:</td><td><div>True</div></td></tr><tr><td style="font-weight:bold;vertical-align:top;">wsgi_run_once</td><td style="vertical-align:top;">:</td><td><div>False</div></td></tr><tr><td style="font-weight:bold;vertical-align:top;">wsgi_url_scheme</td><td style="vertical-align:top;">:</td><td><div>http</div></td></tr><tr><td style="font-weight:bold;vertical-align:top;">wsgi_version</td><td style="vertical-align:top;">:</td><td><div><table><tr><td><div>1</div></td></tr><tr><td><div>0</div></td></tr></table></div></td></tr></table></div></td></tr><tr><td style="font-weight:bold;vertical-align:top;">extension</td><td style="vertical-align:top;">:</td><td><div>html</div></td></tr><tr><td style="font-weight:bold;vertical-align:top;">folder</td><td style="vertical-align:top;">:</td><td><div>/home/abhi/Downloads/CourseMaterial/web2Py/web2py/applications/final/</div></td></tr><tr><td style="font-weight:bold;vertical-align:top;">function</td><td style="vertical-align:top;">:</td><td><div>fav</div></td></tr><tr><td style="font-weight:bold;vertical-align:top;">global_settings</td><td style="vertical-align:top;">:</td><td><div><table><tr><td style="font-weight:bold;vertical-align:top;">app_folders</td><td style="vertical-align:top;">:</td><td><div>set([&#x27;/home/abhi/Downloads/CourseMaterial/web2Py/web2py/applications/welcome/&#x27;, &#x27;/home/abhi/Downloads/CourseMaterial/web2Py/web2py/applications/final/&#x27;])</div></td></tr><tr><td style="font-weight:bold;vertical-align:top;">applications_parent</td><td style="vertical-align:top;">:</td><td><div>/home/abhi/Downloads/CourseMaterial/web2Py/web2py</div></td></tr><tr><td style="font-weight:bold;vertical-align:top;">cmd_args</td><td style="vertical-align:top;">:</td><td><div><table></table></div></td></tr><tr><td style="font-weight:bold;vertical-align:top;">cmd_options</td><td style="vertical-align:top;">:</td><td><div>&lt;Values at 0x7f1aba57efc8: {&#x27;verbose&#x27;: False, &#x27;ip&#x27;: &#x27;127.0.0.1&#x27;, &#x27;debuglevel&#x27;: 30, &#x27;with_scheduler&#x27;: False, &#x27;ips&#x27;: [&#x27;127.0.1.1&#x27;], &#x27;shutdown_timeout&#x27;: 5, &#x27;taskbar&#x27;: False, &#x27;with_coverage&#x27;: False, &#x27;scheduler_groups&#x27;: None, &#x27;port&#x27;: 8000, &#x27;maxthreads&#x27;: None, &#x27;softcron&#x27;: False, &#x27;server_name&#x27;: &#x27;abhi-Vostro-3546&#x27;, &#x27;bpython&#x27;: False, &#x27;nogui&#x27;: False, &#x27;pid_filename&#x27;: &#x27;httpserver.pid&#x27;, &#x27;print_errors&#x27;: False, &#x27;extcron&#x27;: False, &#x27;runcron&#x27;: False, &#x27;run_system_tests&#x27;: False, &#x27;test&#x27;: None, &#x27;folder&#x27;: &#x27;/home/abhi/Downloads/CourseMaterial/web2Py/web2py&#x27;, &#x27;config&#x27;: &#x27;&#x27;, &#x27;minthreads&#x27;: None, &#x27;shell&#x27;: None, &#x27;run&#x27;: &#x27;&#x27;, &#x27;log_filename&#x27;: &#x27;httpserver.log&#x27;, &#x27;profiler_dir&#x27;: None, &#x27;args&#x27;: [&#x27;&#x27;], &#x27;socket_timeout&#x27;: 5, &#x27;ssl_ca_certificate&#x27;: None, &#x27;scheduler&#x27;: None, &#x27;interfaces&#x27;: None, &#x27;ssl_private_key&#x27;: &#x27;&#x27;, &#x27;gae&#x27;: None, &#x27;password&#x27;: &#x27;&lt;ask&gt;&#x27;, &#x27;request_queue_size&#x27;: 5, &#x27;ssl_certificate&#x27;: &#x27;&#x27;, &#x27;cronjob&#x27;: False, &#x27;numthreads&#x27;: None, &#x27;quiet&#x27;: False, &#x27;import_models&#x27;: False, &#x27;timeout&#x27;: 10, &#x27;plain&#x27;: False, &#x27;nobanner&#x27;: False}&gt;</div></td></tr><tr><td style="font-weight:bold;vertical-align:top;">db_sessions</td><td style="vertical-align:top;">:</td><td><div>set([])</div></td></tr><tr><td style="font-weight:bold;vertical-align:top;">debugging</td><td style="vertical-align:top;">:</td><td><div>False</div></td></tr><tr><td style="font-weight:bold;vertical-align:top;">gluon_parent</td><td style="vertical-align:top;">:</td><td><div>/home/abhi/Downloads/CourseMaterial/web2Py/web2py</div></td></tr><tr><td style="font-weight:bold;vertical-align:top;">is_jython</td><td style="vertical-align:top;">:</td><td><div>False</div></td></tr><tr><td style="font-weight:bold;vertical-align:top;">is_pypy</td><td style="vertical-align:top;">:</td><td><div>False</div></td></tr><tr><td style="font-weight:bold;vertical-align:top;">is_source</td><td style="vertical-align:top;">:</td><td><div>True</div></td></tr><tr><td style="font-weight:bold;vertical-align:top;">local_hosts</td><td style="vertical-align:top;">:</td><td><div><table><tr><td><div>::1</div></td></tr><tr><td><div>127.0.1.1</div></td></tr><tr><td><div>::ffff:127.0.0.1</div></td></tr><tr><td><div>127.0.0.1</div></td></tr><tr><td><div>abhi-Vostro-3546</div></td></tr></table></div></td></tr><tr><td style="font-weight:bold;vertical-align:top;">web2py_version</td><td style="vertical-align:top;">:</td><td><div>2.12.3-stable+timestamp.2015.08.19.00.18.03</div></td></tr></table></div></td></tr><tr><td style="font-weight:bold;vertical-align:top;">is_https</td><td style="vertical-align:top;">:</td><td><div>False</div></td></tr><tr><td style="font-weight:bold;vertical-align:top;">is_local</td><td style="vertical-align:top;">:</td><td><div>True</div></td></tr><tr><td style="font-weight:bold;vertical-align:top;">is_restful</td><td style="vertical-align:top;">:</td><td><div>False</div></td></tr><tr><td style="font-weight:bold;vertical-align:top;">is_sheduler</td><td style="vertical-align:top;">:</td><td><div>None</div></td></tr><tr><td style="font-weight:bold;vertical-align:top;">is_shell</td><td style="vertical-align:top;">:</td><td><div>None</div></td></tr><tr><td style="font-weight:bold;vertical-align:top;">now</td><td style="vertical-align:top;">:</td><td><div>datetime.datetime(2015, 11, 21, 22, 51, 37, 124152)</div></td></tr><tr><td style="font-weight:bold;vertical-align:top;">raw_args</td><td style="vertical-align:top;">:</td><td><div></div></td></tr><tr><td style="font-weight:bold;vertical-align:top;">raw_extension</td><td style="vertical-align:top;">:</td><td><div>html</div></td></tr><tr><td style="font-weight:bold;vertical-align:top;">url</td><td style="vertical-align:top;">:</td><td><div>/final/default/fav.html</div></td></tr><tr><td style="font-weight:bold;vertical-align:top;">utcnow</td><td style="vertical-align:top;">:</td><td><div>datetime.datetime(2015, 11, 21, 17, 21, 37, 124184)</div></td></tr><tr><td style="font-weight:bold;vertical-align:top;">wsgi</td><td style="vertical-align:top;">:</td><td><div>&lt;gluon.main.LazyWSGI object at 0x7f1a8c5cea90&gt;</div></td></tr></table></div>'
tRp70
sS'frames'
p71
(lp72
(dp73
S'file'
p74
S'/home/abhi/Downloads/CourseMaterial/web2Py/web2py/gluon/restricted.py'
p75
sS'dump'
p76
(dp77
S'environment'
p78
S"{'A': <class 'gluon.html.A'>, 'ANY_OF': <class 'gluon.validators.ANY_OF'>, 'ASSIGNJS': <function ASSIGNJS>, 'AppConfig': <function AppConfig>, 'Auth': <class 'gluon.tools.Auth'>, 'B': <class 'gluon.html.B'>, 'BEAUTIFY': <class 'gluon.html.BEAUTIFY'>, 'BODY': <class 'gluon.html.BODY'>, 'BR': <class 'gluon.html.BR'>, 'BUTTON': <class 'gluon.html.BUTTON'>, ...}"
p79
sS'ccode'
p80
S'<code object <module> at 0x7f1a8c48e4b0, file "/...lications/final/controllers/default.py", line 10>'
p81
ssS'lnum'
p82
I227
sS'lines'
p83
(dp84
I224
S'            ccode = code'
p85
sI225
S'        else:'
p86
sI226
S'            ccode = compile2(code, layer)'
p87
sI227
S'        exec ccode in environment'
p88
sI228
S'    except HTTP:'
p89
sI229
S'        raise'
p90
sI230
S'    except RestrictedError:'
p91
sI231
S'        # do not encapsulate (obfuscate) the original RestrictedError'
p92
sI222
S'    try:'
p93
sI223
S'        if isinstance(code, types.CodeType):'
p94
ssS'call'
p95
S"(code='# -*- coding: utf-8 -*-\\n# this file is released ...n service()\\nresponse._vars=response._caller(fav)\\n', environment={'A': <class 'gluon.html.A'>, 'ANY_OF': <class 'gluon.validators.ANY_OF'>, 'ASSIGNJS': <function ASSIGNJS>, 'AppConfig': <function AppConfig>, 'Auth': <class 'gluon.tools.Auth'>, 'B': <class 'gluon.html.B'>, 'BEAUTIFY': <class 'gluon.html.BEAUTIFY'>, 'BODY': <class 'gluon.html.BODY'>, 'BR': <class 'gluon.html.BR'>, 'BUTTON': <class 'gluon.html.BUTTON'>, ...}, layer='/home/abhi/Downloads/CourseMaterial/web2Py/web2py/applications/final/controllers/default.py')"
p96
sS'func'
p97
S'restricted'
p98
sa(dp99
g74
S'/home/abhi/Downloads/CourseMaterial/web2Py/web2py/applications/final/controllers/default.py'
p100
sg76
(dp101
sg82
I453
sg83
(dp102
I448
S'    http://..../[app]/default/call/jsonrpc'
p103
sI449
S'    decorate with @services.jsonrpc the functions to expose'
p104
sI450
S'    supports xml, json, xmlrpc, jsonrpc, amfrpc, rss, csv'
p105
sI451
S'    """'
p106
sI452
S'    return service()'
p107
sI443
S''
sI444
S''
sI445
S'def call():'
p108
sI446
S'    """'
p109
sI447
S'    exposes services. for example:'
p110
ssg95
S'()'
p111
sg97
S'<module>'
p112
sa(dp113
g74
S'/home/abhi/Downloads/CourseMaterial/web2Py/web2py/gluon/globals.py'
p114
sg76
(dp115
S'self'
p116
S'undefined'
p117
sS'f'
S'<function fav>'
p118
ssg82
I412
sg83
(dp119
I416
S"        self.generic_patterns = ['*']"
p120
sI407
S"        self.flash = ''            # used by the default view layout"
p121
sI408
S'        self.meta = Storage()      # used by web2py_ajax.html'
p122
sI409
S'        self.menu = []             # used by the default view layout'
p123
sI410
S'        self.files = []            # used by web2py_ajax.html'
p124
sI411
S'        self._vars = None'
p125
sI412
S'        self._caller = lambda f: f()'
p126
sI413
S'        self._view_environment = None'
p127
sI414
S'        self._custom_commit = None'
p128
sI415
S'        self._custom_rollback = None'
p129
ssg95
S'(f=<function fav>)'
p130
sg97
S'<lambda>'
p131
sa(dp132
g74
S'/home/abhi/Downloads/CourseMaterial/web2Py/web2py/applications/final/controllers/default.py'
p133
sg76
(dp134
S').select'
p135
g117
sS'db.fav'
p136
S'<Table fav (id,songs1,rate,is_active,created_on,created_by,modified_on,modified_by)>'
p137
sS'builtinid'
p138
S'<built-in function id>'
p139
sS'db.fav.songs1'
p140
S'<pydal.objects.Field object>'
p141
sS'result'
p142
g117
sS'global db'
p143
S'<DAL uri="sqlite://storage.sqlite">'
p144
sS'groupby'
p145
g117
ssg82
I316
sg83
(dp146
I320
S'        k=db(db.songs.id==r.songid).select()"""'
p147
sI311
S"        redirect(URL('default','search_results', args=[form.vars.option, form.vars.query]))"
p148
sI312
S'    elif form.errors:'
p149
sI313
S'        print "failed"'
p150
sI314
S'    else:'
p151
sI315
S'        print "unknown"'
p152
sI316
S'    result=db().select(id,groupby=db.fav.songs1)'
p153
sI317
S'    print result'
p154
sI318
S'    """l=[]'
p155
sI319
S'    for r in result:'
p156
ssg95
S'()'
p157
sg97
S'fav'
p158
sa(dp159
g74
S'/home/abhi/Downloads/CourseMaterial/web2Py/web2py/gluon/packages/dal/pydal/objects.py'
p160
sg76
(dp161
S'self.query'
p162
S'None'
p163
sS'adapter.select'
p164
S'<bound method SQLiteAdapter.select of <pydal.adapters.sqlite.SQLiteAdapter object>>'
p165
sS'fields'
p166
S'[<built-in function id>]'
p167
sS'adapter'
p168
S'<pydal.adapters.sqlite.SQLiteAdapter object>'
p169
sS'attributes'
p170
S"{'groupby': <pydal.objects.Field object>}"
p171
sS'self'
p172
S'<Set None>'
p173
ssg82
I2002
sg83
(dp174
I1997
S"                                    attributes.get('join',None),"
p175
sI1998
S"                                    attributes.get('left',None),"
p176
sI1999
S"                                    attributes.get('orderby',None),"
p177
sI2000
S"                                    attributes.get('groupby',None))"
p178
sI2001
S'        fields = adapter.expand_all(fields, tablenames)'
p179
sI2002
S'        return adapter.select(self.query,fields,attributes)'
p180
sI2003
S''
sI2004
S'    def iterselect(self, *fields, **attributes):'
p181
sI2005
S'        adapter = self.db._adapter'
p182
sI2006
S'        tablenames = adapter.tables(self.query,'
p183
ssg95
S"(self=<Set None>, *fields=[<built-in function id>], **attributes={'groupby': <pydal.objects.Field object>})"
p184
sg97
S'select'
p185
sa(dp186
g74
S'/home/abhi/Downloads/CourseMaterial/web2Py/web2py/gluon/packages/dal/pydal/adapters/sqlite.py'
p187
sg76
(dp188
S'fields'
p189
S'[<built-in function id>]'
p190
sS'self'
p191
S'<pydal.adapters.sqlite.SQLiteAdapter object>'
p192
sS').select'
p193
S'<bound method SQLiteAdapter.select of <pydal.adapters.sqlite.SQLiteAdapter object>>'
p194
sS'attributes'
p195
S"{'groupby': <pydal.objects.Field object>}"
p196
sS'global SQLiteAdapter'
p197
S"<class 'pydal.adapters.sqlite.SQLiteAdapter'>"
p198
sS'query'
p199
S'None'
p200
sS'builtinsuper'
p201
S"<type 'super'>"
p202
ssg82
I122
sg83
(dp203
I117
S'        Note that the entire database, rather than one record, is locked'
p204
sI118
S'        (it will be locked eventually anyway by the following UPDATE).'
p205
sI119
S'        """'
p206
sI120
S"        if attributes.get('for_update', False) and not 'cache' in attributes:"
p207
sI121
S"            self.execute('BEGIN IMMEDIATE TRANSACTION;')"
p208
sI122
S'        return super(SQLiteAdapter, self).select(query, fields, attributes)'
p209
sI123
S''
sI124
S''
sI125
S'SPATIALLIBS = {'
p210
sI126
S"    'Windows':'libspatialite',"
p211
ssg95
S"(self=<pydal.adapters.sqlite.SQLiteAdapter object>, query=None, fields=[<built-in function id>], attributes={'groupby': <pydal.objects.Field object>})"
p212
sg97
g185
sa(dp213
g74
S'/home/abhi/Downloads/CourseMaterial/web2Py/web2py/gluon/packages/dal/pydal/adapters/base.py'
p214
sg76
(dp215
S'self._select'
p216
S'<bound method SQLiteAdapter._select of <pydal.adapters.sqlite.SQLiteAdapter object>>'
p217
sS'fields'
p218
S'[<built-in function id>]'
p219
sS'self'
p220
S'<pydal.adapters.sqlite.SQLiteAdapter object>'
p221
sS'sql'
p222
g117
sS'query'
p223
S'None'
p224
sS'attributes'
p225
S"{'groupby': <pydal.objects.Field object>}"
p226
ssg82
I1273
sg83
(dp227
I1268
S''
sI1269
S'    def select(self, query, fields, attributes):'
p228
sI1270
S'        """'
p229
sI1271
S'        Always returns a Rows object, possibly empty.'
p230
sI1272
S'        """'
p231
sI1273
S'        sql = self._select(query, fields, attributes)'
p232
sI1274
S"        cache = attributes.get('cache', None)"
p233
sI1275
S"        if cache and attributes.get('cacheable',False):"
p234
sI1276
S"            del attributes['cache']"
p235
sI1277
S'            (cache_model, time_expire) = cache'
p236
ssg95
S"(self=<pydal.adapters.sqlite.SQLiteAdapter object>, query=None, fields=[<built-in function id>], attributes={'groupby': <pydal.objects.Field object>})"
p237
sg97
g185
sa(dp238
g74
S'/home/abhi/Downloads/CourseMaterial/web2Py/web2py/gluon/packages/dal/pydal/adapters/base.py'
p239
sg76
(dp240
S'builtinSyntaxError'
p241
S"<type 'exceptions.SyntaxError'>"
p242
ssg82
I1094
sg83
(dp243
I1089
S'            for tablename in tables(field):'
p244
sI1090
S'                if not tablename in tablenames:'
p245
sI1091
S'                    tablenames.append(tablename)'
p246
sI1092
S''
sI1093
S'        if len(tablenames) < 1:'
p247
sI1094
S"            raise SyntaxError('Set: no tables selected')"
p248
sI1095
S'        def colexpand(field):'
p249
sI1096
S'            return self.expand(field, colnames=True)'
p250
sI1097
S'        self._colnames = list(map(colexpand, fields))'
p251
sI1098
S'        def geoexpand(field):'
p252
ssg95
S"(self=<pydal.adapters.sqlite.SQLiteAdapter object>, query=None, fields=[<built-in function id>], attributes={'groupby': <pydal.objects.Field object>})"
p253
sg97
S'_select'
p254
sasS'pyver'
p255
S'Python 2.7.6: /usr/bin/python (prefix: /usr)'
p256
sS'session'
p257
g69
(S's\x1a\x00\x00\x00<div><table></table></div>'
tRp258
sS'etype'
p259
S"<type 'exceptions.SyntaxError'>"
p260
sS'date'
p261
S'Sat Nov 21 22:51:37 2015'
p262
sS'response'
p263
g69
(S's\x91?\x00\x00<div><table><tr><td style="font-weight:bold;vertical-align:top;">body</td><td style="vertical-align:top;">:</td><td><div>&lt;cStringIO.StringO object at 0x7f1a8c5d29d0&gt;</div></td></tr><tr><td style="font-weight:bold;vertical-align:top;">cookies</td><td style="vertical-align:top;">:</td><td><div><table><tr><td style="font-weight:bold;vertical-align:top;">session_id_final</td><td style="vertical-align:top;">:</td><td><div>127.0.0.1-9bf62b76-d34d-4ad0-88b9-831cab2a4e75<table><tr><td style="font-weight:bold;vertical-align:top;">comment</td><td style="vertical-align:top;">:</td><td><div></div></td></tr><tr><td style="font-weight:bold;vertical-align:top;">domain</td><td style="vertical-align:top;">:</td><td><div></div></td></tr><tr><td style="font-weight:bold;vertical-align:top;">expires</td><td style="vertical-align:top;">:</td><td><div></div></td></tr><tr><td style="font-weight:bold;vertical-align:top;">httponly</td><td style="vertical-align:top;">:</td><td><div></div></td></tr><tr><td style="font-weight:bold;vertical-align:top;">max-age</td><td style="vertical-align:top;">:</td><td><div></div></td></tr><tr><td style="font-weight:bold;vertical-align:top;">path</td><td style="vertical-align:top;">:</td><td><div>/</div></td></tr><tr><td style="font-weight:bold;vertical-align:top;">secure</td><td style="vertical-align:top;">:</td><td><div></div></td></tr><tr><td style="font-weight:bold;vertical-align:top;">version</td><td style="vertical-align:top;">:</td><td><div></div></td></tr></table></div></td></tr></table></div></td></tr><tr><td style="font-weight:bold;vertical-align:top;">delimiters</td><td style="vertical-align:top;">:</td><td><div><table><tr><td><div>{{</div></td></tr><tr><td><div>}}</div></td></tr></table></div></td></tr><tr><td style="font-weight:bold;vertical-align:top;">files</td><td style="vertical-align:top;">:</td><td><div><table></table></div></td></tr><tr><td style="font-weight:bold;vertical-align:top;">flash</td><td style="vertical-align:top;">:</td><td><div></div></td></tr><tr><td style="font-weight:bold;vertical-align:top;">form_label_separator</td><td style="vertical-align:top;">:</td><td><div></div></td></tr><tr><td style="font-weight:bold;vertical-align:top;">formstyle</td><td style="vertical-align:top;">:</td><td><div>bootstrap3_inline</div></td></tr><tr><td style="font-weight:bold;vertical-align:top;">generic_patterns</td><td style="vertical-align:top;">:</td><td><div><table><tr><td><div>*</div></td></tr></table></div></td></tr><tr><td style="font-weight:bold;vertical-align:top;">google_analytics_id</td><td style="vertical-align:top;">:</td><td><div>None</div></td></tr><tr><td style="font-weight:bold;vertical-align:top;">headers</td><td style="vertical-align:top;">:</td><td><div><table><tr><td style="font-weight:bold;vertical-align:top;">X-Powered-By</td><td style="vertical-align:top;">:</td><td><div>web2py</div></td></tr></table></div></td></tr><tr><td style="font-weight:bold;vertical-align:top;">logo</td><td style="vertical-align:top;">:</td><td><div><a class="navbar-brand" href="http://www.web2py.com/" id="web2py-logo"><b>web<span>2</span>py</b>&trade;&nbsp;</a></div></td></tr><tr><td style="font-weight:bold;vertical-align:top;">menu</td><td style="vertical-align:top;">:</td><td><div><table><tr><td><div><table><tr><td><div>Home</div></td></tr><tr><td><div>False</div></td></tr><tr><td><div>/final/default/index</div></td></tr><tr><td><div><table></table></div></td></tr></table></div></td></tr><tr><td><div><table><tr><td><div>My Sites</div></td></tr><tr><td><div>False</div></td></tr><tr><td><div>/admin/default/site</div></td></tr></table></div></td></tr><tr><td><div><table><tr><td><div>This App</div></td></tr><tr><td><div>False</div></td></tr><tr><td><div>#</div></td></tr><tr><td><div><table><tr><td><div><table><tr><td><div>Design</div></td></tr><tr><td><div>False</div></td></tr><tr><td><div>/admin/default/design/final</div></td></tr></table></div></td></tr><tr><td><div><li class="divider"></li></div></td></tr><tr><td><div><table><tr><td><div>Controller</div></td></tr><tr><td><div>False</div></td></tr><tr><td><div>/admin/default/edit/final/controllers/default.py</div></td></tr></table></div></td></tr><tr><td><div><table><tr><td><div>View</div></td></tr><tr><td><div>False</div></td></tr><tr><td><div>/admin/default/edit/final/views/default/fav.html</div></td></tr></table></div></td></tr><tr><td><div><table><tr><td><div>DB Model</div></td></tr><tr><td><div>False</div></td></tr><tr><td><div>/admin/default/edit/final/models/db.py</div></td></tr></table></div></td></tr><tr><td><div><table><tr><td><div>Menu Model</div></td></tr><tr><td><div>False</div></td></tr><tr><td><div>/admin/default/edit/final/models/menu.py</div></td></tr></table></div></td></tr><tr><td><div><table><tr><td><div>Config.ini</div></td></tr><tr><td><div>False</div></td></tr><tr><td><div>/admin/default/edit/final/private/appconfig.ini</div></td></tr></table></div></td></tr><tr><td><div><table><tr><td><div>Layout</div></td></tr><tr><td><div>False</div></td></tr><tr><td><div>/admin/default/edit/final/views/layout.html</div></td></tr></table></div></td></tr><tr><td><div><table><tr><td><div>Stylesheet</div></td></tr><tr><td><div>False</div></td></tr><tr><td><div>/admin/default/edit/final/static/css/web2py-bootstrap3.css</div></td></tr></table></div></td></tr><tr><td><div><table><tr><td><div>Database</div></td></tr><tr><td><div>False</div></td></tr><tr><td><div>/final/appadmin/index</div></td></tr></table></div></td></tr><tr><td><div><table><tr><td><div>Errors</div></td></tr><tr><td><div>False</div></td></tr><tr><td><div>/admin/default/errors/final</div></td></tr></table></div></td></tr><tr><td><div><table><tr><td><div>About</div></td></tr><tr><td><div>False</div></td></tr><tr><td><div>/admin/default/about/final</div></td></tr></table></div></td></tr></table></div></td></tr></table></div></td></tr><tr><td><div><table><tr><td><div>web2py.com</div></td></tr><tr><td><div>False</div></td></tr><tr><td><div>#</div></td></tr><tr><td><div><table><tr><td><div><table><tr><td><div>Download</div></td></tr><tr><td><div>False</div></td></tr><tr><td><div>http://www.web2py.com/examples/default/download</div></td></tr></table></div></td></tr><tr><td><div><table><tr><td><div>Support</div></td></tr><tr><td><div>False</div></td></tr><tr><td><div>http://www.web2py.com/examples/default/support</div></td></tr></table></div></td></tr><tr><td><div><table><tr><td><div>Demo</div></td></tr><tr><td><div>False</div></td></tr><tr><td><div>http://web2py.com/demo_admin</div></td></tr></table></div></td></tr><tr><td><div><table><tr><td><div>Quick Examples</div></td></tr><tr><td><div>False</div></td></tr><tr><td><div>http://web2py.com/examples/default/examples</div></td></tr></table></div></td></tr><tr><td><div><table><tr><td><div>FAQ</div></td></tr><tr><td><div>False</div></td></tr><tr><td><div>http://web2py.com/AlterEgo</div></td></tr></table></div></td></tr><tr><td><div><table><tr><td><div>Videos</div></td></tr><tr><td><div>False</div></td></tr><tr><td><div>http://www.web2py.com/examples/default/videos/</div></td></tr></table></div></td></tr><tr><td><div><table><tr><td><div>Free Applications</div></td></tr><tr><td><div>False</div></td></tr><tr><td><div>http://web2py.com/appliances</div></td></tr></table></div></td></tr><tr><td><div><table><tr><td><div>Plugins</div></td></tr><tr><td><div>False</div></td></tr><tr><td><div>http://web2py.com/plugins</div></td></tr></table></div></td></tr><tr><td><div><table><tr><td><div>Recipes</div></td></tr><tr><td><div>False</div></td></tr><tr><td><div>http://web2pyslices.com/</div></td></tr></table></div></td></tr></table></div></td></tr></table></div></td></tr><tr><td><div><table><tr><td><div>Documentation</div></td></tr><tr><td><div>False</div></td></tr><tr><td><div>#</div></td></tr><tr><td><div><table><tr><td><div><table><tr><td><div>Online book</div></td></tr><tr><td><div>False</div></td></tr><tr><td><div>http://www.web2py.com/book</div></td></tr></table></div></td></tr><tr><td><div><li class="divider"></li></div></td></tr><tr><td><div><table><tr><td><div>Preface</div></td></tr><tr><td><div>False</div></td></tr><tr><td><div>http://www.web2py.com/book/default/chapter/00</div></td></tr></table></div></td></tr><tr><td><div><table><tr><td><div>Introduction</div></td></tr><tr><td><div>False</div></td></tr><tr><td><div>http://www.web2py.com/book/default/chapter/01</div></td></tr></table></div></td></tr><tr><td><div><table><tr><td><div>Python</div></td></tr><tr><td><div>False</div></td></tr><tr><td><div>http://www.web2py.com/book/default/chapter/02</div></td></tr></table></div></td></tr><tr><td><div><table><tr><td><div>Overview</div></td></tr><tr><td><div>False</div></td></tr><tr><td><div>http://www.web2py.com/book/default/chapter/03</div></td></tr></table></div></td></tr><tr><td><div><table><tr><td><div>The Core</div></td></tr><tr><td><div>False</div></td></tr><tr><td><div>http://www.web2py.com/book/default/chapter/04</div></td></tr></table></div></td></tr><tr><td><div><table><tr><td><div>The Views</div></td></tr><tr><td><div>False</div></td></tr><tr><td><div>http://www.web2py.com/book/default/chapter/05</div></td></tr></table></div></td></tr><tr><td><div><table><tr><td><div>Database</div></td></tr><tr><td><div>False</div></td></tr><tr><td><div>http://www.web2py.com/book/default/chapter/06</div></td></tr></table></div></td></tr><tr><td><div><table><tr><td><div>Forms and Validators</div></td></tr><tr><td><div>False</div></td></tr><tr><td><div>http://www.web2py.com/book/default/chapter/07</div></td></tr></table></div></td></tr><tr><td><div><table><tr><td><div>Email and SMS</div></td></tr><tr><td><div>False</div></td></tr><tr><td><div>http://www.web2py.com/book/default/chapter/08</div></td></tr></table></div></td></tr><tr><td><div><table><tr><td><div>Access Control</div></td></tr><tr><td><div>False</div></td></tr><tr><td><div>http://www.web2py.com/book/default/chapter/09</div></td></tr></table></div></td></tr><tr><td><div><table><tr><td><div>Services</div></td></tr><tr><td><div>False</div></td></tr><tr><td><div>http://www.web2py.com/book/default/chapter/10</div></td></tr></table></div></td></tr><tr><td><div><table><tr><td><div>Ajax Recipes</div></td></tr><tr><td><div>False</div></td></tr><tr><td><div>http://www.web2py.com/book/default/chapter/11</div></td></tr></table></div></td></tr><tr><td><div><table><tr><td><div>Components and Plugins</div></td></tr><tr><td><div>False</div></td></tr><tr><td><div>http://www.web2py.com/book/default/chapter/12</div></td></tr></table></div></td></tr><tr><td><div><table><tr><td><div>Deployment Recipes</div></td></tr><tr><td><div>False</div></td></tr><tr><td><div>http://www.web2py.com/book/default/chapter/13</div></td></tr></table></div></td></tr><tr><td><div><table><tr><td><div>Other Recipes</div></td></tr><tr><td><div>False</div></td></tr><tr><td><div>http://www.web2py.com/book/default/chapter/14</div></td></tr></table></div></td></tr><tr><td><div><table><tr><td><div>Helping web2py</div></td></tr><tr><td><div>False</div></td></tr><tr><td><div>http://www.web2py.com/book/default/chapter/15</div></td></tr></table></div></td></tr><tr><td><div><table><tr><td><div>Buy web2py\'s book</div></td></tr><tr><td><div>False</div></td></tr><tr><td><div>http://stores.lulu.com/web2py</div></td></tr></table></div></td></tr></table></div></td></tr></table></div></td></tr><tr><td><div><table><tr><td><div>Community</div></td></tr><tr><td><div>False</div></td></tr><tr><td><div>None</div></td></tr><tr><td><div><table><tr><td><div><table><tr><td><div>Groups</div></td></tr><tr><td><div>False</div></td></tr><tr><td><div>http://www.web2py.com/examples/default/usergroups</div></td></tr></table></div></td></tr><tr><td><div><table><tr><td><div>Twitter</div></td></tr><tr><td><div>False</div></td></tr><tr><td><div>http://twitter.com/web2py</div></td></tr></table></div></td></tr><tr><td><div><table><tr><td><div>Live Chat</div></td></tr><tr><td><div>False</div></td></tr><tr><td><div>http://webchat.freenode.net/?channels=web2py</div></td></tr></table></div></td></tr></table></div></td></tr></table></div></td></tr></table></div></td></tr><tr><td style="font-weight:bold;vertical-align:top;">meta</td><td style="vertical-align:top;">:</td><td><div><table><tr><td style="font-weight:bold;vertical-align:top;">author</td><td style="vertical-align:top;">:</td><td><div>Your Name &lt;you@example.com&gt;</div></td></tr><tr><td style="font-weight:bold;vertical-align:top;">description</td><td style="vertical-align:top;">:</td><td><div>a cool new app</div></td></tr><tr><td style="font-weight:bold;vertical-align:top;">generator</td><td style="vertical-align:top;">:</td><td><div>Web2py Web Framework</div></td></tr><tr><td style="font-weight:bold;vertical-align:top;">keywords</td><td style="vertical-align:top;">:</td><td><div>web2py, python, framework</div></td></tr></table></div></td></tr><tr><td style="font-weight:bold;vertical-align:top;">models_to_run</td><td style="vertical-align:top;">:</td><td><div><table><tr><td><div>^\\w+\\.py$</div></td></tr><tr><td><div>^default/\\w+\\.py$</div></td></tr><tr><td><div>^default/fav/\\w+\\.py$</div></td></tr></table></div></td></tr><tr><td style="font-weight:bold;vertical-align:top;">postprocessing</td><td style="vertical-align:top;">:</td><td><div><table></table></div></td></tr><tr><td style="font-weight:bold;vertical-align:top;">session_client</td><td style="vertical-align:top;">:</td><td><div>127.0.0.1</div></td></tr><tr><td style="font-weight:bold;vertical-align:top;">session_cookie_compression_level</td><td style="vertical-align:top;">:</td><td><div>None</div></td></tr><tr><td style="font-weight:bold;vertical-align:top;">session_cookie_expires</td><td style="vertical-align:top;">:</td><td><div>None</div></td></tr><tr><td style="font-weight:bold;vertical-align:top;">session_cookie_key</td><td style="vertical-align:top;">:</td><td><div>None</div></td></tr><tr><td style="font-weight:bold;vertical-align:top;">session_data_name</td><td style="vertical-align:top;">:</td><td><div>session_data_final</div></td></tr><tr><td style="font-weight:bold;vertical-align:top;">session_file</td><td style="vertical-align:top;">:</td><td><div>&lt;open file &#x27;/home/abhi/Downloads/CourseMaterial/web2Py/web2py/applications/final/sessions/177/096/127.0.0.1-9bf62b76-d34d-4ad0-88b9-831cab2a4e75&#x27;, mode &#x27;rb+&#x27; at 0x7f1a8d337ed0&gt;</div></td></tr><tr><td style="font-weight:bold;vertical-align:top;">session_filename</td><td style="vertical-align:top;">:</td><td><div>/home/abhi/Downloads/CourseMaterial/web2Py/web2py/applications/final/sessions/127.0.0.1-9bf62b76-d34d-4ad0-88b9-831cab2a4e75</div></td></tr><tr><td style="font-weight:bold;vertical-align:top;">session_hash</td><td style="vertical-align:top;">:</td><td><div>205591f5a9571a301c3cf9ac7db502a6</div></td></tr><tr><td style="font-weight:bold;vertical-align:top;">session_id</td><td style="vertical-align:top;">:</td><td><div>127.0.0.1-9bf62b76-d34d-4ad0-88b9-831cab2a4e75</div></td></tr><tr><td style="font-weight:bold;vertical-align:top;">session_id_name</td><td style="vertical-align:top;">:</td><td><div>session_id_final</div></td></tr><tr><td style="font-weight:bold;vertical-align:top;">session_locked</td><td style="vertical-align:top;">:</td><td><div>True</div></td></tr><tr><td style="font-weight:bold;vertical-align:top;">session_masterapp</td><td style="vertical-align:top;">:</td><td><div>final</div></td></tr><tr><td style="font-weight:bold;vertical-align:top;">session_new</td><td style="vertical-align:top;">:</td><td><div>False</div></td></tr><tr><td style="font-weight:bold;vertical-align:top;">session_storage_type</td><td style="vertical-align:top;">:</td><td><div>file</div></td></tr><tr><td style="font-weight:bold;vertical-align:top;">status</td><td style="vertical-align:top;">:</td><td><div>200</div></td></tr><tr><td style="font-weight:bold;vertical-align:top;">subtitle</td><td style="vertical-align:top;">:</td><td><div></div></td></tr><tr><td style="font-weight:bold;vertical-align:top;">title</td><td style="vertical-align:top;">:</td><td><div>Final</div></td></tr><tr><td style="font-weight:bold;vertical-align:top;">view</td><td style="vertical-align:top;">:</td><td><div>default/fav.html</div></td></tr></table></div>'
tRp264
sS'locals'
p265
(dp266
S'tables'
p267
S'<bound method SQLiteAdapter.tables of <pydal.adapters.sqlite.SQLiteAdapter object>>'
p268
sS'fields'
p269
S'[<built-in function id>]'
p270
sS'self'
p271
S'<pydal.adapters.sqlite.SQLiteAdapter object>'
p272
sS'field'
p273
S'<built-in function id>'
p274
sS'tablenames'
p275
S'[]'
p276
sS'tablenames_for_common_filters'
p277
S'[]'
p278
sS'query'
p279
S'None'
p280
sS'attributes'
p281
S"{'groupby': <pydal.objects.Field object>}"
p282
sS'args_get'
p283
S'<built-in method get of dict object>'
p284
sssS'traceback'
p285
S'Traceback (most recent call last):\n  File "/home/abhi/Downloads/CourseMaterial/web2Py/web2py/gluon/restricted.py", line 227, in restricted\n    exec ccode in environment\n  File "/home/abhi/Downloads/CourseMaterial/web2Py/web2py/applications/final/controllers/default.py", line 453, in <module>\n  File "/home/abhi/Downloads/CourseMaterial/web2Py/web2py/gluon/globals.py", line 412, in <lambda>\n    self._caller = lambda f: f()\n  File "/home/abhi/Downloads/CourseMaterial/web2Py/web2py/applications/final/controllers/default.py", line 316, in fav\n    result=db().select(id,groupby=db.fav.songs1)\n  File "/home/abhi/Downloads/CourseMaterial/web2Py/web2py/gluon/packages/dal/pydal/objects.py", line 2002, in select\n    return adapter.select(self.query,fields,attributes)\n  File "/home/abhi/Downloads/CourseMaterial/web2Py/web2py/gluon/packages/dal/pydal/adapters/sqlite.py", line 122, in select\n    return super(SQLiteAdapter, self).select(query, fields, attributes)\n  File "/home/abhi/Downloads/CourseMaterial/web2Py/web2py/gluon/packages/dal/pydal/adapters/base.py", line 1273, in select\n    sql = self._select(query, fields, attributes)\n  File "/home/abhi/Downloads/CourseMaterial/web2Py/web2py/gluon/packages/dal/pydal/adapters/base.py", line 1094, in _select\n    raise SyntaxError(\'Set: no tables selected\')\nSyntaxError: Set: no tables selected\n'
p286
s.