(dp1
S'output'
p2
S"<class 'requests.exceptions.HTTPError'> 404 Client Error: Not Found"
p3
sS'layer'
p4
S'/home/abhi/Downloads/CourseMaterial/web2Py/web2py/applications/final/views/default/see.html'
p5
sS'code'
p6
S'response.write(\'<!DOCTYPE html>\\n<html lang="en">\\n  <head>\\n    <meta charset="utf-8">\\n    <meta name="viewport" content="width=device-width, initial-scale=1.0">\\n    <meta name="description" content="Creative - Bootstrap 3 Responsive Admin Template">\\n    <meta name="author" content="GeeksLabs">\\n    <meta name="keyword" content="Creative, Dashboard, Admin, Template, Theme, Bootstrap, Responsive, Retina, Minimal">\\n    <link rel="shortcut icon" href="img/favicon.png">\\n\\n    <title>Total Entertainment</title>\\n    <link href="\', escape=False)\nresponse.write(URL(\'static\',\'css/bootstrap.min.css\'))\nresponse.write(\'" rel="stylesheet">\\n    <!-- bootstrap theme -->\\n    <link href="\', escape=False)\nresponse.write(URL(\'static\',\'css/bootstrap-theme.css\'))\nresponse.write(\'" rel="stylesheet">\\n    <!--external css-->\\n    <!-- font icon -->\\n    <link href="\', escape=False)\nresponse.write(URL(\'static\',\'css/elegant-icons-style.css\'))\nresponse.write(\'" rel="stylesheet" />\\n    <link href="\', escape=False)\nresponse.write(URL(\'static\',\'css/font-awesome.min.css\'))\nresponse.write(\'" rel="stylesheet" />\\n    <!-- owl carousel -->\\n   <!-- <link rel="stylesheet" href="\', escape=False)\nresponse.write(URL(\'static\',\'css/owl.carousel.css\'))\nresponse.write(\'" type="text/css">-->\\n  <link href="\', escape=False)\nresponse.write(URL(\'static\',\'css/jquery-jvectormap-1.2.2.css\'))\nresponse.write(\'" rel="stylesheet">\\n    <!-- Custom styles -->\\n  <link rel="stylesheet" href="\', escape=False)\nresponse.write(URL(\'static\',\'css/fullcalendar.css\'))\nresponse.write(\'">\\n  <link href="\', escape=False)\nresponse.write(URL(\'static\',\'css/widgets.css\'))\nresponse.write(\'" rel="stylesheet">\\n    <link href="\', escape=False)\nresponse.write(URL(\'static\',\'css/style.css\'))\nresponse.write(\'" rel="stylesheet">\\n    <link href="\', escape=False)\nresponse.write(URL(\'static\',\'css/style-responsive.css\'))\nresponse.write(\'" rel="stylesheet" />\\n  <link href="\', escape=False)\nresponse.write(URL(\'static\',\'css/xcharts.min.css\'))\nresponse.write(\'" rel=" stylesheet">  \\n  <link href="\', escape=False)\nresponse.write(URL(\'static\',\'css/jquery-ui-1.10.4.min.css\'))\nresponse.write(\'" rel="stylesheet">\\n  <link rel="stylesheet" type="text/css" href="\', escape=False)\nresponse.write(URL(\'static\',\'css/bootstrap-select.css\'))\nresponse.write(\'">\\n    <script type="text/javascript" src="\', escape=False)\nresponse.write(URL(\'static\',\'js/jquery-1.9.1.min.js\'))\nresponse.write(\'"></script>\\n    <script type="text/javascript" src="\', escape=False)\nresponse.write(URL(\'static\',\'js/jssor.slider.mini.js\'))\nresponse.write(\'"></script>\\n    <script type="text/javascript" src="\', escape=False)\nresponse.write(URL(\'static\',\'js/web2py.js\'))\nresponse.write(\'"></script>\\n        <script type="text/javascript" src="\', escape=False)\nresponse.write(URL(\'static\',\'js/bootstrap-select.js\'))\nresponse.write(\'"></script>\\n \\n\\n\\n<head>\\n  <style type="text/css">\\n    .rating {\\n    float:left;\\n}\\n\\n/* :not(:checked) is a filter, so that browsers that don\\xe2\\x80\\x99t support :checked don\\xe2\\x80\\x99t \\n   follow these rules. Every browser that supports :checked also supports :not(), so\\n   it doesn\\xe2\\x80\\x99t make the test unnecessarily selective */\\n.rating:not(:checked) > input {\\n    position:absolute;\\n    top:-9999px;\\n    clip:rect(0,0,0,0);\\n}\\n\\n.rating:not(:checked) > label {\\n    float:right;\\n    width:1.172em;\\n    padding:0 .1em;\\n    overflow:hidden;\\n    white-space:nowrap;\\n    cursor:pointer;\\n    font-size:200%;\\n    line-height:1.2;\\n    color:#ddd;\\n    text-shadow:1px 1px #bbb, 2px 2px #666, .1em .1em .2em rgba(0,0,0,.5);\\n}\\n\\n.rating:not(:checked) > label:before {\\n    content: "\\\\2605";\\n}\\n\\n.rating > input:checked ~ label {\\n    color: #f70;\\n    text-shadow:1px 1px #c60, 2px 2px #940, .1em .1em .2em rgba(0,0,0,.5);\\n}\\n\\n.rating:not(:checked) > label:hover,\\n.rating:not(:checked) > label:hover ~ label {\\n    color: gold;\\n    text-shadow:1px 1px goldenrod, 2px 2px #B57340, .1em .1em .2em rgba(0,0,0,.5);\\n}\\n\\n.rating > input:checked + label:hover,\\n.rating > input:checked + label:hover ~ label,\\n.rating > input:checked ~ label:hover,\\n.rating > input:checked ~ label:hover ~ label,\\n.rating > label:hover ~ input:checked ~ label {\\n    color: #ea0;\\n    text-shadow:1px 1px goldenrod, 2px 2px #B57340, .1em .1em .2em rgba(0,0,0,.5);\\n}\\n\\n.rating > label:active {\\n    position:relative;\\n    top:2px;\\n    left:2px;\\n}\\n  </style>\\n\\n\\n\\n\\n  </head>\\n\\n  <body>\\n  <!-- container section start -->\\n\\n\\n    <script>\\n        jQuery(document).ready(function ($) {\\n            \\n            var jssor_1_options = {\\n              $AutoPlay: true,\\n              $AutoPlaySteps: 3,\\n              $SlideDuration: 200,\\n              $SlideWidth: 132,\\n              $SlideSpacing: 2,\\n              $Cols: 6,\\n              $ArrowNavigatorOptions: {\\n                $Class: $JssorArrowNavigator$,\\n                $Steps: 4\\n              },\\n              $BulletNavigatorOptions: {\\n                $Class: $JssorBulletNavigator$,\\n                $SpacingX: 1,\\n                $SpacingY: 1\\n              }\\n            };\\n            \\n            var jssor_1_slider = new $JssorSlider$("jssor_1", jssor_1_options);\\n            \\n            //responsive code begin\\n            //you can remove responsive code if you don\\\'t want the slider scales while window resizes\\n            function ScaleSlider() {\\n                var refSize = jssor_1_slider.$Elmt.parentNode.clientWidth;\\n                if (refSize) {\\n                    refSize = Math.min(refSize, 1300);\\n                    jssor_1_slider.$ScaleWidth(refSize);\\n                }\\n                else {\\n                    window.setTimeout(ScaleSlider, 30);\\n                }\\n            }\\n            ScaleSlider();\\n            $(window).bind("load", ScaleSlider);\\n            $(window).bind("resize", ScaleSlider);\\n            $(window).bind("orientationchange", ScaleSlider);\\n            //responsive code end\\n        });\\n    </script>\\n\\n    <style>\\n        \\n        /* jssor slider bullet navigator skin 03 css */\\n        /*\\n        .jssorb03 div           (normal)\\n        .jssorb03 div:hover     (normal mouseover)\\n        .jssorb03 .av           (active)\\n        .jssorb03 .av:hover     (active mouseover)\\n        .jssorb03 .dn           (mousedown)\\n        */\\n        .jssorb03 {\\n            position: absolute;\\n        }\\n        .jssorb03 div, .jssorb03 div:hover, .jssorb03 .av {\\n            position: absolute;\\n            /* size of bullet elment */\\n            width: 21px;\\n            height: 21px;\\n            text-align: center;\\n            line-height: 21px;\\n            color: white;\\n            font-size: 12px;\\n            background: url(\', escape=False)\nresponse.write(URL(\'static\',\'img/b03.png\'))\nresponse.write(\') no-repeat;\\n            overflow: hidden;\\n            cursor: pointer;\\n        }\\n        .jssorb03 div { background-position: -5px -4px; }\\n        .jssorb03 div:hover, .jssorb03 .av:hover { background-position: -35px -4px; }\\n        .jssorb03 .av { background-position: -65px -4px; }\\n        .jssorb03 .dn, .jssorb03 .dn:hover { background-position: -95px -4px; }\\n\\n        /* jssor slider arrow navigator skin 03 css */\\n        /*\\n        .jssora03l                  (normal)\\n        .jssora03r                  (normal)\\n        .jssora03l:hover            (normal mouseover)\\n        .jssora03r:hover            (normal mouseover)\\n        .jssora03l.jssora03ldn      (mousedown)\\n        .jssora03r.jssora03rdn      (mousedown)\\n        */\\n        .jssora03l, .jssora03r {\\n            display: block;\\n            position: absolute;\\n            /* size of arrow element */\\n            width: 55px;\\n            height: 55px;\\n            cursor: pointer;\\n            background: url(\', escape=False)\nresponse.write(URL(\'static\',\'img/a03.png\'))\nresponse.write(\') no-repeat;\\n            overflow: hidden;\\n        }\\n        .jssora03l { background-position: -3px -33px; }\\n        .jssora03r { background-position: -63px -33px; }\\n        .jssora03l:hover { background-position: -123px -33px; }\\n        .jssora03r:hover { background-position: -183px -33px; }\\n        .jssora03l.jssora03ldn { background-position: -243px -33px; }\\n        .jssora03r.jssora03rdn { background-position: -303px -33px; }\\n    </style>\\n\\n\\n\\n\\n\\n\\n\\n\\n\\n\\n\\n\\n\\n  <section id="container" class="">\\n     \\n      \\n      <header class="header my-green-bg">\\n            <div class="toggle-nav">\\n                <div class="icon-reorder tooltips" data-original-title="Toggle Navigation" data-placement="bottom"></div>\\n            </div>\\n\\n            <!--logo start-->\\n            <a href="\', escape=False)\nresponse.write(URL(\'index.html\'))\nresponse.write(\'" class="logo"><strong>total&nbsp;&nbsp;&nbsp;<span class="lite">entertainment</span></strong></a>\\n            <!--logo end-->\\n\\n            <div class="nav search-row" id="top_menu">\\n                <!--  search form start -->\\n                <ul class="nav top-menu">                    \\n                    <li>\\n                        <form class="navbar-form" action="#" enctype="multipart/form-data" method="post">\\n                            <input class="form-control" placeholder="Search for your favourite Songs and Videos" type="text" name="query">\\n                            \\n                        <select name="option" class = "selectpicker" data-style = "btn-primary" value="5">\\n                            <option value="V">Video</option>\\n                            <option value="A">Audio</option>\\n                        </select>\\n                            <div style="display:none;">\\n                              <input name="_formkey" type="hidden" value="\', escape=False)\nresponse.write(form.formkey)\nresponse.write(\'" />\\n                              <input name="_formname" type="hidden" value="no_table/create" />\\n                            </div>\\n                        </form>\\n                    </li>                    \\n                </ul>\\n                <!--  search form end -->                \\n            </div>\\n            <div class="top-nav notification-row">                \\n                <!-- notificatoin dropdown start-->\\n                <ul class="nav pull-right top-menu">\\n                    \\n                    <!-- user login dropdown start-->\\n                    \\n                    <li class="dropdown">\\n                    \', escape=False)\nif auth.is_logged_in():\n    response.write(\'\\n                        <a data-toggle="dropdown" class="dropdown-toggle" href="#">\\n                            <span class="profile-ava">\\n                                <img alt="" src="\', escape=False)\n    response.write(URL(\'static\',\'images/avatar-mini2.jpg\'))\n    response.write(\'">\\n                            </span>\\n                            <span class="username">Yo \', escape=False)\n    response.write(auth.user.first_name)\n    response.write(\'&nbsp;<strong>!</strong></span>\\n                            <b class="caret"></b>\\n                        </a>\\n\\n                        <ul class="dropdown-menu extended logout">\\n                            <div class="log-arrow-up"></div>\\n                            <li class="eborder-top">\\n                                <a href="\', escape=False)\n    response.write(URL(\'default\',\'user/register\'))\n    response.write(\'"><i class="icon_profile"></i> My Profile</a>\\n                            </li>\\n                            <li>\\n                                <a href="\', escape=False)\n    response.write(URL(\'default\',\'user/register\'))\n    response.write(\'"><i class="icon_mail_alt"></i> My Favourite</a>\\n                            </li>\\n                            <li>\\n                                <a href="\', escape=False)\n    response.write(URL(\'default\',\'user/logout\'))\n    response.write(\'"><i class="icon_clock_alt"></i> Logout</a>\\n                            </li>\\n                        </ul>\\n                      \', escape=False)\nelse:\n    response.write(\'\\n                      <a data-toggle="dropdown" class="dropdown-toggle" href="#">\\n                          <!--  <span class="profile-ava">-->\\n                                <img alt="" src="\', escape=False)\n    response.write(URL(\'static\',\'images/key.png\'))\n    response.write(\'">\\n                          <!--  </span> -->\\n                            <span class="username">LogIn</span>\\n                            <b class="caret"></b>\\n                        </a>\\n                      <ul class="dropdown-menu extended logout">\\n                            <div class="log-arrow-up"></div>\\n                            <li class="eborder-top">\\n                                <a href="\', escape=False)\n    response.write(URL(\'user.html\'))\n    response.write(\'"><i class="icon_profile"></i>Log In</a>\\n                            </li>\\n                            <li>\\n                                <a href="\', escape=False)\n    response.write(URL(\'default\',\'user/register\'))\n    response.write(\'"><i class="icon_mail_alt"></i>Register</a>\\n                            </li>\\n                            <li>\\n                                <a href="\', escape=False)\n    response.write(URL(\'default\',\'user/request_reset_password\'))\n    response.write(\'"><i class="icon_clock_alt"></i>Forgot Password</a>\\n                            </li>\\n                       </ul> \\n                      \', escape=False)\n    pass\nresponse.write(\'\\n                    </li>\\n                    <!-- user login dropdown end -->\\n                </ul>\\n                <!-- notificatoin dropdown end-->\\n            </div>\\n      </header>      \\n      <!--header end-->\\n\\n      <!--sidebar start-->\\n        <aside>\\n          <div id="sidebar"  class="nav-collapse ">\\n              <!-- sidebar menu start-->\\n              <ul class="sidebar-menu">                \\n                  <li class="active">\\n                      <a class="" href="\', escape=False)\nresponse.write(URL(\'default\',\'index.html\'))\nresponse.write(\'">\\n                          <i class="icon_house_alt"></i>\\n                          <span>Welcome </span>\\n                      </a>\\n                  </li>\\n          <li class="sub-menu">\\n                      <a href="javascript:;" class="">\\n                          <i class="fa fa-heart"></i>\\n                          <span>Favourite</span>\\n                          <span class="menu-arrow arrow_carrot-right"></span>\\n                      </a>\\n                      <ul class="sub">\\n                          <li><a class="" href="\', escape=False)\nresponse.write(URL(\'default\',\'favsong.html\'))\nresponse.write(\'">Songs</a></li>                          \\n                          <li><a class="" href="\', escape=False)\nresponse.write(URL(\'default\',\'favideo.html\'))\nresponse.write(\'">Videos</a></li>\\n                      </ul>\\n                  </li>       \\n                  <li class="sub-menu">\\n                      <a href="javascript:;" class="">\\n                          <i class="icon_desktop"></i>\\n                          <span>Playlists</span>\\n                          <span class="menu-arrow arrow_carrot-right"></span>\\n                      </a>\\n                      <ul class="sub">\\n                          <li><a class="" href="general.html">Create</a></li>\\n                          <li><a class="" href="buttons.html">Your Playlist1</a></li>\\n                          <li><a class="" href="\', escape=False)\nresponse.write(URL(\'default\',\'spons_playlist.html\'))\nresponse.write(\'">Sponsered</a></li>\\n                      </ul>\\n                  </li>\\n                  <li>\\n                      <a class="" href="\', escape=False)\nresponse.write(URL(\'default\',\'widgets.html\'))\nresponse.write(\'">\\n                          <i class="icon_genius"></i>\\n                          <span>See All</span>\\n                      </a>\\n                  </li>\\n                  <li>                     \\n                      <a class="" href="chart-chartjs.html">\\n                          <i class="fa fa-music"></i>\\n                          <span>Top Charts</span>\\n                          \\n                      </a>\\n                                         \\n                  </li>\\n                             \\n                  <li class="sub-menu">\\n                      <a href="javascript:;" class="">\\n                          <i class="icon_table"></i>\\n                          <span>Discover</span>\\n                          <span class="menu-arrow arrow_carrot-right"></span>\\n                      </a>\\n                      <ul class="sub">\\n                       <li><a class="" href="\', escape=False)\nresponse.write(URL(\'create.html\'))\nresponse.write(\'">Create</a></li>\\n                          <li><a class="" href="\', escape=False)\nresponse.write(URL(\'list.html\'))\nresponse.write(\'">Your Playlist1</a></li>\\n                          <li><a class="" href="\', escape=False)\nresponse.write(URL(\'spons_playlist.html\'))\nresponse.write(\'">Sponsered</a></li>\\n                      </ul>\\n                  </li>\\n                  \\n                  <li class="sub-menu">\\n                      <a href="javascript:;" class="">\\n                          <i class="icon_documents_alt"></i>\\n                          <span>My Profile</span>\\n                          <span class="menu-arrow arrow_carrot-right"></span>\\n                      </a>\\n                      <ul class="sub">                          \\n                          <li><a class="" href="profile.html">Profile</a></li>\\n                          <li><a class="" href="login.html"><span>My History</span></a></li>\\n                          <li><a class="" href="404.html">My Uploads</a></li>\\n                      </ul>\\n                  </li>\\n                  \\n              </ul>\\n              <!-- sidebar menu end-->\\n          </div>\\n      </aside>\\n     <!--sidebar end-->\\n      \\n      <!--main content start-->\\n      <section id="main-content">\\n          <section class="wrapper">            \\n              <!--overview start-->\\n              <!--\\n           <div class="row">\\n        <div class="col-lg-3 col-md-3 col-sm-12 col-xs-12"><a href="">\\n          <div class="info-box blue-bg boxes">\\n            <i class="fa fa-music"></i>\\n            <div class="count">New</div>\\n            <div class="title">Albums</div>\\n          </div>\\n        </div>\\n        </a>\\n        \\n        <div class="col-lg-3 col-md-3 col-sm-12 col-xs-12"><a href="">\\n          <div class="info-box brown-bg boxes">\\n            <i class="fa fa-upload"></i>\\n            <div class="count">My</div>\\n            <div class="title">Uploads</div>            \\n          </div>\\n        </div>\\n        </a>\\n        \\n        <div class="col-lg-3 col-md-3 col-sm-12 col-xs-12"><a href="">\\n          <div class="info-box dark-bg boxes">\\n            <i class="fa fa-thumbs-o-up"></i>\\n            <div class="count">Most</div>\\n            <div class="title">Rated</div>            \\n          </div>\\n        </div>\\n        </a>\\n        \\n        <div class="col-lg-3 col-md-3 col-sm-12 col-xs-12"><a href="">\\n          <div class="info-box green-bg boxes">\\n            <i class="fa fa-play-circle-o"></i>\\n            <div class="count">Live</div>\\n            <div class="title">Radio</div>            \\n          </div>\\n        </div>\\n        </a>\\n        \\n      </div>\\n        -->\\n<h1>\', escape=False)\nresponse.write(song.title)\nresponse.write(\'\\n</h1>\\n<h2>\\n\', escape=False)\nif song.category==\'Audio\':\n    response.write(\'\\n<!--<audio controls><div width="50%">\\n                <source src=\', escape=False)\n    #=song.url\n    response.write(\' type="audio/mpeg">\\n                \', escape=False)\n    #print song.url\n    response.write(\'\\n                Your browser does not support the audio tag.</div>\\n            </audio>  -->\\n    <div id="1">\\n    \', escape=False)\n    import soundcloud\n    response.write(\'\\n    \', escape=False)\n    client = soundcloud.Client(client_id=\'f4e257503f0990527a6e17e14158076e\')\n    response.write(\'\\n    \', escape=False)\n    url=song.url\n    response.write(\'\\n    \', escape=False)\n    embed_info = client.get(\'/oembed\', url=url)\n    response.write(\'\\n    \', escape=False)\n    response.write(XML(embed_info.html))\n    response.write(\'\\n    </div>\\n\', escape=False)\nelse:\n    response.write(\'\\n<div id="player" class = "col-xs-8"></div>\\n\\n    <script>\\n      // 2. This code loads the IFrame Player API code asynchronously.\\n      var tag = document.createElement(\\\'script\\\');\\n\\n      tag.src = "https://www.youtube.com/iframe_api";\\n      var firstScriptTag = document.getElementsByTagName(\\\'script\\\')[0];\\n      firstScriptTag.parentNode.insertBefore(tag, firstScriptTag);\\n\\n      // 3. This function creates an <iframe> (and YouTube player)\\n      //    after the API code downloads.\\n      var player;\\n      function onYouTubeIframeAPIReady() {\\n        player = new YT.Player(\\\'player\\\', {\\n          height: \\\'390\\\',\\n          width: \\\'640\\\',\\n          videoId: \\\'\', escape=False)\n    response.write(song.url)\n    response.write("\',\\n          events: {\\n            \'onReady\': onPlayerReady,\\n            \'onStateChange\': onPlayerStateChange\\n          }\\n        });\\n      }\\n\\n      // 4. The API will call this function when the video player is ready.\\n      function onPlayerReady(event) {\\n        event.target.playVideo();\\n      }\\n\\n      // 5. The API calls this function when the player\'s state changes.\\n      //    The function indicates that when playing a video (state=1),\\n      //    the player should play for six seconds and then stop.\\n      var done = false;\\n      function onPlayerStateChange(event) {\\n        if (event.data == YT.PlayerState.PLAYING && !done) {\\n          //setTimeout(stopVideo, 6000);\\n          done = true;\\n        }\\n      }\\n      function stopVideo() {\\n        player.stopVideo();\\n      }\\n    </script>\\n", escape=False)\n    pass\nresponse.write(\'\\n\\n<fieldset class="rating">\\n    <legend>Please rate:</legend>\\n    <input type="radio" id="star5" name="rating" value="5" /><label for="star5" title="Rocks!">5 stars</label>\\n    <input type="radio" id="star4" name="rating" value="4" /><label for="star4" title="Pretty good">4 stars</label>\\n    <input type="radio" id="star3" name="rating" value="3" /><label for="star3" title="Meh">3 stars</label>\\n    <input type="radio" id="star2" name="rating" value="2" /><label for="star2" title="Kinda bad">2 stars</label>\\n    <input type="radio" id="star1" name="rating" value="1" /><label for="star1" title="Sucks big time">1 star</label>\\n</fieldset>\\n\\n<div style="padding-top:10%;">\\n\', escape=False)\nresponse.write(A(\'Click here \', _href=URL(\'mark_favourite\',args=song.id)))\nresponse.write(\'&nbsp;to Mark it as favourite</div>\\n</h2>\\n<div class="col-xs-6">\\n<h3>\\nLikes <span id="likes">\', escape=False)\nresponse.write(Likes)\nresponse.write(\'</span>\\n<button type="button" class="btn btn-warning" onclick="ajax(\\\'\', escape=False)\nresponse.write(URL(\'vote\',args=(song.id)))\nresponse.write(\'\\\',[],\\\'likes\\\')">\\n  Like\\n</button>\\n</h3>\\n\', escape=False)\nfor comment in comments:\n    response.write(\'\\n<br>\\n<strong>\', escape=False)\n    response.write(comment.created_by.first_name)\n    response.write(\'</strong> said <i>\', escape=False)\n    #prettydate(comment.created_on)\n    response.write(\'</i><br>\\n&nbsp;&nbsp;&nbsp;&nbsp;&nbsp;&nbsp;&nbsp;&nbsp;&nbsp;\', escape=False)\n    response.write(comment.body)\n    response.write(\'\\n\', escape=False)\n    pass\nresponse.write(\'\\n<h4>\\n\', escape=False)\nresponse.write(formcmnt)\nresponse.write(\'\\n</h4>\\n\\n\\n              <!-- project team & activity start -->\\n          \\n              <!-- project team & activity end -->\\n</div>\\n          </section>\\n      </section>\\n      <!--main content end-->\\n  </section>\\n\\n\\n\\n\\n\\n\\n\\n\\n\\n\\n\\n  <!-- container section start -->\\n\\n    <!-- javascripts -->\\n        <!-- javascripts -->\\n    <script src="\', escape=False)\nresponse.write(URL(\'static\',\'js/jquery.js\'))\nresponse.write(\'"></script>\\n  <script src="\', escape=False)\nresponse.write(URL(\'static\',\'js/jquery-ui-1.10.4.min.js\'))\nresponse.write(\'"></script>\\n    <script src="\', escape=False)\nresponse.write(URL(\'static\',\'js/jquery-1.8.3.min.js\'))\nresponse.write(\'"></script>\\n    <script type="text/javascript" src="\', escape=False)\nresponse.write(URL(\'static\',\'js/jquery-ui-1.9.2.custom.min.js\'))\nresponse.write(\'"></script>\\n    <script type="text/javascript" src="\', escape=False)\nresponse.write(URL(\'static\',\'js/bootbox.js\'))\nresponse.write(\'"></script>\\n    <!-- bootstrap -->\\n    <script src="\', escape=False)\nresponse.write(URL(\'static\',\'js/bootstrap.min.js\'))\nresponse.write(\'"></script>\\n    <!-- nice scroll -->\\n    <script src="\', escape=False)\nresponse.write(URL(\'static\',\'js/jquery.scrollTo.min.js\'))\nresponse.write(\'"></script>\\n    <script src="\', escape=False)\nresponse.write(URL(\'static\',\'js/jquery.nicescroll.js\'))\nresponse.write(\'" type="text/javascript"></script>\\n    <!-- charts scripts -->\\n    <script src="\', escape=False)\nresponse.write(URL(\'static\',\'js/jquery.sparkline.js\'))\nresponse.write(\'" type="text/javascript"></script>\\n  <script src="\', escape=False)\nresponse.write(URL(\'static\',\'js/jquery.rateit.min.js\'))\nresponse.write(\'"></script>\\n    <!-- custom select -->\\n    <script src="\', escape=False)\nresponse.write(URL(\'static\',\'js/jquery.customSelect.min.js\'))\nresponse.write(\'" ></script>\\n    <!--custome script for all page-->\\n    <script src="\', escape=False)\nresponse.write(URL(\'static\',\'js/scripts.js\'))\nresponse.write(\'"></script>\\n    <!-- custom script for this page-->\\n    <script src="\', escape=False)\nresponse.write(URL(\'static\',\'js/sparkline-chart.js\'))\nresponse.write(\'"></script>\\n  <script src="\', escape=False)\nresponse.write(URL(\'static\',\'js/jquery-jvectormap-1.2.2.min.js\'))\nresponse.write(\'"></script>\\n  <script src="\', escape=False)\nresponse.write(URL(\'static\',\'js/jquery-jvectormap-world-mill-en.js\'))\nresponse.write(\'"></script>\\n  <script src="\', escape=False)\nresponse.write(URL(\'static\',\'js/xcharts.min.js\'))\nresponse.write(\'"></script>\\n  <script src="\', escape=False)\nresponse.write(URL(\'static\',\'js/jquery.autosize.min.js\'))\nresponse.write(\'"></script>\\n  <script src="\', escape=False)\nresponse.write(URL(\'static\',\'js/jquery.placeholder.min.js\'))\nresponse.write(\'"></script>\\n  <script src="\', escape=False)\nresponse.write(URL(\'static\',\'js/gdp-data.js\'))\nresponse.write(\'"></script> \\n  <script src="\', escape=False)\nresponse.write(URL(\'static\',\'js/morris.min.js\'))\nresponse.write(\'"></script>\\n  <script src="\', escape=False)\nresponse.write(URL(\'static\',\'js/sparklines.js\'))\nresponse.write(\'"></script> \\n  <script src="\', escape=False)\nresponse.write(URL(\'static\',\'js/charts.js\'))\nresponse.write(\'"></script>\\n  <script src="\', escape=False)\nresponse.write(URL(\'static\',\'js/jquery.slimscroll.min.js\'))\nresponse.write(\'"></script>\\n\\n  </body>\\n</html>\', escape=False)'
p7
sS'snapshot'
p8
(dp9
S'exception'
p10
(dp11
S'__module__'
p12
S"'requests.exceptions'"
p13
sS'__getslice__'
p14
S"<method-wrapper '__getslice__' of HTTPError object>"
p15
sS'__str__'
p16
S"<method-wrapper '__str__' of HTTPError object>"
p17
sS'__reduce__'
p18
S'<built-in method __reduce__ of HTTPError object>'
p19
sS'__dict__'
p20
S"{'response': <Response [404]>}"
p21
sS'__sizeof__'
p22
S'<built-in method __sizeof__ of HTTPError object>'
p23
sS'__weakref__'
p24
S'None'
p25
sS'__init__'
p26
S"<bound method HTTPError.__init__ of HTTPError('404 Client Error: Not Found',)>"
p27
sS'__setattr__'
p28
S"<method-wrapper '__setattr__' of HTTPError object>"
p29
sS'__reduce_ex__'
p30
S'<built-in method __reduce_ex__ of HTTPError object>'
p31
sS'__new__'
p32
S'<built-in method __new__ of type object>'
p33
sS'errno'
p34
S'None'
p35
sS'__format__'
p36
S'<built-in method __format__ of HTTPError object>'
p37
sS'__class__'
p38
S"<class 'requests.exceptions.HTTPError'>"
p39
sS'filename'
p40
S'None'
p41
sS'__doc__'
p42
S"'An HTTP error occurred.'"
p43
sS'__getitem__'
p44
S"<method-wrapper '__getitem__' of HTTPError object>"
p45
sS'__setstate__'
p46
S'<built-in method __setstate__ of HTTPError object>'
p47
sS'__getattribute__'
p48
S"<method-wrapper '__getattribute__' of HTTPError object>"
p49
sS'args'
p50
S"('404 Client Error: Not Found',)"
p51
sS'__subclasshook__'
p52
S'<built-in method __subclasshook__ of type object>'
p53
sS'response'
p54
S'<Response [404]>'
p55
sS'__unicode__'
p56
S'<built-in method __unicode__ of HTTPError object>'
p57
sS'strerror'
p58
S'None'
p59
sS'__delattr__'
p60
S"<method-wrapper '__delattr__' of HTTPError object>"
p61
sS'__repr__'
p62
S"<method-wrapper '__repr__' of HTTPError object>"
p63
sS'__hash__'
p64
S"<method-wrapper '__hash__' of HTTPError object>"
p65
ssS'evalue'
p66
S'404 Client Error: Not Found'
p67
sS'request'
p68
cgluon.html
XML_unpickle
p69
(S's\x1dh\x00\x00<div><table><tr><td style="font-weight:bold;vertical-align:top;">ajax</td><td style="vertical-align:top;">:</td><td><div>False</div></td></tr><tr><td style="font-weight:bold;vertical-align:top;">application</td><td style="vertical-align:top;">:</td><td><div>final</div></td></tr><tr><td style="font-weight:bold;vertical-align:top;">args</td><td style="vertical-align:top;">:</td><td><div><table><tr><td><div>7</div></td></tr></table></div></td></tr><tr><td style="font-weight:bold;vertical-align:top;">cid</td><td style="vertical-align:top;">:</td><td><div>None</div></td></tr><tr><td style="font-weight:bold;vertical-align:top;">client</td><td style="vertical-align:top;">:</td><td><div>127.0.0.1</div></td></tr><tr><td style="font-weight:bold;vertical-align:top;">controller</td><td style="vertical-align:top;">:</td><td><div>default</div></td></tr><tr><td style="font-weight:bold;vertical-align:top;">cookies</td><td style="vertical-align:top;">:</td><td><div><table><tr><td style="font-weight:bold;vertical-align:top;">session_id_admin</td><td style="vertical-align:top;">:</td><td><div>127.0.0.1-144f05f8-0628-4f43-beef-3d0df169978f<table><tr><td style="font-weight:bold;vertical-align:top;">comment</td><td style="vertical-align:top;">:</td><td><div></div></td></tr><tr><td style="font-weight:bold;vertical-align:top;">domain</td><td style="vertical-align:top;">:</td><td><div></div></td></tr><tr><td style="font-weight:bold;vertical-align:top;">expires</td><td style="vertical-align:top;">:</td><td><div></div></td></tr><tr><td style="font-weight:bold;vertical-align:top;">httponly</td><td style="vertical-align:top;">:</td><td><div></div></td></tr><tr><td style="font-weight:bold;vertical-align:top;">max-age</td><td style="vertical-align:top;">:</td><td><div></div></td></tr><tr><td style="font-weight:bold;vertical-align:top;">path</td><td style="vertical-align:top;">:</td><td><div></div></td></tr><tr><td style="font-weight:bold;vertical-align:top;">secure</td><td style="vertical-align:top;">:</td><td><div></div></td></tr><tr><td style="font-weight:bold;vertical-align:top;">version</td><td style="vertical-align:top;">:</td><td><div></div></td></tr></table></div></td></tr><tr><td style="font-weight:bold;vertical-align:top;">session_id_final</td><td style="vertical-align:top;">:</td><td><div>127.0.0.1-452eaeac-894d-4ca1-bfd0-df895991fea1<table><tr><td style="font-weight:bold;vertical-align:top;">comment</td><td style="vertical-align:top;">:</td><td><div></div></td></tr><tr><td style="font-weight:bold;vertical-align:top;">domain</td><td style="vertical-align:top;">:</td><td><div></div></td></tr><tr><td style="font-weight:bold;vertical-align:top;">expires</td><td style="vertical-align:top;">:</td><td><div></div></td></tr><tr><td style="font-weight:bold;vertical-align:top;">httponly</td><td style="vertical-align:top;">:</td><td><div></div></td></tr><tr><td style="font-weight:bold;vertical-align:top;">max-age</td><td style="vertical-align:top;">:</td><td><div></div></td></tr><tr><td style="font-weight:bold;vertical-align:top;">path</td><td style="vertical-align:top;">:</td><td><div></div></td></tr><tr><td style="font-weight:bold;vertical-align:top;">secure</td><td style="vertical-align:top;">:</td><td><div></div></td></tr><tr><td style="font-weight:bold;vertical-align:top;">version</td><td style="vertical-align:top;">:</td><td><div></div></td></tr></table></div></td></tr><tr><td style="font-weight:bold;vertical-align:top;">session_id_modal</td><td style="vertical-align:top;">:</td><td><div>127.0.0.1-686792ce-a9d0-4eb2-913e-ce7e5a93b8fb<table><tr><td style="font-weight:bold;vertical-align:top;">comment</td><td style="vertical-align:top;">:</td><td><div></div></td></tr><tr><td style="font-weight:bold;vertical-align:top;">domain</td><td style="vertical-align:top;">:</td><td><div></div></td></tr><tr><td style="font-weight:bold;vertical-align:top;">expires</td><td style="vertical-align:top;">:</td><td><div></div></td></tr><tr><td style="font-weight:bold;vertical-align:top;">httponly</td><td style="vertical-align:top;">:</td><td><div></div></td></tr><tr><td style="font-weight:bold;vertical-align:top;">max-age</td><td style="vertical-align:top;">:</td><td><div></div></td></tr><tr><td style="font-weight:bold;vertical-align:top;">path</td><td style="vertical-align:top;">:</td><td><div></div></td></tr><tr><td style="font-weight:bold;vertical-align:top;">secure</td><td style="vertical-align:top;">:</td><td><div></div></td></tr><tr><td style="font-weight:bold;vertical-align:top;">version</td><td style="vertical-align:top;">:</td><td><div></div></td></tr></table></div></td></tr><tr><td style="font-weight:bold;vertical-align:top;">session_id_mymusic</td><td style="vertical-align:top;">:</td><td><div>127.0.0.1-488eddb4-c7b6-40bf-b289-6628f887272d<table><tr><td style="font-weight:bold;vertical-align:top;">comment</td><td style="vertical-align:top;">:</td><td><div></div></td></tr><tr><td style="font-weight:bold;vertical-align:top;">domain</td><td style="vertical-align:top;">:</td><td><div></div></td></tr><tr><td style="font-weight:bold;vertical-align:top;">expires</td><td style="vertical-align:top;">:</td><td><div></div></td></tr><tr><td style="font-weight:bold;vertical-align:top;">httponly</td><td style="vertical-align:top;">:</td><td><div></div></td></tr><tr><td style="font-weight:bold;vertical-align:top;">max-age</td><td style="vertical-align:top;">:</td><td><div></div></td></tr><tr><td style="font-weight:bold;vertical-align:top;">path</td><td style="vertical-align:top;">:</td><td><div></div></td></tr><tr><td style="font-weight:bold;vertical-align:top;">secure</td><td style="vertical-align:top;">:</td><td><div></div></td></tr><tr><td style="font-weight:bold;vertical-align:top;">version</td><td style="vertical-align:top;">:</td><td><div></div></td></tr></table></div></td></tr><tr><td style="font-weight:bold;vertical-align:top;">session_id_videolibrary</td><td style="vertical-align:top;">:</td><td><div>127.0.0.1-e9f1a0ee-6f98-4604-8075-717e10c6c66d<table><tr><td style="font-weight:bold;vertical-align:top;">comment</td><td style="vertical-align:top;">:</td><td><div></div></td></tr><tr><td style="font-weight:bold;vertical-align:top;">domain</td><td style="vertical-align:top;">:</td><td><div></div></td></tr><tr><td style="font-weight:bold;vertical-align:top;">expires</td><td style="vertical-align:top;">:</td><td><div></div></td></tr><tr><td style="font-weight:bold;vertical-align:top;">httponly</td><td style="vertical-align:top;">:</td><td><div></div></td></tr><tr><td style="font-weight:bold;vertical-align:top;">max-age</td><td style="vertical-align:top;">:</td><td><div></div></td></tr><tr><td style="font-weight:bold;vertical-align:top;">path</td><td style="vertical-align:top;">:</td><td><div></div></td></tr><tr><td style="font-weight:bold;vertical-align:top;">secure</td><td style="vertical-align:top;">:</td><td><div></div></td></tr><tr><td style="font-weight:bold;vertical-align:top;">version</td><td style="vertical-align:top;">:</td><td><div></div></td></tr></table></div></td></tr></table></div></td></tr><tr><td style="font-weight:bold;vertical-align:top;">env</td><td style="vertical-align:top;">:</td><td><div><table><tr><td style="font-weight:bold;vertical-align:top;">HTTP_ACCEPT</td><td style="vertical-align:top;">:</td><td><div>text/html,application/xhtml+xml,application/xml;q=0.9,image/webp,*/*;q=0.8</div></td></tr><tr><td style="font-weight:bold;vertical-align:top;">HTTP_ACCEPT_ENCODING</td><td style="vertical-align:top;">:</td><td><div>gzip, deflate, sdch</div></td></tr><tr><td style="font-weight:bold;vertical-align:top;">HTTP_ACCEPT_LANGUAGE</td><td style="vertical-align:top;">:</td><td><div>en-US,en;q=0.8</div></td></tr><tr><td style="font-weight:bold;vertical-align:top;">HTTP_CONNECTION</td><td style="vertical-align:top;">:</td><td><div>keep-alive</div></td></tr><tr><td style="font-weight:bold;vertical-align:top;">HTTP_COOKIE</td><td style="vertical-align:top;">:</td><td><div>session_id_videolibrary=127.0.0.1-e9f1a0ee-6f98-4604-8075-717e10c6c66d; session_id_mymusic=127.0.0.1-488eddb4-c7b6-40bf-b289-6628f887272d; session_id_modal=127.0.0.1-686792ce-a9d0-4eb2-913e-ce7e5a93b8fb; session_id_admin=127.0.0.1-144f05f8-0628-4f43-beef-3d0df169978f; session_id_final=127.0.0.1-452eaeac-894d-4ca1-bfd0-df895991fea1</div></td></tr><tr><td style="font-weight:bold;vertical-align:top;">HTTP_HOST</td><td style="vertical-align:top;">:</td><td><div>127.0.0.1:8000</div></td></tr><tr><td style="font-weight:bold;vertical-align:top;">HTTP_REFERER</td><td style="vertical-align:top;">:</td><td><div>http://127.0.0.1:8000/final/default/widgets.html</div></td></tr><tr><td style="font-weight:bold;vertical-align:top;">HTTP_UPGRADE_INSECURE_REQUESTS</td><td style="vertical-align:top;">:</td><td><div>1</div></td></tr><tr><td style="font-weight:bold;vertical-align:top;">HTTP_USER_AGENT</td><td style="vertical-align:top;">:</td><td><div>Mozilla/5.0 (X11; Linux x86_64) AppleWebKit/537.36 (KHTML, like Gecko) Chrome/45.0.2454.101 Safari/537.36</div></td></tr><tr><td style="font-weight:bold;vertical-align:top;">PATH_INFO</td><td style="vertical-align:top;">:</td><td><div>/final/default/see/7</div></td></tr><tr><td style="font-weight:bold;vertical-align:top;">QUERY_STRING</td><td style="vertical-align:top;">:</td><td><div></div></td></tr><tr><td style="font-weight:bold;vertical-align:top;">REMOTE_ADDR</td><td style="vertical-align:top;">:</td><td><div>127.0.0.1</div></td></tr><tr><td style="font-weight:bold;vertical-align:top;">REMOTE_PORT</td><td style="vertical-align:top;">:</td><td><div>57836</div></td></tr><tr><td style="font-weight:bold;vertical-align:top;">REQUEST_METHOD</td><td style="vertical-align:top;">:</td><td><div>GET</div></td></tr><tr><td style="font-weight:bold;vertical-align:top;">SCRIPT_NAME</td><td style="vertical-align:top;">:</td><td><div></div></td></tr><tr><td style="font-weight:bold;vertical-align:top;">SERVER_NAME</td><td style="vertical-align:top;">:</td><td><div>abhi-Vostro-3546</div></td></tr><tr><td style="font-weight:bold;vertical-align:top;">SERVER_PORT</td><td style="vertical-align:top;">:</td><td><div>8000</div></td></tr><tr><td style="font-weight:bold;vertical-align:top;">SERVER_PROTOCOL</td><td style="vertical-align:top;">:</td><td><div>HTTP/1.1</div></td></tr><tr><td style="font-weight:bold;vertical-align:top;">SERVER_SOFTWARE</td><td style="vertical-align:top;">:</td><td><div>Rocket 1.2.6</div></td></tr><tr><td style="font-weight:bold;vertical-align:top;">app_folders</td><td style="vertical-align:top;">:</td><td><div>set([&#x27;/home/abhi/Downloads/CourseMaterial/web2Py/web2py/applications/welcome/&#x27;, &#x27;/home/abhi/Downloads/CourseMaterial/web2Py/web2py/applications/final/&#x27;, &#x27;/home/abhi/Downloads/CourseMaterial/web2Py/web2py/applications/admin/&#x27;])</div></td></tr><tr><td style="font-weight:bold;vertical-align:top;">applications_parent</td><td style="vertical-align:top;">:</td><td><div>/home/abhi/Downloads/CourseMaterial/web2Py/web2py</div></td></tr><tr><td style="font-weight:bold;vertical-align:top;">cmd_args</td><td style="vertical-align:top;">:</td><td><div><table></table></div></td></tr><tr><td style="font-weight:bold;vertical-align:top;">cmd_options</td><td style="vertical-align:top;">:</td><td><div>&lt;Values at 0x7f62721c2fc8: {&#x27;verbose&#x27;: False, &#x27;ip&#x27;: &#x27;127.0.0.1&#x27;, &#x27;debuglevel&#x27;: 30, &#x27;with_scheduler&#x27;: False, &#x27;ips&#x27;: [&#x27;127.0.1.1&#x27;], &#x27;shutdown_timeout&#x27;: 5, &#x27;taskbar&#x27;: False, &#x27;with_coverage&#x27;: False, &#x27;scheduler_groups&#x27;: None, &#x27;port&#x27;: 8000, &#x27;maxthreads&#x27;: None, &#x27;softcron&#x27;: False, &#x27;server_name&#x27;: &#x27;abhi-Vostro-3546&#x27;, &#x27;bpython&#x27;: False, &#x27;nogui&#x27;: False, &#x27;pid_filename&#x27;: &#x27;httpserver.pid&#x27;, &#x27;print_errors&#x27;: False, &#x27;extcron&#x27;: False, &#x27;runcron&#x27;: False, &#x27;run_system_tests&#x27;: False, &#x27;test&#x27;: None, &#x27;folder&#x27;: &#x27;/home/abhi/Downloads/CourseMaterial/web2Py/web2py&#x27;, &#x27;config&#x27;: &#x27;&#x27;, &#x27;minthreads&#x27;: None, &#x27;shell&#x27;: None, &#x27;run&#x27;: &#x27;&#x27;, &#x27;log_filename&#x27;: &#x27;httpserver.log&#x27;, &#x27;profiler_dir&#x27;: None, &#x27;args&#x27;: [&#x27;&#x27;], &#x27;socket_timeout&#x27;: 5, &#x27;ssl_ca_certificate&#x27;: None, &#x27;scheduler&#x27;: None, &#x27;interfaces&#x27;: None, &#x27;ssl_private_key&#x27;: &#x27;&#x27;, &#x27;gae&#x27;: None, &#x27;password&#x27;: &#x27;&lt;ask&gt;&#x27;, &#x27;request_queue_size&#x27;: 5, &#x27;ssl_certificate&#x27;: &#x27;&#x27;, &#x27;cronjob&#x27;: False, &#x27;numthreads&#x27;: None, &#x27;quiet&#x27;: False, &#x27;import_models&#x27;: False, &#x27;timeout&#x27;: 10, &#x27;plain&#x27;: False, &#x27;nobanner&#x27;: False}&gt;</div></td></tr><tr><td style="font-weight:bold;vertical-align:top;">db_sessions</td><td style="vertical-align:top;">:</td><td><div>set([])</div></td></tr><tr><td style="font-weight:bold;vertical-align:top;">debugging</td><td style="vertical-align:top;">:</td><td><div>False</div></td></tr><tr><td style="font-weight:bold;vertical-align:top;">gluon_parent</td><td style="vertical-align:top;">:</td><td><div>/home/abhi/Downloads/CourseMaterial/web2Py/web2py</div></td></tr><tr><td style="font-weight:bold;vertical-align:top;">http_accept</td><td style="vertical-align:top;">:</td><td><div>text/html,application/xhtml+xml,application/xml;q=0.9,image/webp,*/*;q=0.8</div></td></tr><tr><td style="font-weight:bold;vertical-align:top;">http_accept_encoding</td><td style="vertical-align:top;">:</td><td><div>gzip, deflate, sdch</div></td></tr><tr><td style="font-weight:bold;vertical-align:top;">http_accept_language</td><td style="vertical-align:top;">:</td><td><div>en-US,en;q=0.8</div></td></tr><tr><td style="font-weight:bold;vertical-align:top;">http_connection</td><td style="vertical-align:top;">:</td><td><div>keep-alive</div></td></tr><tr><td style="font-weight:bold;vertical-align:top;">http_cookie</td><td style="vertical-align:top;">:</td><td><div>session_id_videolibrary=127.0.0.1-e9f1a0ee-6f98-4604-8075-717e10c6c66d; session_id_mymusic=127.0.0.1-488eddb4-c7b6-40bf-b289-6628f887272d; session_id_modal=127.0.0.1-686792ce-a9d0-4eb2-913e-ce7e5a93b8fb; session_id_admin=127.0.0.1-144f05f8-0628-4f43-beef-3d0df169978f; session_id_final=127.0.0.1-452eaeac-894d-4ca1-bfd0-df895991fea1</div></td></tr><tr><td style="font-weight:bold;vertical-align:top;">http_host</td><td style="vertical-align:top;">:</td><td><div>127.0.0.1:8000</div></td></tr><tr><td style="font-weight:bold;vertical-align:top;">http_referer</td><td style="vertical-align:top;">:</td><td><div>http://127.0.0.1:8000/final/default/widgets.html</div></td></tr><tr><td style="font-weight:bold;vertical-align:top;">http_upgrade_insecure_requests</td><td style="vertical-align:top;">:</td><td><div>1</div></td></tr><tr><td style="font-weight:bold;vertical-align:top;">http_user_agent</td><td style="vertical-align:top;">:</td><td><div>Mozilla/5.0 (X11; Linux x86_64) AppleWebKit/537.36 (KHTML, like Gecko) Chrome/45.0.2454.101 Safari/537.36</div></td></tr><tr><td style="font-weight:bold;vertical-align:top;">is_jython</td><td style="vertical-align:top;">:</td><td><div>False</div></td></tr><tr><td style="font-weight:bold;vertical-align:top;">is_pypy</td><td style="vertical-align:top;">:</td><td><div>False</div></td></tr><tr><td style="font-weight:bold;vertical-align:top;">is_source</td><td style="vertical-align:top;">:</td><td><div>True</div></td></tr><tr><td style="font-weight:bold;vertical-align:top;">local_hosts</td><td style="vertical-align:top;">:</td><td><div><table><tr><td><div>::1</div></td></tr><tr><td><div>127.0.1.1</div></td></tr><tr><td><div>::ffff:127.0.0.1</div></td></tr><tr><td><div>127.0.0.1</div></td></tr><tr><td><div>abhi-Vostro-3546</div></td></tr></table></div></td></tr><tr><td style="font-weight:bold;vertical-align:top;">path_info</td><td style="vertical-align:top;">:</td><td><div>/final/default/see/7</div></td></tr><tr><td style="font-weight:bold;vertical-align:top;">query_string</td><td style="vertical-align:top;">:</td><td><div></div></td></tr><tr><td style="font-weight:bold;vertical-align:top;">remote_addr</td><td style="vertical-align:top;">:</td><td><div>127.0.0.1</div></td></tr><tr><td style="font-weight:bold;vertical-align:top;">remote_port</td><td style="vertical-align:top;">:</td><td><div>57836</div></td></tr><tr><td style="font-weight:bold;vertical-align:top;">request_method</td><td style="vertical-align:top;">:</td><td><div>GET</div></td></tr><tr><td style="font-weight:bold;vertical-align:top;">request_uri</td><td style="vertical-align:top;">:</td><td><div>/final/default/see/7</div></td></tr><tr><td style="font-weight:bold;vertical-align:top;">script_name</td><td style="vertical-align:top;">:</td><td><div></div></td></tr><tr><td style="font-weight:bold;vertical-align:top;">server_name</td><td style="vertical-align:top;">:</td><td><div>abhi-Vostro-3546</div></td></tr><tr><td style="font-weight:bold;vertical-align:top;">server_port</td><td style="vertical-align:top;">:</td><td><div>8000</div></td></tr><tr><td style="font-weight:bold;vertical-align:top;">server_protocol</td><td style="vertical-align:top;">:</td><td><div>HTTP/1.1</div></td></tr><tr><td style="font-weight:bold;vertical-align:top;">server_software</td><td style="vertical-align:top;">:</td><td><div>Rocket 1.2.6</div></td></tr><tr><td style="font-weight:bold;vertical-align:top;">web2py_path</td><td style="vertical-align:top;">:</td><td><div>/home/abhi/Downloads/CourseMaterial/web2Py/web2py</div></td></tr><tr><td style="font-weight:bold;vertical-align:top;">web2py_version</td><td style="vertical-align:top;">:</td><td><div>2.12.3-stable+timestamp.2015.08.19.00.18.03</div></td></tr><tr><td style="font-weight:bold;vertical-align:top;">wsgi.errors</td><td style="vertical-align:top;">:</td><td><div>&lt;open file &#x27;&lt;stderr&gt;&#x27;, mode &#x27;w&#x27; at 0x7f62794211e0&gt;</div></td></tr><tr><td style="font-weight:bold;vertical-align:top;">wsgi.file_wrapper</td><td style="vertical-align:top;">:</td><td><div>&lt;class wsgiref.util.FileWrapper at 0x7f627224be88&gt;</div></td></tr><tr><td style="font-weight:bold;vertical-align:top;">wsgi.input</td><td style="vertical-align:top;">:</td><td><div>&lt;socket._fileobject object at 0x7f62441005d0&gt;</div></td></tr><tr><td style="font-weight:bold;vertical-align:top;">wsgi.multiprocess</td><td style="vertical-align:top;">:</td><td><div>False</div></td></tr><tr><td style="font-weight:bold;vertical-align:top;">wsgi.multithread</td><td style="vertical-align:top;">:</td><td><div>True</div></td></tr><tr><td style="font-weight:bold;vertical-align:top;">wsgi.run_once</td><td style="vertical-align:top;">:</td><td><div>False</div></td></tr><tr><td style="font-weight:bold;vertical-align:top;">wsgi.url_scheme</td><td style="vertical-align:top;">:</td><td><div>http</div></td></tr><tr><td style="font-weight:bold;vertical-align:top;">wsgi.version</td><td style="vertical-align:top;">:</td><td><div><table><tr><td><div>1</div></td></tr><tr><td><div>0</div></td></tr></table></div></td></tr><tr><td style="font-weight:bold;vertical-align:top;">wsgi_errors</td><td style="vertical-align:top;">:</td><td><div>&lt;open file &#x27;&lt;stderr&gt;&#x27;, mode &#x27;w&#x27; at 0x7f62794211e0&gt;</div></td></tr><tr><td style="font-weight:bold;vertical-align:top;">wsgi_file_wrapper</td><td style="vertical-align:top;">:</td><td><div>&lt;class wsgiref.util.FileWrapper at 0x7f627224be88&gt;</div></td></tr><tr><td style="font-weight:bold;vertical-align:top;">wsgi_input</td><td style="vertical-align:top;">:</td><td><div>&lt;socket._fileobject object at 0x7f62441005d0&gt;</div></td></tr><tr><td style="font-weight:bold;vertical-align:top;">wsgi_multiprocess</td><td style="vertical-align:top;">:</td><td><div>False</div></td></tr><tr><td style="font-weight:bold;vertical-align:top;">wsgi_multithread</td><td style="vertical-align:top;">:</td><td><div>True</div></td></tr><tr><td style="font-weight:bold;vertical-align:top;">wsgi_run_once</td><td style="vertical-align:top;">:</td><td><div>False</div></td></tr><tr><td style="font-weight:bold;vertical-align:top;">wsgi_url_scheme</td><td style="vertical-align:top;">:</td><td><div>http</div></td></tr><tr><td style="font-weight:bold;vertical-align:top;">wsgi_version</td><td style="vertical-align:top;">:</td><td><div><table><tr><td><div>1</div></td></tr><tr><td><div>0</div></td></tr></table></div></td></tr></table></div></td></tr><tr><td style="font-weight:bold;vertical-align:top;">extension</td><td style="vertical-align:top;">:</td><td><div>html</div></td></tr><tr><td style="font-weight:bold;vertical-align:top;">folder</td><td style="vertical-align:top;">:</td><td><div>/home/abhi/Downloads/CourseMaterial/web2Py/web2py/applications/final/</div></td></tr><tr><td style="font-weight:bold;vertical-align:top;">function</td><td style="vertical-align:top;">:</td><td><div>see</div></td></tr><tr><td style="font-weight:bold;vertical-align:top;">global_settings</td><td style="vertical-align:top;">:</td><td><div><table><tr><td style="font-weight:bold;vertical-align:top;">app_folders</td><td style="vertical-align:top;">:</td><td><div>set([&#x27;/home/abhi/Downloads/CourseMaterial/web2Py/web2py/applications/welcome/&#x27;, &#x27;/home/abhi/Downloads/CourseMaterial/web2Py/web2py/applications/final/&#x27;, &#x27;/home/abhi/Downloads/CourseMaterial/web2Py/web2py/applications/admin/&#x27;])</div></td></tr><tr><td style="font-weight:bold;vertical-align:top;">applications_parent</td><td style="vertical-align:top;">:</td><td><div>/home/abhi/Downloads/CourseMaterial/web2Py/web2py</div></td></tr><tr><td style="font-weight:bold;vertical-align:top;">cmd_args</td><td style="vertical-align:top;">:</td><td><div><table></table></div></td></tr><tr><td style="font-weight:bold;vertical-align:top;">cmd_options</td><td style="vertical-align:top;">:</td><td><div>&lt;Values at 0x7f62721c2fc8: {&#x27;verbose&#x27;: False, &#x27;ip&#x27;: &#x27;127.0.0.1&#x27;, &#x27;debuglevel&#x27;: 30, &#x27;with_scheduler&#x27;: False, &#x27;ips&#x27;: [&#x27;127.0.1.1&#x27;], &#x27;shutdown_timeout&#x27;: 5, &#x27;taskbar&#x27;: False, &#x27;with_coverage&#x27;: False, &#x27;scheduler_groups&#x27;: None, &#x27;port&#x27;: 8000, &#x27;maxthreads&#x27;: None, &#x27;softcron&#x27;: False, &#x27;server_name&#x27;: &#x27;abhi-Vostro-3546&#x27;, &#x27;bpython&#x27;: False, &#x27;nogui&#x27;: False, &#x27;pid_filename&#x27;: &#x27;httpserver.pid&#x27;, &#x27;print_errors&#x27;: False, &#x27;extcron&#x27;: False, &#x27;runcron&#x27;: False, &#x27;run_system_tests&#x27;: False, &#x27;test&#x27;: None, &#x27;folder&#x27;: &#x27;/home/abhi/Downloads/CourseMaterial/web2Py/web2py&#x27;, &#x27;config&#x27;: &#x27;&#x27;, &#x27;minthreads&#x27;: None, &#x27;shell&#x27;: None, &#x27;run&#x27;: &#x27;&#x27;, &#x27;log_filename&#x27;: &#x27;httpserver.log&#x27;, &#x27;profiler_dir&#x27;: None, &#x27;args&#x27;: [&#x27;&#x27;], &#x27;socket_timeout&#x27;: 5, &#x27;ssl_ca_certificate&#x27;: None, &#x27;scheduler&#x27;: None, &#x27;interfaces&#x27;: None, &#x27;ssl_private_key&#x27;: &#x27;&#x27;, &#x27;gae&#x27;: None, &#x27;password&#x27;: &#x27;&lt;ask&gt;&#x27;, &#x27;request_queue_size&#x27;: 5, &#x27;ssl_certificate&#x27;: &#x27;&#x27;, &#x27;cronjob&#x27;: False, &#x27;numthreads&#x27;: None, &#x27;quiet&#x27;: False, &#x27;import_models&#x27;: False, &#x27;timeout&#x27;: 10, &#x27;plain&#x27;: False, &#x27;nobanner&#x27;: False}&gt;</div></td></tr><tr><td style="font-weight:bold;vertical-align:top;">db_sessions</td><td style="vertical-align:top;">:</td><td><div>set([])</div></td></tr><tr><td style="font-weight:bold;vertical-align:top;">debugging</td><td style="vertical-align:top;">:</td><td><div>False</div></td></tr><tr><td style="font-weight:bold;vertical-align:top;">gluon_parent</td><td style="vertical-align:top;">:</td><td><div>/home/abhi/Downloads/CourseMaterial/web2Py/web2py</div></td></tr><tr><td style="font-weight:bold;vertical-align:top;">is_jython</td><td style="vertical-align:top;">:</td><td><div>False</div></td></tr><tr><td style="font-weight:bold;vertical-align:top;">is_pypy</td><td style="vertical-align:top;">:</td><td><div>False</div></td></tr><tr><td style="font-weight:bold;vertical-align:top;">is_source</td><td style="vertical-align:top;">:</td><td><div>True</div></td></tr><tr><td style="font-weight:bold;vertical-align:top;">local_hosts</td><td style="vertical-align:top;">:</td><td><div><table><tr><td><div>::1</div></td></tr><tr><td><div>127.0.1.1</div></td></tr><tr><td><div>::ffff:127.0.0.1</div></td></tr><tr><td><div>127.0.0.1</div></td></tr><tr><td><div>abhi-Vostro-3546</div></td></tr></table></div></td></tr><tr><td style="font-weight:bold;vertical-align:top;">web2py_version</td><td style="vertical-align:top;">:</td><td><div>2.12.3-stable+timestamp.2015.08.19.00.18.03</div></td></tr></table></div></td></tr><tr><td style="font-weight:bold;vertical-align:top;">is_https</td><td style="vertical-align:top;">:</td><td><div>False</div></td></tr><tr><td style="font-weight:bold;vertical-align:top;">is_local</td><td style="vertical-align:top;">:</td><td><div>True</div></td></tr><tr><td style="font-weight:bold;vertical-align:top;">is_restful</td><td style="vertical-align:top;">:</td><td><div>False</div></td></tr><tr><td style="font-weight:bold;vertical-align:top;">is_sheduler</td><td style="vertical-align:top;">:</td><td><div>None</div></td></tr><tr><td style="font-weight:bold;vertical-align:top;">is_shell</td><td style="vertical-align:top;">:</td><td><div>None</div></td></tr><tr><td style="font-weight:bold;vertical-align:top;">now</td><td style="vertical-align:top;">:</td><td><div>datetime.datetime(2015, 11, 21, 1, 19, 10, 231212)</div></td></tr><tr><td style="font-weight:bold;vertical-align:top;">raw_args</td><td style="vertical-align:top;">:</td><td><div>7</div></td></tr><tr><td style="font-weight:bold;vertical-align:top;">raw_extension</td><td style="vertical-align:top;">:</td><td><div>None</div></td></tr><tr><td style="font-weight:bold;vertical-align:top;">url</td><td style="vertical-align:top;">:</td><td><div>/final/default/see/7</div></td></tr><tr><td style="font-weight:bold;vertical-align:top;">utcnow</td><td style="vertical-align:top;">:</td><td><div>datetime.datetime(2015, 11, 20, 19, 49, 10, 231243)</div></td></tr><tr><td style="font-weight:bold;vertical-align:top;">wsgi</td><td style="vertical-align:top;">:</td><td><div>&lt;gluon.main.LazyWSGI object at 0x7f6244065a50&gt;</div></td></tr></table></div>'
tRp70
sS'frames'
p71
(lp72
(dp73
S'file'
p74
S'/home/abhi/Downloads/CourseMaterial/web2Py/web2py/gluon/restricted.py'
p75
sS'dump'
p76
(dp77
S'environment'
p78
S"{'A': <class 'gluon.html.A'>, 'ANY_OF': <class 'gluon.validators.ANY_OF'>, 'ASSIGNJS': <function ASSIGNJS>, 'AppConfig': <function AppConfig>, 'Auth': <class 'gluon.tools.Auth'>, 'B': <class 'gluon.html.B'>, 'BEAUTIFY': <class 'gluon.html.BEAUTIFY'>, 'BODY': <class 'gluon.html.BODY'>, 'BR': <class 'gluon.html.BR'>, 'BUTTON': <class 'gluon.html.BUTTON'>, ...}"
p79
sS'ccode'
p80
S'<code object <module> at 0x7f622e899bb0, file "/...plications/final/views/default/see.html", line 1>'
p81
ssS'lnum'
p82
I227
sS'lines'
p83
(dp84
I224
S'            ccode = code'
p85
sI225
S'        else:'
p86
sI226
S'            ccode = compile2(code, layer)'
p87
sI227
S'        exec ccode in environment'
p88
sI228
S'    except HTTP:'
p89
sI229
S'        raise'
p90
sI230
S'    except RestrictedError:'
p91
sI231
S'        # do not encapsulate (obfuscate) the original RestrictedError'
p92
sI222
S'    try:'
p93
sI223
S'        if isinstance(code, types.CodeType):'
p94
ssS'call'
p95
S'(code=\'response.write(\\\'<!DOCTYPE html>\\\\n<html lang="en"..."></script>\\\\n\\\\n  </body>\\\\n</html>\\\', escape=False)\', environment={\'A\': <class \'gluon.html.A\'>, \'ANY_OF\': <class \'gluon.validators.ANY_OF\'>, \'ASSIGNJS\': <function ASSIGNJS>, \'AppConfig\': <function AppConfig>, \'Auth\': <class \'gluon.tools.Auth\'>, \'B\': <class \'gluon.html.B\'>, \'BEAUTIFY\': <class \'gluon.html.BEAUTIFY\'>, \'BODY\': <class \'gluon.html.BODY\'>, \'BR\': <class \'gluon.html.BR\'>, \'BUTTON\': <class \'gluon.html.BUTTON\'>, ...}, layer=\'/home/abhi/Downloads/CourseMaterial/web2Py/web2py/applications/final/views/default/see.html\')'
p96
sS'func'
p97
S'restricted'
p98
sa(dp99
g74
S'/home/abhi/Downloads/CourseMaterial/web2Py/web2py/applications/final/views/default/see.html'
p100
sg76
(dp101
S'head'
p102
S'undefined'
p103
ssg82
I98
sg83
(dp104
I96
S'    url=song.url'
p105
sI97
S"    response.write('\\n    ', escape=False)"
p106
sI98
S"    embed_info = client.get('/oembed', url=url)"
p107
sI99
S"    response.write('\\n    ', escape=False)"
p108
sI100
S'    response.write(XML(embed_info.html))'
p109
sI101
S"    response.write('\\n    </div>\\n', escape=False)"
p110
sI102
S'else:'
p111
sI103
S'    response.write(\'\\n<div id="player" class = "col-xs-8"></div>\\n\\n    <script>\\n      // 2. This code loads the IFrame Player API code asynchronously.\\n      var tag = document.createElement(\\\'script\\\');\\n\\n      tag.src = "https://www.youtube.com/iframe_api";\\n      var firstScriptTag = document.getElementsByTagName(\\\'script\\\')[0];\\n      firstScriptTag.parentNode.insertBefore(tag, firstScriptTag);\\n\\n      // 3. This function creates an <iframe> (and YouTube player)\\n      //    after the API code downloads.\\n      var player;\\n      function onYouTubeIframeAPIReady() {\\n        player = new YT.Player(\\\'player\\\', {\\n          height: \\\'390\\\',\\n          width: \\\'640\\\',\\n          videoId: \\\'\', escape=False)'
p112
sI104
S'    response.write(song.url)'
p113
sI105
S'    response.write("\',\\n          events: {\\n            \'onReady\': onPlayerReady,\\n            \'onStateChange\': onPlayerStateChange\\n          }\\n        });\\n      }\\n\\n      // 4. The API will call this function when the video player is ready.\\n      function onPlayerReady(event) {\\n        event.target.playVideo();\\n      }\\n\\n      // 5. The API calls this function when the player\'s state changes.\\n      //    The function indicates that when playing a video (state=1),\\n      //    the player should play for six seconds and then stop.\\n      var done = false;\\n      function onPlayerStateChange(event) {\\n        if (event.data == YT.PlayerState.PLAYING && !done) {\\n          //setTimeout(stopVideo, 6000);\\n          done = true;\\n        }\\n      }\\n      function stopVideo() {\\n        player.stopVideo();\\n      }\\n    </script>\\n", escape=False)'
p114
sI106
S'    pass'
p115
sI107
S'response.write(\'\\n\\n<fieldset class="rating">\\n    <legend>Please rate:</legend>\\n    <input type="radio" id="star5" name="rating" value="5" /><label for="star5" title="Rocks!">5 stars</label>\\n    <input type="radio" id="star4" name="rating" value="4" /><label for="star4" title="Pretty good">4 stars</label>\\n    <input type="radio" id="star3" name="rating" value="3" /><label for="star3" title="Meh">3 stars</label>\\n    <input type="radio" id="star2" name="rating" value="2" /><label for="star2" title="Kinda bad">2 stars</label>\\n    <input type="radio" id="star1" name="rating" value="1" /><label for="star1" title="Sucks big time">1 star</label>\\n</fieldset>\\n\\n<div style="padding-top:10%;">\\n\', escape=False)'
p116
sI108
S"response.write(A('Click here ', _href=URL('mark_favourite',args=song.id)))"
p117
sI89
S'    response.write(\' type="audio/mpeg">\\n                \', escape=False)'
p118
sI90
S'    #print song.url'
p119
sI91
S'    response.write(\'\\n                Your browser does not support the audio tag.</div>\\n            </audio>  -->\\n    <div id="1">\\n    \', escape=False)'
p120
sI92
S'    import soundcloud'
p121
sI93
S"    response.write('\\n    ', escape=False)"
p122
sI94
S"    client = soundcloud.Client(client_id='f4e257503f0990527a6e17e14158076e')"
p123
sI95
S"    response.write('\\n    ', escape=False)"
p124
ssg95
S'()'
p125
sg97
S'<module>'
p126
sa(dp127
g74
S'/usr/local/lib/python2.7/dist-packages/soundcloud/client.py'
p128
sg76
(dp129
S'global make_request'
p130
S'<function make_request>'
p131
sS'url'
p132
S"'https://api.soundcloud.com/oembed.json'"
p133
sS'global wrapped_resource'
p134
S'<function wrapped_resource>'
p135
sS'method'
p136
S"'get'"
p137
sS'kwargs'
p138
S"{'client_id': 'f4e257503f0990527a6e17e14158076e', 'url': 'https://cf-media.sndcdn.com/J3mCOiJRZaG4.128.mp3...ga2Ehz-h4BRxfg__&Key-Pair-Id=APKAJAGZ7VMH2PFPW6UQ'}"
p139
ssg82
I130
sg83
(dp140
I128
S"            'proxies': self.options.get('proxies', None)"
p141
sI129
S'        })'
p142
sI130
S'        return wrapped_resource(make_request(method, url, kwargs))'
p143
sI131
S''
sI132
S'    def __getattr__(self, name, **kwargs):'
p144
sI133
S'        """Translate an HTTP verb into a request method."""'
p145
sI134
S"        if name not in ('get', 'post', 'put', 'head', 'delete'):"
p146
sI125
S''
sI126
S'        kwargs.update({'
p147
sI127
S"            'verify_ssl': self.options.get('verify_ssl', True),"
p148
ssg95
S"(self=<soundcloud.client.Client object>, method='get', resource='/oembed', **kwargs={'client_id': 'f4e257503f0990527a6e17e14158076e', 'url': 'https://cf-media.sndcdn.com/J3mCOiJRZaG4.128.mp3...ga2Ehz-h4BRxfg__&Key-Pair-Id=APKAJAGZ7VMH2PFPW6UQ'})"
p149
sg97
S'_request'
p150
sa(dp151
g74
S'/usr/local/lib/python2.7/dist-packages/soundcloud/request.py'
p152
sg76
(dp153
S'result'
p154
S'<Response [404]>'
p155
sS'result.raise_for_status'
p156
S'<bound method Response.raise_for_status of <Response [404]>>'
p157
ssg82
I134
sg83
(dp158
I128
S''
sI129
S"    # if redirects are disabled, don't raise for 301 / 302"
p159
sI130
S'    if result.status_code in (301, 302):'
p160
sI131
S'        if allow_redirects:'
p161
sI132
S'            result.raise_for_status()'
p162
sI133
S'    else:'
p163
sI134
S'        result.raise_for_status()'
p164
sI135
S'    return result'
p165
sI126
S"            kwargs['files'] = files"
p166
sI127
S'        result = request_func(url, **kwargs)'
p167
ssg95
S"(method='get', url='https://api.soundcloud.com/oembed.json', params={'client_id': 'f4e257503f0990527a6e17e14158076e', 'url': 'https://cf-media.sndcdn.com/J3mCOiJRZaG4.128.mp3...ga2Ehz-h4BRxfg__&Key-Pair-Id=APKAJAGZ7VMH2PFPW6UQ'})"
p168
sg97
S'make_request'
p169
sa(dp170
g74
S'/usr/lib/python2.7/dist-packages/requests/models.py'
p171
sg76
(dp172
S'http_error_msg'
p173
S"'404 Client Error: Not Found'"
p174
sS'self'
p175
S'<Response [404]>'
p176
sS'global HTTPError'
p177
S"<class 'requests.exceptions.HTTPError'>"
p178
sS'response'
p179
g103
ssg82
I773
sg83
(dp180
I768
S''
sI769
S'        elif 500 <= self.status_code < 600:'
p181
sI770
S"            http_error_msg = '%s Server Error: %s' % (self.status_code, self.reason)"
p182
sI771
S''
sI772
S'        if http_error_msg:'
p183
sI773
S'            raise HTTPError(http_error_msg, response=self)'
p184
sI774
S''
sI775
S'    def close(self):'
p185
sI776
S'        """Closes the underlying file descriptor and releases the connection'
p186
sI777
S'        back to the pool.'
p187
ssg95
S'(self=<Response [404]>)'
p188
sg97
S'raise_for_status'
p189
sasS'pyver'
p190
S'Python 2.7.6: /usr/bin/python (prefix: /usr)'
p191
sS'session'
p192
g69
(S's\x98\x00\x00\x00<div><table><tr><td style="font-weight:bold;vertical-align:top;">flash</td><td style="vertical-align:top;">:</td><td><div></div></td></tr></table></div>'
tRp193
sS'etype'
p194
S"<class 'requests.exceptions.HTTPError'>"
p195
sS'date'
p196
S'Sat Nov 21 01:19:13 2015'
p197
sg54
g69
(S's\x91?\x00\x00<div><table><tr><td style="font-weight:bold;vertical-align:top;">body</td><td style="vertical-align:top;">:</td><td><div>&lt;cStringIO.StringO object at 0x7f622ffbabc8&gt;</div></td></tr><tr><td style="font-weight:bold;vertical-align:top;">cookies</td><td style="vertical-align:top;">:</td><td><div><table><tr><td style="font-weight:bold;vertical-align:top;">session_id_final</td><td style="vertical-align:top;">:</td><td><div>127.0.0.1-452eaeac-894d-4ca1-bfd0-df895991fea1<table><tr><td style="font-weight:bold;vertical-align:top;">comment</td><td style="vertical-align:top;">:</td><td><div></div></td></tr><tr><td style="font-weight:bold;vertical-align:top;">domain</td><td style="vertical-align:top;">:</td><td><div></div></td></tr><tr><td style="font-weight:bold;vertical-align:top;">expires</td><td style="vertical-align:top;">:</td><td><div></div></td></tr><tr><td style="font-weight:bold;vertical-align:top;">httponly</td><td style="vertical-align:top;">:</td><td><div></div></td></tr><tr><td style="font-weight:bold;vertical-align:top;">max-age</td><td style="vertical-align:top;">:</td><td><div></div></td></tr><tr><td style="font-weight:bold;vertical-align:top;">path</td><td style="vertical-align:top;">:</td><td><div>/</div></td></tr><tr><td style="font-weight:bold;vertical-align:top;">secure</td><td style="vertical-align:top;">:</td><td><div></div></td></tr><tr><td style="font-weight:bold;vertical-align:top;">version</td><td style="vertical-align:top;">:</td><td><div></div></td></tr></table></div></td></tr></table></div></td></tr><tr><td style="font-weight:bold;vertical-align:top;">delimiters</td><td style="vertical-align:top;">:</td><td><div><table><tr><td><div>{{</div></td></tr><tr><td><div>}}</div></td></tr></table></div></td></tr><tr><td style="font-weight:bold;vertical-align:top;">files</td><td style="vertical-align:top;">:</td><td><div><table></table></div></td></tr><tr><td style="font-weight:bold;vertical-align:top;">flash</td><td style="vertical-align:top;">:</td><td><div></div></td></tr><tr><td style="font-weight:bold;vertical-align:top;">form_label_separator</td><td style="vertical-align:top;">:</td><td><div></div></td></tr><tr><td style="font-weight:bold;vertical-align:top;">formstyle</td><td style="vertical-align:top;">:</td><td><div>bootstrap3_inline</div></td></tr><tr><td style="font-weight:bold;vertical-align:top;">generic_patterns</td><td style="vertical-align:top;">:</td><td><div><table><tr><td><div>*</div></td></tr></table></div></td></tr><tr><td style="font-weight:bold;vertical-align:top;">google_analytics_id</td><td style="vertical-align:top;">:</td><td><div>None</div></td></tr><tr><td style="font-weight:bold;vertical-align:top;">headers</td><td style="vertical-align:top;">:</td><td><div><table><tr><td style="font-weight:bold;vertical-align:top;">X-Powered-By</td><td style="vertical-align:top;">:</td><td><div>web2py</div></td></tr></table></div></td></tr><tr><td style="font-weight:bold;vertical-align:top;">logo</td><td style="vertical-align:top;">:</td><td><div><a class="navbar-brand" href="http://www.web2py.com/" id="web2py-logo"><b>web<span>2</span>py</b>&trade;&nbsp;</a></div></td></tr><tr><td style="font-weight:bold;vertical-align:top;">menu</td><td style="vertical-align:top;">:</td><td><div><table><tr><td><div><table><tr><td><div>Home</div></td></tr><tr><td><div>False</div></td></tr><tr><td><div>/final/default/index</div></td></tr><tr><td><div><table></table></div></td></tr></table></div></td></tr><tr><td><div><table><tr><td><div>My Sites</div></td></tr><tr><td><div>False</div></td></tr><tr><td><div>/admin/default/site</div></td></tr></table></div></td></tr><tr><td><div><table><tr><td><div>This App</div></td></tr><tr><td><div>False</div></td></tr><tr><td><div>#</div></td></tr><tr><td><div><table><tr><td><div><table><tr><td><div>Design</div></td></tr><tr><td><div>False</div></td></tr><tr><td><div>/admin/default/design/final</div></td></tr></table></div></td></tr><tr><td><div><li class="divider"></li></div></td></tr><tr><td><div><table><tr><td><div>Controller</div></td></tr><tr><td><div>False</div></td></tr><tr><td><div>/admin/default/edit/final/controllers/default.py</div></td></tr></table></div></td></tr><tr><td><div><table><tr><td><div>View</div></td></tr><tr><td><div>False</div></td></tr><tr><td><div>/admin/default/edit/final/views/default/see.html</div></td></tr></table></div></td></tr><tr><td><div><table><tr><td><div>DB Model</div></td></tr><tr><td><div>False</div></td></tr><tr><td><div>/admin/default/edit/final/models/db.py</div></td></tr></table></div></td></tr><tr><td><div><table><tr><td><div>Menu Model</div></td></tr><tr><td><div>False</div></td></tr><tr><td><div>/admin/default/edit/final/models/menu.py</div></td></tr></table></div></td></tr><tr><td><div><table><tr><td><div>Config.ini</div></td></tr><tr><td><div>False</div></td></tr><tr><td><div>/admin/default/edit/final/private/appconfig.ini</div></td></tr></table></div></td></tr><tr><td><div><table><tr><td><div>Layout</div></td></tr><tr><td><div>False</div></td></tr><tr><td><div>/admin/default/edit/final/views/layout.html</div></td></tr></table></div></td></tr><tr><td><div><table><tr><td><div>Stylesheet</div></td></tr><tr><td><div>False</div></td></tr><tr><td><div>/admin/default/edit/final/static/css/web2py-bootstrap3.css</div></td></tr></table></div></td></tr><tr><td><div><table><tr><td><div>Database</div></td></tr><tr><td><div>False</div></td></tr><tr><td><div>/final/appadmin/index</div></td></tr></table></div></td></tr><tr><td><div><table><tr><td><div>Errors</div></td></tr><tr><td><div>False</div></td></tr><tr><td><div>/admin/default/errors/final</div></td></tr></table></div></td></tr><tr><td><div><table><tr><td><div>About</div></td></tr><tr><td><div>False</div></td></tr><tr><td><div>/admin/default/about/final</div></td></tr></table></div></td></tr></table></div></td></tr></table></div></td></tr><tr><td><div><table><tr><td><div>web2py.com</div></td></tr><tr><td><div>False</div></td></tr><tr><td><div>#</div></td></tr><tr><td><div><table><tr><td><div><table><tr><td><div>Download</div></td></tr><tr><td><div>False</div></td></tr><tr><td><div>http://www.web2py.com/examples/default/download</div></td></tr></table></div></td></tr><tr><td><div><table><tr><td><div>Support</div></td></tr><tr><td><div>False</div></td></tr><tr><td><div>http://www.web2py.com/examples/default/support</div></td></tr></table></div></td></tr><tr><td><div><table><tr><td><div>Demo</div></td></tr><tr><td><div>False</div></td></tr><tr><td><div>http://web2py.com/demo_admin</div></td></tr></table></div></td></tr><tr><td><div><table><tr><td><div>Quick Examples</div></td></tr><tr><td><div>False</div></td></tr><tr><td><div>http://web2py.com/examples/default/examples</div></td></tr></table></div></td></tr><tr><td><div><table><tr><td><div>FAQ</div></td></tr><tr><td><div>False</div></td></tr><tr><td><div>http://web2py.com/AlterEgo</div></td></tr></table></div></td></tr><tr><td><div><table><tr><td><div>Videos</div></td></tr><tr><td><div>False</div></td></tr><tr><td><div>http://www.web2py.com/examples/default/videos/</div></td></tr></table></div></td></tr><tr><td><div><table><tr><td><div>Free Applications</div></td></tr><tr><td><div>False</div></td></tr><tr><td><div>http://web2py.com/appliances</div></td></tr></table></div></td></tr><tr><td><div><table><tr><td><div>Plugins</div></td></tr><tr><td><div>False</div></td></tr><tr><td><div>http://web2py.com/plugins</div></td></tr></table></div></td></tr><tr><td><div><table><tr><td><div>Recipes</div></td></tr><tr><td><div>False</div></td></tr><tr><td><div>http://web2pyslices.com/</div></td></tr></table></div></td></tr></table></div></td></tr></table></div></td></tr><tr><td><div><table><tr><td><div>Documentation</div></td></tr><tr><td><div>False</div></td></tr><tr><td><div>#</div></td></tr><tr><td><div><table><tr><td><div><table><tr><td><div>Online book</div></td></tr><tr><td><div>False</div></td></tr><tr><td><div>http://www.web2py.com/book</div></td></tr></table></div></td></tr><tr><td><div><li class="divider"></li></div></td></tr><tr><td><div><table><tr><td><div>Preface</div></td></tr><tr><td><div>False</div></td></tr><tr><td><div>http://www.web2py.com/book/default/chapter/00</div></td></tr></table></div></td></tr><tr><td><div><table><tr><td><div>Introduction</div></td></tr><tr><td><div>False</div></td></tr><tr><td><div>http://www.web2py.com/book/default/chapter/01</div></td></tr></table></div></td></tr><tr><td><div><table><tr><td><div>Python</div></td></tr><tr><td><div>False</div></td></tr><tr><td><div>http://www.web2py.com/book/default/chapter/02</div></td></tr></table></div></td></tr><tr><td><div><table><tr><td><div>Overview</div></td></tr><tr><td><div>False</div></td></tr><tr><td><div>http://www.web2py.com/book/default/chapter/03</div></td></tr></table></div></td></tr><tr><td><div><table><tr><td><div>The Core</div></td></tr><tr><td><div>False</div></td></tr><tr><td><div>http://www.web2py.com/book/default/chapter/04</div></td></tr></table></div></td></tr><tr><td><div><table><tr><td><div>The Views</div></td></tr><tr><td><div>False</div></td></tr><tr><td><div>http://www.web2py.com/book/default/chapter/05</div></td></tr></table></div></td></tr><tr><td><div><table><tr><td><div>Database</div></td></tr><tr><td><div>False</div></td></tr><tr><td><div>http://www.web2py.com/book/default/chapter/06</div></td></tr></table></div></td></tr><tr><td><div><table><tr><td><div>Forms and Validators</div></td></tr><tr><td><div>False</div></td></tr><tr><td><div>http://www.web2py.com/book/default/chapter/07</div></td></tr></table></div></td></tr><tr><td><div><table><tr><td><div>Email and SMS</div></td></tr><tr><td><div>False</div></td></tr><tr><td><div>http://www.web2py.com/book/default/chapter/08</div></td></tr></table></div></td></tr><tr><td><div><table><tr><td><div>Access Control</div></td></tr><tr><td><div>False</div></td></tr><tr><td><div>http://www.web2py.com/book/default/chapter/09</div></td></tr></table></div></td></tr><tr><td><div><table><tr><td><div>Services</div></td></tr><tr><td><div>False</div></td></tr><tr><td><div>http://www.web2py.com/book/default/chapter/10</div></td></tr></table></div></td></tr><tr><td><div><table><tr><td><div>Ajax Recipes</div></td></tr><tr><td><div>False</div></td></tr><tr><td><div>http://www.web2py.com/book/default/chapter/11</div></td></tr></table></div></td></tr><tr><td><div><table><tr><td><div>Components and Plugins</div></td></tr><tr><td><div>False</div></td></tr><tr><td><div>http://www.web2py.com/book/default/chapter/12</div></td></tr></table></div></td></tr><tr><td><div><table><tr><td><div>Deployment Recipes</div></td></tr><tr><td><div>False</div></td></tr><tr><td><div>http://www.web2py.com/book/default/chapter/13</div></td></tr></table></div></td></tr><tr><td><div><table><tr><td><div>Other Recipes</div></td></tr><tr><td><div>False</div></td></tr><tr><td><div>http://www.web2py.com/book/default/chapter/14</div></td></tr></table></div></td></tr><tr><td><div><table><tr><td><div>Helping web2py</div></td></tr><tr><td><div>False</div></td></tr><tr><td><div>http://www.web2py.com/book/default/chapter/15</div></td></tr></table></div></td></tr><tr><td><div><table><tr><td><div>Buy web2py\'s book</div></td></tr><tr><td><div>False</div></td></tr><tr><td><div>http://stores.lulu.com/web2py</div></td></tr></table></div></td></tr></table></div></td></tr></table></div></td></tr><tr><td><div><table><tr><td><div>Community</div></td></tr><tr><td><div>False</div></td></tr><tr><td><div>None</div></td></tr><tr><td><div><table><tr><td><div><table><tr><td><div>Groups</div></td></tr><tr><td><div>False</div></td></tr><tr><td><div>http://www.web2py.com/examples/default/usergroups</div></td></tr></table></div></td></tr><tr><td><div><table><tr><td><div>Twitter</div></td></tr><tr><td><div>False</div></td></tr><tr><td><div>http://twitter.com/web2py</div></td></tr></table></div></td></tr><tr><td><div><table><tr><td><div>Live Chat</div></td></tr><tr><td><div>False</div></td></tr><tr><td><div>http://webchat.freenode.net/?channels=web2py</div></td></tr></table></div></td></tr></table></div></td></tr></table></div></td></tr></table></div></td></tr><tr><td style="font-weight:bold;vertical-align:top;">meta</td><td style="vertical-align:top;">:</td><td><div><table><tr><td style="font-weight:bold;vertical-align:top;">author</td><td style="vertical-align:top;">:</td><td><div>Your Name &lt;you@example.com&gt;</div></td></tr><tr><td style="font-weight:bold;vertical-align:top;">description</td><td style="vertical-align:top;">:</td><td><div>a cool new app</div></td></tr><tr><td style="font-weight:bold;vertical-align:top;">generator</td><td style="vertical-align:top;">:</td><td><div>Web2py Web Framework</div></td></tr><tr><td style="font-weight:bold;vertical-align:top;">keywords</td><td style="vertical-align:top;">:</td><td><div>web2py, python, framework</div></td></tr></table></div></td></tr><tr><td style="font-weight:bold;vertical-align:top;">models_to_run</td><td style="vertical-align:top;">:</td><td><div><table><tr><td><div>^\\w+\\.py$</div></td></tr><tr><td><div>^default/\\w+\\.py$</div></td></tr><tr><td><div>^default/see/\\w+\\.py$</div></td></tr></table></div></td></tr><tr><td style="font-weight:bold;vertical-align:top;">postprocessing</td><td style="vertical-align:top;">:</td><td><div><table></table></div></td></tr><tr><td style="font-weight:bold;vertical-align:top;">session_client</td><td style="vertical-align:top;">:</td><td><div>127.0.0.1</div></td></tr><tr><td style="font-weight:bold;vertical-align:top;">session_cookie_compression_level</td><td style="vertical-align:top;">:</td><td><div>None</div></td></tr><tr><td style="font-weight:bold;vertical-align:top;">session_cookie_expires</td><td style="vertical-align:top;">:</td><td><div>None</div></td></tr><tr><td style="font-weight:bold;vertical-align:top;">session_cookie_key</td><td style="vertical-align:top;">:</td><td><div>None</div></td></tr><tr><td style="font-weight:bold;vertical-align:top;">session_data_name</td><td style="vertical-align:top;">:</td><td><div>session_data_final</div></td></tr><tr><td style="font-weight:bold;vertical-align:top;">session_file</td><td style="vertical-align:top;">:</td><td><div>&lt;open file &#x27;/home/abhi/Downloads/CourseMaterial/web2Py/web2py/applications/final/sessions/10c/0c1/127.0.0.1-452eaeac-894d-4ca1-bfd0-df895991fea1&#x27;, mode &#x27;rb+&#x27; at 0x7f622e8091e0&gt;</div></td></tr><tr><td style="font-weight:bold;vertical-align:top;">session_filename</td><td style="vertical-align:top;">:</td><td><div>/home/abhi/Downloads/CourseMaterial/web2Py/web2py/applications/final/sessions/127.0.0.1-452eaeac-894d-4ca1-bfd0-df895991fea1</div></td></tr><tr><td style="font-weight:bold;vertical-align:top;">session_hash</td><td style="vertical-align:top;">:</td><td><div>c8fa984942395f997b9327e21ad2a844</div></td></tr><tr><td style="font-weight:bold;vertical-align:top;">session_id</td><td style="vertical-align:top;">:</td><td><div>127.0.0.1-452eaeac-894d-4ca1-bfd0-df895991fea1</div></td></tr><tr><td style="font-weight:bold;vertical-align:top;">session_id_name</td><td style="vertical-align:top;">:</td><td><div>session_id_final</div></td></tr><tr><td style="font-weight:bold;vertical-align:top;">session_locked</td><td style="vertical-align:top;">:</td><td><div>True</div></td></tr><tr><td style="font-weight:bold;vertical-align:top;">session_masterapp</td><td style="vertical-align:top;">:</td><td><div>final</div></td></tr><tr><td style="font-weight:bold;vertical-align:top;">session_new</td><td style="vertical-align:top;">:</td><td><div>False</div></td></tr><tr><td style="font-weight:bold;vertical-align:top;">session_storage_type</td><td style="vertical-align:top;">:</td><td><div>file</div></td></tr><tr><td style="font-weight:bold;vertical-align:top;">status</td><td style="vertical-align:top;">:</td><td><div>200</div></td></tr><tr><td style="font-weight:bold;vertical-align:top;">subtitle</td><td style="vertical-align:top;">:</td><td><div></div></td></tr><tr><td style="font-weight:bold;vertical-align:top;">title</td><td style="vertical-align:top;">:</td><td><div>Final</div></td></tr><tr><td style="font-weight:bold;vertical-align:top;">view</td><td style="vertical-align:top;">:</td><td><div>default/see.html</div></td></tr></table></div>'
tRp198
sS'locals'
p199
(dp200
S'self'
p201
S'<Response [404]>'
p202
sS'http_error_msg'
p203
S"'404 Client Error: Not Found'"
p204
sssS'traceback'
p205
S'Traceback (most recent call last):\n  File "/home/abhi/Downloads/CourseMaterial/web2Py/web2py/gluon/restricted.py", line 227, in restricted\n    exec ccode in environment\n  File "/home/abhi/Downloads/CourseMaterial/web2Py/web2py/applications/final/views/default/see.html", line 98, in <module>\n  File "/usr/local/lib/python2.7/dist-packages/soundcloud/client.py", line 130, in _request\n    return wrapped_resource(make_request(method, url, kwargs))\n  File "/usr/local/lib/python2.7/dist-packages/soundcloud/request.py", line 134, in make_request\n    result.raise_for_status()\n  File "/usr/lib/python2.7/dist-packages/requests/models.py", line 773, in raise_for_status\n    raise HTTPError(http_error_msg, response=self)\nHTTPError: 404 Client Error: Not Found\n'
p206
s.