(dp1
S'output'
p2
S"<class 'ssl.SSLError'> [Errno 8] _ssl.c:510: EOF occurred in violation of protocol"
p3
sS'layer'
p4
S'/home/abhi/Downloads/CourseMaterial/web2Py/web2py/applications/final/controllers/default.py'
p5
sS'code'
p6
S'# -*- coding: utf-8 -*-\n# this file is released under public domain and you can use without limitations\n\n#########################################################################\n## This is a sample controller\n## - index is the default action of any application\n## - user is required for authentication and authorization\n## - download is for downloading files uploaded in the db (does streaming)\n#########################################################################\nimport soundcloud\nfrom apiclient.discovery import build\nfrom apiclient.errors import HttpError\nfrom oauth2client.tools import argparser\n\n\n# Set DEVELOPER_KEY to the API key value from the APIs & auth > Registered apps\n# tab of\n#   https://cloud.google.com/console\n# Please ensure that you have enabled the YouTube Data API for your project.\nDEVELOPER_KEY = "AIzaSyBY_Z6jpdpSddA1VQEbAM6x0lNxLWyAir0"\nYOUTUBE_API_SERVICE_NAME = "youtube"\nYOUTUBE_API_VERSION = "v3"\n\nclient = soundcloud.Client(client_id=\'f4e257503f0990527a6e17e14158076e\')\n\n\n\n\n\n\n\n\n\n\n\n\n\ndef index():\n    form = SQLFORM.factory(Field(\'query\',\'string\'), Field(\'option\') ,formstyle=\'divs\', submit_button="Search")\n    response.flash = T("Hello World")\n    if form.process().accepted:\n        #k=redirect(URL(\'default\',\'results\', args=[1, formone.vars.search_query_1]))\n        print form.vars.query\n        redirect(URL(\'default\',\'search_results\', args=[form.vars.option, form.vars.query]))\n    elif form.errors:\n        print "failed"\n    else:\n        print "unknown"\n    #return dict(form=form)\n    return locals()\n\n\ndef test():\n    \n    form = SQLFORM.factory(Field(\'query\',\'string\'), Field(\'option\') ,formstyle=\'divs\', submit_button="Search")\n    response.flash = T("Hello World")\n    if form.process().accepted:\n        #k=redirect(URL(\'default\',\'results\', args=[1, formone.vars.search_query_1]))\n        print form.vars.query\n        redirect(URL(\'default\',\'search_results\', args=[form.vars.option, form.vars.query]))\n    elif form.errors:\n        print "failed"\n    else:\n        print "unknown"\n    return locals()\n\n\ndef search_results():\n    form = SQLFORM.factory(Field(\'query\',\'string\'), Field(\'option\'),formstyle=\'divs\', submit_button="Search")\n    if form.process().accepted:\n        #k=redirect(URL(\'default\',\'results\', args=[1, formone.vars.search_query_1]))\n        print form.vars.query\n        redirect(URL(\'default\',\'search_results\', args=[form.vars.option, form.vars.query]))\n    elif form.errors:\n        print "failed"\n    else:\n        print "unknown"\n    search = request.args(0) or redirect(URL(\'default\',\'index\'))\n    if search == \'V\':\n        import sys\n        reload(sys)\n        sys.setdefaultencoding("utf-8")\n        query = request.args(1) or redirect(URL(\'default\',\'index\'))\n        youtube = build(YOUTUBE_API_SERVICE_NAME, YOUTUBE_API_VERSION,developerKey=DEVELOPER_KEY)\n        search_response = youtube.search().list(q=query.encode(\'utf-8\'),part="id,snippet",maxResults=20).execute()\n        l=[]\n        videos = []\n        channels = []\n        playlists = []\n        for search_result in search_response.get("items", []):\n            if search_result["id"]["kind"] == "youtube#video":\n                l.append(search_result["snippet"]["title"])\n                l.append(search_result["id"]["videoId"])\n                videos.append(l)\n                l=[]\n            elif search_result["id"]["kind"] == "youtube#channel":\n                channels.append("%s (%s)" % (search_result["snippet"]["title"],\n                                   search_result["id"]["channelId"]))\n            elif search_result["id"]["kind"] == "youtube#playlist":\n                playlists.append("%s (%s)" % (search_result["snippet"]["title"],\n                                    search_result["id"]["playlistId"]))\n        return dict(videos=videos[0:20],search=search,form=form,query=query)\n    elif search == \'A\':\n        query = request.args(1) or redirect(URL(\'default\',\'index\'))\n        tracks = client.get(\'/tracks\', q=query, limit=20)\n        """emb = []\n        for track in tracks:\n            print track.stream_url\n            url = client.get(track.stream_url, allow_redirects=False)\n            emb.append(url.location)\n            print url.location\n            #print type(track.title)"""\n        for t in tracks:\n            url=t.permalink_url\n            #print url\n            embed_info = client.get(\'/oembed\', url=url)\n            #print embed_info.html\n            #for x in t:\n            #    print x,t[x]\n            #print "\\n\\n"\n        return dict(tracks=tracks,search=search,form=form,query=query)\n\n\n"""def display_manual_form():\n    #form = SQLFORM(db.person)\n    form = SQLFORM.factory(Field(\'s1\',\'string\'), formstyle=\'divs\', submit_button="Search")\n    if form.process(session=None, formname=\'test\').accepted:\n        print query\n    elif form.errors:\n        response.flash = \'form has errors\'\n    else:\n        response.flash = \'please fill the form\'\n    # Note: no form instance is passed to the view\n    return dict()"""\n\ndef spons_playlist():\n    form = SQLFORM.factory(Field(\'query\',\'string\'), Field(\'option\') ,formstyle=\'divs\', submit_button="Search")\n    if form.process().accepted:\n        #k=redirect(URL(\'default\',\'results\', args=[1, formone.vars.search_query_1]))\n        print form.vars.query\n        redirect(URL(\'default\',\'search_results\', args=[form.vars.option, form.vars.query]))\n    elif form.errors:\n        print "failed"\n    else:\n        print "unknown"\n    #search = request.args(0, cast=int) or redirect(URL(\'default\',\'index\'))\n    return dict(form=form)\n\n"""def form_component():\n    form = SQLFORM.factory(Field(\'query\',\'string\'), formstyle=\'divs\', submit_button="Search")\n    if form.process().accepted:\n        #k=redirect(URL(\'default\',\'results\', args=[1, formone.vars.search_query_1]))\n        print form.vars.query\n        redirect(URL(\'default\',\'search_results\', args=[1, form.vars.query]))\n    elif form.errors:\n        print "failed"\n    else:\n        print "unknown"\n    songs = db(db.songs.genre==)\n    #search = request.args(0, cast=int) or redirect(URL(\'default\',\'index\'))\n    return locals()"""\n\n\n#@auth.requires_login()\ndef vote():\n    id=request.args(0,cast=int)\n    #print id\n    flag=True\n    if auth.user:\n        song=db.songs(id)\n        likes=db.songs_like(db.songs_like.songs1==id)\n        #print song\n        #print likes\n        if song:\n            if likes:\n                q=db((db.songs_like.user_id==auth.user.id)&(db.songs_like.songs1==id)).select()\n                print q[0].total\n                if q[0].total==0:\n                    print "Increased Like"\n                    song.update_record(Likes=song.Likes+1)\n                    likes.update_record(total=1)\n                    flag=False\n                else:\n                    print "Deleted Like"\n                    if song.Likes!=0:\n                        song.update_record(Likes=song.Likes-1)\n                    else:\n                        song.update_record(Likes=0)\n                    likes.update_record(total=0)\n                    flag=True\n                    #db((db.songs_like.songs1==song.id)&(db.songs_like.user_id==auth.user.id)).delete()\n            else:\n                #print auth.user.id , song.id\n                db.songs_like.insert(total=1,songs1=song.id,user_id=auth.user.id)\n        else:\n            return str("Song on which you tried to vote doesnt exist")\n        song=db.songs(id)\n        return str(song.Likes)\n    else:\n        return str("Please Log IN")\n\n\n\n@auth.requires_login()\ndef mark_favourite():\n    id=request.args(0,cast=int)\n    print id\n    x=db((db.favourite.songid==id)&(db.favourite.user_id==auth.user.id)).select()\n    print "x is = "\n    print x\n    if not x:\n        db.favourite.insert(songid=id,user_id=auth.user.id)\n        redirect(URL(\'default\',\'see\', args=[1,id]))\n    else :\n        redirect(URL(\'default\',\'index\'))\n\n@auth.requires_login()\ndef favsong():\n    form = SQLFORM.factory(Field(\'query\',\'string\'),Field(\'option\') ,formstyle=\'divs\', submit_button="Search")\n    if form.process().accepted:\n        #k=redirect(URL(\'default\',\'results\', args=[1, formone.vars.search_query_1]))\n        print form.vars.query\n        print form.vars.option\n        redirect(URL(\'default\',\'search_results\', args=[form.vars.option, form.vars.query]))\n    elif form.errors:\n        print "failed"\n    else:\n        print "unknown"\n    result=db(db.favourite.user_id==auth.user.id).select()\n    l=[]\n    for r in result:\n        k=db(db.songs.id==r.songid).select()\n        if k[0].category == \'Audio\':\n            l.append(k[0])\n    return dict(song=l,form=form)\n\n@auth.requires_login()\ndef favideo():\n    form = SQLFORM.factory(Field(\'query\',\'string\'), Field(\'option\') ,formstyle=\'divs\', submit_button="Search")\n    if form.process().accepted:\n        #k=redirect(URL(\'default\',\'results\', args=[1, formone.vars.search_query_1]))\n        print form.vars.query\n        redirect(URL(\'default\',\'search_results\', args=[form.vars.option, form.vars.query]))\n    elif form.errors:\n        print "failed"\n    else:\n        print "unknown"\n    result=db(db.favourite.user_id==auth.user.id).select()\n    l=[]\n    for r in result:\n        k=db(db.songs.id==r.songid).select()\n        if k[0].category == \'Video\':\n            l.append(k[0])\n    return dict(song=l,form=form)\n\ndef widgets():\n    form = SQLFORM.factory(Field(\'query\',\'string\'),Field(\'option\') , formstyle=\'divs\', submit_button="Search")\n    if form.process().accepted:\n        #k=redirect(URL(\'default\',\'results\', args=[1, formone.vars.search_query_1]))\n        print form.vars.query\n        redirect(URL(\'default\',\'search_results\', args=[form.vars.option, form.vars.query]))\n    elif form.errors:\n        print "failed"\n    else:\n        print "unknown"\n\n    song=db().select(db.songs.title,db.songs.id,db.songs.category)\n    return locals()\n\n\ndef radio():\n\n    form = SQLFORM.factory(Field(\'query\',\'string\'), Field(\'option\') ,formstyle=\'divs\', submit_button="Search")\n    response.flash = T("Hello World")\n    if form.process().accepted:\n        #k=redirect(URL(\'default\',\'results\', args=[1, formone.vars.search_query_1]))\n        print form.vars.query\n        redirect(URL(\'default\',\'search_results\', args=[form.vars.option, form.vars.query]))\n    elif form.errors:\n        print "failed"\n    else:\n        print "unknown"\n    import json\n    import urllib2\n    url = "http://api.dirble.com/v2/stations?per_page=30&token=f1a8a36dd125c2e665dafec481"\n    data = json.load(urllib2.urlopen(url))\n    #return dict(form=form)\n    return locals()\n\ndef see():\n    form = SQLFORM.factory(Field(\'query\',\'string\'),Field(\'option\') , formstyle=\'divs\', submit_button="Search")\n    if form.process().accepted:\n        #k=redirect(URL(\'default\',\'results\', args=[1, formone.vars.search_query_1]))\n        #print form.vars.query\n        redirect(URL(\'default\',\'search_results\', args=[form.vars.option, form.vars.query]))\n    elif form.errors:\n        print "failed"\n    else:\n        print "unknown"\n    id=request.args(0,cast=int)\n    #print db.songs(id)\n    song=db.songs(id) or redirect(URL(\'index\'))\n    comments=db(db.cmnt.songs1==song.id).select()\n    #print song.id\n    #song.Likes.default=0\n    Likes=song.Likes\n    #print Likes\n    #for comment in comments:\n    if auth.user:\n        #db.cmnt.songs1=id\n        db.cmnt.songs1.default=id\n        formcmnt=SQLFORM(db.cmnt)\n        if formcmnt.process().accepted:\n            redirect(URL(\'see\',args=id))\n        else:\n            response.flash="Success!"\n    else:\n        formcmnt=A("Please Login for commenting and liking",_href=URL(\'user/login\',vars=dict(_next=URL(args=request.args))))\n    return locals()\n\ndef upload():\n    form=SQLFORM(db.videos, fields=[\'title\',\'description\',\'video\'])\n    return locals()\n\ndef insert():\n    vars=request.get_vars\n    title=vars.title\n    url=vars.url\n    print url\n    category=vars.category\n    genre=vars.genre\n    likes=0\n    existing=db(db.songs.title==vars.title).select()\n    #if category == \'Audio\':\n        #url = client.get(url, allow_redirects=False)\n        #url=url.location\n    if existing:\n        new_id=existing.id\n    else:    \n        db.songs.insert(title=title,url=url,category=category,genre=genre,Likes=likes)\n        new_id=db(db.songs.id>0).count()\n    redirect(URL(\'see\',args=new_id))\n\n"""def see():\n    x=0\n    id=request.args(0,cast=int)\n    print db.songs(id)\n    song=db.songs(id) or redirect(URL(\'index\'))\n    comments=db(db.cmnt.songs1==song.id).select()\n    print song.id\n    #song.Likes.default=0\n    Likes=song.Likes\n    #for comment in comments:\n    if auth.user:\n        #db.cmnt.songs1=id\n        db.cmnt.songs1.default=id\n        form=SQLFORM(db.cmnt)\n        if form.process().accepted:\n            redirect(URL(\'see\',args=id))\n        else:\n            response.flash="Success!"\n    else:\n        form=A("Please Login for commenting and liking",_href=URL(\'user/login\',vars=dict(_next=URL(args=request.args))))\n    return locals()\n"""\n\n@auth.requires_login()\ndef mark_favourite():\n    id=request.args(0,cast=int)\n    print id\n    x=db((db.favourite.songid==id)&(db.favourite.user_id==auth.user.id)).select()\n    print "x is = "\n    print x\n    if not x:\n        db.favourite.insert(songid=id,user_id=auth.user.id)\n        redirect(URL(\'default\',\'see\', args=[1,id]))\n    else :\n        redirect(URL(\'default\',\'index\'))\n\ndef user():\n    """\n    exposes:\n    http://..../[app]/default/user/login\n    http://..../[app]/default/user/logout\n    http://..../[app]/default/user/register\n    http://..../[app]/default/user/profile\n    http://..../[app]/default/user/retrieve_password\n    http://..../[app]/default/user/change_password\n    http://..../[app]/default/user/manage_users (requires membership in\n    http://..../[app]/default/user/bulk_register\n    use @auth.requires_login()\n        @auth.requires_membership(\'group name\')\n        @auth.requires_permission(\'read\',\'table name\',record_id)\n    to decorate functions that need access control\n    """\n    return dict(form=auth())\n\n\n@cache.action()\ndef download():\n    """\n    allows downloading of uploaded files\n    http://..../[app]/default/download/[filename]\n    """\n    return response.download(request, db)\n\n\ndef call():\n    """\n    exposes services. for example:\n    http://..../[app]/default/call/jsonrpc\n    decorate with @services.jsonrpc the functions to expose\n    supports xml, json, xmlrpc, jsonrpc, amfrpc, rss, csv\n    """\n    return service()\nresponse._vars=response._caller(search_results)\n'
p7
sS'snapshot'
p8
(dp9
S'exception'
p10
(dp11
S'__module__'
p12
S"'ssl'"
p13
sS'__getslice__'
p14
S"<method-wrapper '__getslice__' of SSLError object>"
p15
sS'__str__'
p16
S"<method-wrapper '__str__' of SSLError object>"
p17
sS'__reduce__'
p18
S'<built-in method __reduce__ of SSLError object>'
p19
sS'__dict__'
p20
S'{}'
p21
sS'__sizeof__'
p22
S'<built-in method __sizeof__ of SSLError object>'
p23
sS'__weakref__'
p24
S'None'
p25
sS'__init__'
p26
S"<method-wrapper '__init__' of SSLError object>"
p27
sS'__setattr__'
p28
S"<method-wrapper '__setattr__' of SSLError object>"
p29
sS'__reduce_ex__'
p30
S'<built-in method __reduce_ex__ of SSLError object>'
p31
sS'__new__'
p32
S'<built-in method __new__ of type object>'
p33
sS'errno'
p34
S'8'
sS'__format__'
p35
S'<built-in method __format__ of SSLError object>'
p36
sS'__class__'
p37
S"<class 'ssl.SSLError'>"
p38
sS'filename'
p39
S'None'
p40
sS'__doc__'
p41
S'None'
p42
sS'__getitem__'
p43
S"<method-wrapper '__getitem__' of SSLError object>"
p44
sS'__setstate__'
p45
S'<built-in method __setstate__ of SSLError object>'
p46
sS'__getattribute__'
p47
S"<method-wrapper '__getattribute__' of SSLError object>"
p48
sS'args'
p49
S"(8, '_ssl.c:510: EOF occurred in violation of protocol')"
p50
sS'__subclasshook__'
p51
S'<built-in method __subclasshook__ of type object>'
p52
sS'__unicode__'
p53
S'<built-in method __unicode__ of SSLError object>'
p54
sS'strerror'
p55
S"'_ssl.c:510: EOF occurred in violation of protocol'"
p56
sS'__delattr__'
p57
S"<method-wrapper '__delattr__' of SSLError object>"
p58
sS'__repr__'
p59
S"<method-wrapper '__repr__' of SSLError object>"
p60
sS'__hash__'
p61
S"<method-wrapper '__hash__' of SSLError object>"
p62
ssS'evalue'
p63
S'[Errno 8] _ssl.c:510: EOF occurred in violation of protocol'
p64
sS'request'
p65
cgluon.html
XML_unpickle
p66
(S's\xf0]\x00\x00<div><table><tr><td style="font-weight:bold;vertical-align:top;">ajax</td><td style="vertical-align:top;">:</td><td><div>False</div></td></tr><tr><td style="font-weight:bold;vertical-align:top;">application</td><td style="vertical-align:top;">:</td><td><div>final</div></td></tr><tr><td style="font-weight:bold;vertical-align:top;">args</td><td style="vertical-align:top;">:</td><td><div><table><tr><td><div>V</div></td></tr><tr><td><div>check</div></td></tr></table></div></td></tr><tr><td style="font-weight:bold;vertical-align:top;">cid</td><td style="vertical-align:top;">:</td><td><div>None</div></td></tr><tr><td style="font-weight:bold;vertical-align:top;">client</td><td style="vertical-align:top;">:</td><td><div>127.0.0.1</div></td></tr><tr><td style="font-weight:bold;vertical-align:top;">controller</td><td style="vertical-align:top;">:</td><td><div>default</div></td></tr><tr><td style="font-weight:bold;vertical-align:top;">cookies</td><td style="vertical-align:top;">:</td><td><div><table><tr><td style="font-weight:bold;vertical-align:top;">session_id_admin</td><td style="vertical-align:top;">:</td><td><div>127.0.0.1-a455abdb-8919-41fc-9d33-7fcffcd0d05a<table><tr><td style="font-weight:bold;vertical-align:top;">comment</td><td style="vertical-align:top;">:</td><td><div></div></td></tr><tr><td style="font-weight:bold;vertical-align:top;">domain</td><td style="vertical-align:top;">:</td><td><div></div></td></tr><tr><td style="font-weight:bold;vertical-align:top;">expires</td><td style="vertical-align:top;">:</td><td><div></div></td></tr><tr><td style="font-weight:bold;vertical-align:top;">httponly</td><td style="vertical-align:top;">:</td><td><div></div></td></tr><tr><td style="font-weight:bold;vertical-align:top;">max-age</td><td style="vertical-align:top;">:</td><td><div></div></td></tr><tr><td style="font-weight:bold;vertical-align:top;">path</td><td style="vertical-align:top;">:</td><td><div></div></td></tr><tr><td style="font-weight:bold;vertical-align:top;">secure</td><td style="vertical-align:top;">:</td><td><div></div></td></tr><tr><td style="font-weight:bold;vertical-align:top;">version</td><td style="vertical-align:top;">:</td><td><div></div></td></tr></table></div></td></tr><tr><td style="font-weight:bold;vertical-align:top;">session_id_final</td><td style="vertical-align:top;">:</td><td><div>127.0.0.1-5d350226-91e3-4346-9403-4789edecb509<table><tr><td style="font-weight:bold;vertical-align:top;">comment</td><td style="vertical-align:top;">:</td><td><div></div></td></tr><tr><td style="font-weight:bold;vertical-align:top;">domain</td><td style="vertical-align:top;">:</td><td><div></div></td></tr><tr><td style="font-weight:bold;vertical-align:top;">expires</td><td style="vertical-align:top;">:</td><td><div></div></td></tr><tr><td style="font-weight:bold;vertical-align:top;">httponly</td><td style="vertical-align:top;">:</td><td><div></div></td></tr><tr><td style="font-weight:bold;vertical-align:top;">max-age</td><td style="vertical-align:top;">:</td><td><div></div></td></tr><tr><td style="font-weight:bold;vertical-align:top;">path</td><td style="vertical-align:top;">:</td><td><div></div></td></tr><tr><td style="font-weight:bold;vertical-align:top;">secure</td><td style="vertical-align:top;">:</td><td><div></div></td></tr><tr><td style="font-weight:bold;vertical-align:top;">version</td><td style="vertical-align:top;">:</td><td><div></div></td></tr></table></div></td></tr><tr><td style="font-weight:bold;vertical-align:top;">session_id_mymusic</td><td style="vertical-align:top;">:</td><td><div>127.0.0.1-141ee10f-7e7d-4604-8acf-a013fce4b3fe<table><tr><td style="font-weight:bold;vertical-align:top;">comment</td><td style="vertical-align:top;">:</td><td><div></div></td></tr><tr><td style="font-weight:bold;vertical-align:top;">domain</td><td style="vertical-align:top;">:</td><td><div></div></td></tr><tr><td style="font-weight:bold;vertical-align:top;">expires</td><td style="vertical-align:top;">:</td><td><div></div></td></tr><tr><td style="font-weight:bold;vertical-align:top;">httponly</td><td style="vertical-align:top;">:</td><td><div></div></td></tr><tr><td style="font-weight:bold;vertical-align:top;">max-age</td><td style="vertical-align:top;">:</td><td><div></div></td></tr><tr><td style="font-weight:bold;vertical-align:top;">path</td><td style="vertical-align:top;">:</td><td><div></div></td></tr><tr><td style="font-weight:bold;vertical-align:top;">secure</td><td style="vertical-align:top;">:</td><td><div></div></td></tr><tr><td style="font-weight:bold;vertical-align:top;">version</td><td style="vertical-align:top;">:</td><td><div></div></td></tr></table></div></td></tr></table></div></td></tr><tr><td style="font-weight:bold;vertical-align:top;">env</td><td style="vertical-align:top;">:</td><td><div><table><tr><td style="font-weight:bold;vertical-align:top;">HTTP_ACCEPT</td><td style="vertical-align:top;">:</td><td><div>text/html,application/xhtml+xml,application/xml;q=0.9,*/*;q=0.8</div></td></tr><tr><td style="font-weight:bold;vertical-align:top;">HTTP_ACCEPT_ENCODING</td><td style="vertical-align:top;">:</td><td><div>gzip, deflate</div></td></tr><tr><td style="font-weight:bold;vertical-align:top;">HTTP_ACCEPT_LANGUAGE</td><td style="vertical-align:top;">:</td><td><div>en-US,en;q=0.5</div></td></tr><tr><td style="font-weight:bold;vertical-align:top;">HTTP_CONNECTION</td><td style="vertical-align:top;">:</td><td><div>keep-alive</div></td></tr><tr><td style="font-weight:bold;vertical-align:top;">HTTP_COOKIE</td><td style="vertical-align:top;">:</td><td><div>session_id_admin=127.0.0.1-a455abdb-8919-41fc-9d33-7fcffcd0d05a; session_id_final=127.0.0.1-5d350226-91e3-4346-9403-4789edecb509; session_id_mymusic=127.0.0.1-141ee10f-7e7d-4604-8acf-a013fce4b3fe</div></td></tr><tr><td style="font-weight:bold;vertical-align:top;">HTTP_DNT</td><td style="vertical-align:top;">:</td><td><div>1</div></td></tr><tr><td style="font-weight:bold;vertical-align:top;">HTTP_HOST</td><td style="vertical-align:top;">:</td><td><div>127.0.0.1:8000</div></td></tr><tr><td style="font-weight:bold;vertical-align:top;">HTTP_REFERER</td><td style="vertical-align:top;">:</td><td><div>http://127.0.0.1:8000/final/</div></td></tr><tr><td style="font-weight:bold;vertical-align:top;">HTTP_USER_AGENT</td><td style="vertical-align:top;">:</td><td><div>Mozilla/5.0 (X11; Ubuntu; Linux x86_64; rv:41.0) Gecko/20100101 Firefox/41.0</div></td></tr><tr><td style="font-weight:bold;vertical-align:top;">PATH_INFO</td><td style="vertical-align:top;">:</td><td><div>/final/default/search_results/V/check</div></td></tr><tr><td style="font-weight:bold;vertical-align:top;">QUERY_STRING</td><td style="vertical-align:top;">:</td><td><div></div></td></tr><tr><td style="font-weight:bold;vertical-align:top;">REMOTE_ADDR</td><td style="vertical-align:top;">:</td><td><div>127.0.0.1</div></td></tr><tr><td style="font-weight:bold;vertical-align:top;">REMOTE_PORT</td><td style="vertical-align:top;">:</td><td><div>59169</div></td></tr><tr><td style="font-weight:bold;vertical-align:top;">REQUEST_METHOD</td><td style="vertical-align:top;">:</td><td><div>GET</div></td></tr><tr><td style="font-weight:bold;vertical-align:top;">SCRIPT_NAME</td><td style="vertical-align:top;">:</td><td><div></div></td></tr><tr><td style="font-weight:bold;vertical-align:top;">SERVER_NAME</td><td style="vertical-align:top;">:</td><td><div>abhi-Vostro-3546</div></td></tr><tr><td style="font-weight:bold;vertical-align:top;">SERVER_PORT</td><td style="vertical-align:top;">:</td><td><div>8000</div></td></tr><tr><td style="font-weight:bold;vertical-align:top;">SERVER_PROTOCOL</td><td style="vertical-align:top;">:</td><td><div>HTTP/1.1</div></td></tr><tr><td style="font-weight:bold;vertical-align:top;">SERVER_SOFTWARE</td><td style="vertical-align:top;">:</td><td><div>Rocket 1.2.6</div></td></tr><tr><td style="font-weight:bold;vertical-align:top;">app_folders</td><td style="vertical-align:top;">:</td><td><div>set([&#x27;/home/abhi/Downloads/CourseMaterial/web2Py/web2py/applications/welcome/&#x27;, &#x27;/home/abhi/Downloads/CourseMaterial/web2Py/web2py/applications/mymusic/&#x27;, &#x27;/home/abhi/Downloads/CourseMaterial/web2Py/web2py/applications/final/&#x27;, &#x27;/home/abhi/Downloads/CourseMaterial/web2Py/web2py/applications/admin/&#x27;])</div></td></tr><tr><td style="font-weight:bold;vertical-align:top;">applications_parent</td><td style="vertical-align:top;">:</td><td><div>/home/abhi/Downloads/CourseMaterial/web2Py/web2py</div></td></tr><tr><td style="font-weight:bold;vertical-align:top;">cmd_args</td><td style="vertical-align:top;">:</td><td><div><table></table></div></td></tr><tr><td style="font-weight:bold;vertical-align:top;">cmd_options</td><td style="vertical-align:top;">:</td><td><div>&lt;Values at 0x7f9c9bf1d050: {&#x27;verbose&#x27;: False, &#x27;ip&#x27;: &#x27;127.0.0.1&#x27;, &#x27;debuglevel&#x27;: 30, &#x27;with_scheduler&#x27;: False, &#x27;ips&#x27;: [&#x27;127.0.1.1&#x27;], &#x27;shutdown_timeout&#x27;: 5, &#x27;taskbar&#x27;: False, &#x27;with_coverage&#x27;: False, &#x27;scheduler_groups&#x27;: None, &#x27;port&#x27;: 8000, &#x27;maxthreads&#x27;: None, &#x27;softcron&#x27;: False, &#x27;server_name&#x27;: &#x27;abhi-Vostro-3546&#x27;, &#x27;bpython&#x27;: False, &#x27;nogui&#x27;: False, &#x27;pid_filename&#x27;: &#x27;httpserver.pid&#x27;, &#x27;print_errors&#x27;: False, &#x27;extcron&#x27;: False, &#x27;runcron&#x27;: False, &#x27;run_system_tests&#x27;: False, &#x27;test&#x27;: None, &#x27;folder&#x27;: &#x27;/home/abhi/Downloads/CourseMaterial/web2Py/web2py&#x27;, &#x27;config&#x27;: &#x27;&#x27;, &#x27;minthreads&#x27;: None, &#x27;shell&#x27;: None, &#x27;run&#x27;: &#x27;&#x27;, &#x27;log_filename&#x27;: &#x27;httpserver.log&#x27;, &#x27;profiler_dir&#x27;: None, &#x27;args&#x27;: [&#x27;&#x27;], &#x27;socket_timeout&#x27;: 5, &#x27;ssl_ca_certificate&#x27;: None, &#x27;scheduler&#x27;: None, &#x27;interfaces&#x27;: None, &#x27;ssl_private_key&#x27;: &#x27;&#x27;, &#x27;gae&#x27;: None, &#x27;password&#x27;: &#x27;&lt;ask&gt;&#x27;, &#x27;request_queue_size&#x27;: 5, &#x27;ssl_certificate&#x27;: &#x27;&#x27;, &#x27;cronjob&#x27;: False, &#x27;numthreads&#x27;: None, &#x27;quiet&#x27;: False, &#x27;import_models&#x27;: False, &#x27;timeout&#x27;: 10, &#x27;plain&#x27;: False, &#x27;nobanner&#x27;: False}&gt;</div></td></tr><tr><td style="font-weight:bold;vertical-align:top;">db_sessions</td><td style="vertical-align:top;">:</td><td><div>set([])</div></td></tr><tr><td style="font-weight:bold;vertical-align:top;">debugging</td><td style="vertical-align:top;">:</td><td><div>False</div></td></tr><tr><td style="font-weight:bold;vertical-align:top;">gluon_parent</td><td style="vertical-align:top;">:</td><td><div>/home/abhi/Downloads/CourseMaterial/web2Py/web2py</div></td></tr><tr><td style="font-weight:bold;vertical-align:top;">http_accept</td><td style="vertical-align:top;">:</td><td><div>text/html,application/xhtml+xml,application/xml;q=0.9,*/*;q=0.8</div></td></tr><tr><td style="font-weight:bold;vertical-align:top;">http_accept_encoding</td><td style="vertical-align:top;">:</td><td><div>gzip, deflate</div></td></tr><tr><td style="font-weight:bold;vertical-align:top;">http_accept_language</td><td style="vertical-align:top;">:</td><td><div>en-US,en;q=0.5</div></td></tr><tr><td style="font-weight:bold;vertical-align:top;">http_connection</td><td style="vertical-align:top;">:</td><td><div>keep-alive</div></td></tr><tr><td style="font-weight:bold;vertical-align:top;">http_cookie</td><td style="vertical-align:top;">:</td><td><div>session_id_admin=127.0.0.1-a455abdb-8919-41fc-9d33-7fcffcd0d05a; session_id_final=127.0.0.1-5d350226-91e3-4346-9403-4789edecb509; session_id_mymusic=127.0.0.1-141ee10f-7e7d-4604-8acf-a013fce4b3fe</div></td></tr><tr><td style="font-weight:bold;vertical-align:top;">http_dnt</td><td style="vertical-align:top;">:</td><td><div>1</div></td></tr><tr><td style="font-weight:bold;vertical-align:top;">http_host</td><td style="vertical-align:top;">:</td><td><div>127.0.0.1:8000</div></td></tr><tr><td style="font-weight:bold;vertical-align:top;">http_referer</td><td style="vertical-align:top;">:</td><td><div>http://127.0.0.1:8000/final/</div></td></tr><tr><td style="font-weight:bold;vertical-align:top;">http_user_agent</td><td style="vertical-align:top;">:</td><td><div>Mozilla/5.0 (X11; Ubuntu; Linux x86_64; rv:41.0) Gecko/20100101 Firefox/41.0</div></td></tr><tr><td style="font-weight:bold;vertical-align:top;">is_jython</td><td style="vertical-align:top;">:</td><td><div>False</div></td></tr><tr><td style="font-weight:bold;vertical-align:top;">is_pypy</td><td style="vertical-align:top;">:</td><td><div>False</div></td></tr><tr><td style="font-weight:bold;vertical-align:top;">is_source</td><td style="vertical-align:top;">:</td><td><div>True</div></td></tr><tr><td style="font-weight:bold;vertical-align:top;">local_hosts</td><td style="vertical-align:top;">:</td><td><div><table><tr><td><div>::1</div></td></tr><tr><td><div>127.0.1.1</div></td></tr><tr><td><div>::ffff:127.0.0.1</div></td></tr><tr><td><div>127.0.0.1</div></td></tr><tr><td><div>abhi-Vostro-3546</div></td></tr></table></div></td></tr><tr><td style="font-weight:bold;vertical-align:top;">path_info</td><td style="vertical-align:top;">:</td><td><div>/final/default/search_results/V/check</div></td></tr><tr><td style="font-weight:bold;vertical-align:top;">query_string</td><td style="vertical-align:top;">:</td><td><div></div></td></tr><tr><td style="font-weight:bold;vertical-align:top;">remote_addr</td><td style="vertical-align:top;">:</td><td><div>127.0.0.1</div></td></tr><tr><td style="font-weight:bold;vertical-align:top;">remote_port</td><td style="vertical-align:top;">:</td><td><div>59169</div></td></tr><tr><td style="font-weight:bold;vertical-align:top;">request_method</td><td style="vertical-align:top;">:</td><td><div>GET</div></td></tr><tr><td style="font-weight:bold;vertical-align:top;">request_uri</td><td style="vertical-align:top;">:</td><td><div>/final/default/search_results/V/check</div></td></tr><tr><td style="font-weight:bold;vertical-align:top;">script_name</td><td style="vertical-align:top;">:</td><td><div></div></td></tr><tr><td style="font-weight:bold;vertical-align:top;">server_name</td><td style="vertical-align:top;">:</td><td><div>abhi-Vostro-3546</div></td></tr><tr><td style="font-weight:bold;vertical-align:top;">server_port</td><td style="vertical-align:top;">:</td><td><div>8000</div></td></tr><tr><td style="font-weight:bold;vertical-align:top;">server_protocol</td><td style="vertical-align:top;">:</td><td><div>HTTP/1.1</div></td></tr><tr><td style="font-weight:bold;vertical-align:top;">server_software</td><td style="vertical-align:top;">:</td><td><div>Rocket 1.2.6</div></td></tr><tr><td style="font-weight:bold;vertical-align:top;">web2py_path</td><td style="vertical-align:top;">:</td><td><div>/home/abhi/Downloads/CourseMaterial/web2Py/web2py</div></td></tr><tr><td style="font-weight:bold;vertical-align:top;">web2py_version</td><td style="vertical-align:top;">:</td><td><div>2.12.3-stable+timestamp.2015.08.19.00.18.03</div></td></tr><tr><td style="font-weight:bold;vertical-align:top;">wsgi.errors</td><td style="vertical-align:top;">:</td><td><div>&lt;open file &#x27;&lt;stderr&gt;&#x27;, mode &#x27;w&#x27; at 0x7f9ca317a1e0&gt;</div></td></tr><tr><td style="font-weight:bold;vertical-align:top;">wsgi.file_wrapper</td><td style="vertical-align:top;">:</td><td><div>&lt;class wsgiref.util.FileWrapper at 0x7f9c9bfa4e88&gt;</div></td></tr><tr><td style="font-weight:bold;vertical-align:top;">wsgi.input</td><td style="vertical-align:top;">:</td><td><div>&lt;socket._fileobject object at 0x7f9c607f27d0&gt;</div></td></tr><tr><td style="font-weight:bold;vertical-align:top;">wsgi.multiprocess</td><td style="vertical-align:top;">:</td><td><div>False</div></td></tr><tr><td style="font-weight:bold;vertical-align:top;">wsgi.multithread</td><td style="vertical-align:top;">:</td><td><div>True</div></td></tr><tr><td style="font-weight:bold;vertical-align:top;">wsgi.run_once</td><td style="vertical-align:top;">:</td><td><div>False</div></td></tr><tr><td style="font-weight:bold;vertical-align:top;">wsgi.url_scheme</td><td style="vertical-align:top;">:</td><td><div>http</div></td></tr><tr><td style="font-weight:bold;vertical-align:top;">wsgi.version</td><td style="vertical-align:top;">:</td><td><div><table><tr><td><div>1</div></td></tr><tr><td><div>0</div></td></tr></table></div></td></tr><tr><td style="font-weight:bold;vertical-align:top;">wsgi_errors</td><td style="vertical-align:top;">:</td><td><div>&lt;open file &#x27;&lt;stderr&gt;&#x27;, mode &#x27;w&#x27; at 0x7f9ca317a1e0&gt;</div></td></tr><tr><td style="font-weight:bold;vertical-align:top;">wsgi_file_wrapper</td><td style="vertical-align:top;">:</td><td><div>&lt;class wsgiref.util.FileWrapper at 0x7f9c9bfa4e88&gt;</div></td></tr><tr><td style="font-weight:bold;vertical-align:top;">wsgi_input</td><td style="vertical-align:top;">:</td><td><div>&lt;socket._fileobject object at 0x7f9c607f27d0&gt;</div></td></tr><tr><td style="font-weight:bold;vertical-align:top;">wsgi_multiprocess</td><td style="vertical-align:top;">:</td><td><div>False</div></td></tr><tr><td style="font-weight:bold;vertical-align:top;">wsgi_multithread</td><td style="vertical-align:top;">:</td><td><div>True</div></td></tr><tr><td style="font-weight:bold;vertical-align:top;">wsgi_run_once</td><td style="vertical-align:top;">:</td><td><div>False</div></td></tr><tr><td style="font-weight:bold;vertical-align:top;">wsgi_url_scheme</td><td style="vertical-align:top;">:</td><td><div>http</div></td></tr><tr><td style="font-weight:bold;vertical-align:top;">wsgi_version</td><td style="vertical-align:top;">:</td><td><div><table><tr><td><div>1</div></td></tr><tr><td><div>0</div></td></tr></table></div></td></tr></table></div></td></tr><tr><td style="font-weight:bold;vertical-align:top;">extension</td><td style="vertical-align:top;">:</td><td><div>html</div></td></tr><tr><td style="font-weight:bold;vertical-align:top;">folder</td><td style="vertical-align:top;">:</td><td><div>/home/abhi/Downloads/CourseMaterial/web2Py/web2py/applications/final/</div></td></tr><tr><td style="font-weight:bold;vertical-align:top;">function</td><td style="vertical-align:top;">:</td><td><div>search_results</div></td></tr><tr><td style="font-weight:bold;vertical-align:top;">global_settings</td><td style="vertical-align:top;">:</td><td><div><table><tr><td style="font-weight:bold;vertical-align:top;">app_folders</td><td style="vertical-align:top;">:</td><td><div>set([&#x27;/home/abhi/Downloads/CourseMaterial/web2Py/web2py/applications/welcome/&#x27;, &#x27;/home/abhi/Downloads/CourseMaterial/web2Py/web2py/applications/mymusic/&#x27;, &#x27;/home/abhi/Downloads/CourseMaterial/web2Py/web2py/applications/final/&#x27;, &#x27;/home/abhi/Downloads/CourseMaterial/web2Py/web2py/applications/admin/&#x27;])</div></td></tr><tr><td style="font-weight:bold;vertical-align:top;">applications_parent</td><td style="vertical-align:top;">:</td><td><div>/home/abhi/Downloads/CourseMaterial/web2Py/web2py</div></td></tr><tr><td style="font-weight:bold;vertical-align:top;">cmd_args</td><td style="vertical-align:top;">:</td><td><div><table></table></div></td></tr><tr><td style="font-weight:bold;vertical-align:top;">cmd_options</td><td style="vertical-align:top;">:</td><td><div>&lt;Values at 0x7f9c9bf1d050: {&#x27;verbose&#x27;: False, &#x27;ip&#x27;: &#x27;127.0.0.1&#x27;, &#x27;debuglevel&#x27;: 30, &#x27;with_scheduler&#x27;: False, &#x27;ips&#x27;: [&#x27;127.0.1.1&#x27;], &#x27;shutdown_timeout&#x27;: 5, &#x27;taskbar&#x27;: False, &#x27;with_coverage&#x27;: False, &#x27;scheduler_groups&#x27;: None, &#x27;port&#x27;: 8000, &#x27;maxthreads&#x27;: None, &#x27;softcron&#x27;: False, &#x27;server_name&#x27;: &#x27;abhi-Vostro-3546&#x27;, &#x27;bpython&#x27;: False, &#x27;nogui&#x27;: False, &#x27;pid_filename&#x27;: &#x27;httpserver.pid&#x27;, &#x27;print_errors&#x27;: False, &#x27;extcron&#x27;: False, &#x27;runcron&#x27;: False, &#x27;run_system_tests&#x27;: False, &#x27;test&#x27;: None, &#x27;folder&#x27;: &#x27;/home/abhi/Downloads/CourseMaterial/web2Py/web2py&#x27;, &#x27;config&#x27;: &#x27;&#x27;, &#x27;minthreads&#x27;: None, &#x27;shell&#x27;: None, &#x27;run&#x27;: &#x27;&#x27;, &#x27;log_filename&#x27;: &#x27;httpserver.log&#x27;, &#x27;profiler_dir&#x27;: None, &#x27;args&#x27;: [&#x27;&#x27;], &#x27;socket_timeout&#x27;: 5, &#x27;ssl_ca_certificate&#x27;: None, &#x27;scheduler&#x27;: None, &#x27;interfaces&#x27;: None, &#x27;ssl_private_key&#x27;: &#x27;&#x27;, &#x27;gae&#x27;: None, &#x27;password&#x27;: &#x27;&lt;ask&gt;&#x27;, &#x27;request_queue_size&#x27;: 5, &#x27;ssl_certificate&#x27;: &#x27;&#x27;, &#x27;cronjob&#x27;: False, &#x27;numthreads&#x27;: None, &#x27;quiet&#x27;: False, &#x27;import_models&#x27;: False, &#x27;timeout&#x27;: 10, &#x27;plain&#x27;: False, &#x27;nobanner&#x27;: False}&gt;</div></td></tr><tr><td style="font-weight:bold;vertical-align:top;">db_sessions</td><td style="vertical-align:top;">:</td><td><div>set([])</div></td></tr><tr><td style="font-weight:bold;vertical-align:top;">debugging</td><td style="vertical-align:top;">:</td><td><div>False</div></td></tr><tr><td style="font-weight:bold;vertical-align:top;">gluon_parent</td><td style="vertical-align:top;">:</td><td><div>/home/abhi/Downloads/CourseMaterial/web2Py/web2py</div></td></tr><tr><td style="font-weight:bold;vertical-align:top;">is_jython</td><td style="vertical-align:top;">:</td><td><div>False</div></td></tr><tr><td style="font-weight:bold;vertical-align:top;">is_pypy</td><td style="vertical-align:top;">:</td><td><div>False</div></td></tr><tr><td style="font-weight:bold;vertical-align:top;">is_source</td><td style="vertical-align:top;">:</td><td><div>True</div></td></tr><tr><td style="font-weight:bold;vertical-align:top;">local_hosts</td><td style="vertical-align:top;">:</td><td><div><table><tr><td><div>::1</div></td></tr><tr><td><div>127.0.1.1</div></td></tr><tr><td><div>::ffff:127.0.0.1</div></td></tr><tr><td><div>127.0.0.1</div></td></tr><tr><td><div>abhi-Vostro-3546</div></td></tr></table></div></td></tr><tr><td style="font-weight:bold;vertical-align:top;">web2py_version</td><td style="vertical-align:top;">:</td><td><div>2.12.3-stable+timestamp.2015.08.19.00.18.03</div></td></tr></table></div></td></tr><tr><td style="font-weight:bold;vertical-align:top;">is_https</td><td style="vertical-align:top;">:</td><td><div>False</div></td></tr><tr><td style="font-weight:bold;vertical-align:top;">is_local</td><td style="vertical-align:top;">:</td><td><div>True</div></td></tr><tr><td style="font-weight:bold;vertical-align:top;">is_restful</td><td style="vertical-align:top;">:</td><td><div>False</div></td></tr><tr><td style="font-weight:bold;vertical-align:top;">is_sheduler</td><td style="vertical-align:top;">:</td><td><div>None</div></td></tr><tr><td style="font-weight:bold;vertical-align:top;">is_shell</td><td style="vertical-align:top;">:</td><td><div>None</div></td></tr><tr><td style="font-weight:bold;vertical-align:top;">now</td><td style="vertical-align:top;">:</td><td><div>datetime.datetime(2015, 11, 19, 0, 36, 44, 701047)</div></td></tr><tr><td style="font-weight:bold;vertical-align:top;">raw_args</td><td style="vertical-align:top;">:</td><td><div>V/check</div></td></tr><tr><td style="font-weight:bold;vertical-align:top;">raw_extension</td><td style="vertical-align:top;">:</td><td><div>None</div></td></tr><tr><td style="font-weight:bold;vertical-align:top;">url</td><td style="vertical-align:top;">:</td><td><div>/final/default/search_results/V/check</div></td></tr><tr><td style="font-weight:bold;vertical-align:top;">utcnow</td><td style="vertical-align:top;">:</td><td><div>datetime.datetime(2015, 11, 18, 19, 6, 44, 701109)</div></td></tr><tr><td style="font-weight:bold;vertical-align:top;">wsgi</td><td style="vertical-align:top;">:</td><td><div>&lt;gluon.main.LazyWSGI object at 0x7f9c5be6f9d0&gt;</div></td></tr></table></div>'
tRp67
sS'frames'
p68
(lp69
(dp70
S'file'
p71
S'/home/abhi/Downloads/CourseMaterial/web2Py/web2py/gluon/restricted.py'
p72
sS'dump'
p73
(dp74
S'environment'
p75
S"{'A': <class 'gluon.html.A'>, 'ANY_OF': <class 'gluon.validators.ANY_OF'>, 'ASSIGNJS': <function ASSIGNJS>, 'AppConfig': <function AppConfig>, 'Auth': <class 'gluon.tools.Auth'>, 'B': <class 'gluon.html.B'>, 'BEAUTIFY': <class 'gluon.html.BEAUTIFY'>, 'BODY': <class 'gluon.html.BODY'>, 'BR': <class 'gluon.html.BR'>, 'BUTTON': <class 'gluon.html.BUTTON'>, ...}"
p76
sS'ccode'
p77
S'<code object <module> at 0x7f9c5819deb0, file "/...lications/final/controllers/default.py", line 10>'
p78
ssS'lnum'
p79
I227
sS'lines'
p80
(dp81
I224
S'            ccode = code'
p82
sI225
S'        else:'
p83
sI226
S'            ccode = compile2(code, layer)'
p84
sI227
S'        exec ccode in environment'
p85
sI228
S'    except HTTP:'
p86
sI229
S'        raise'
p87
sI230
S'    except RestrictedError:'
p88
sI231
S'        # do not encapsulate (obfuscate) the original RestrictedError'
p89
sI222
S'    try:'
p90
sI223
S'        if isinstance(code, types.CodeType):'
p91
ssS'call'
p92
S"(code='# -*- coding: utf-8 -*-\\n# this file is released ...\\nresponse._vars=response._caller(search_results)\\n', environment={'A': <class 'gluon.html.A'>, 'ANY_OF': <class 'gluon.validators.ANY_OF'>, 'ASSIGNJS': <function ASSIGNJS>, 'AppConfig': <function AppConfig>, 'Auth': <class 'gluon.tools.Auth'>, 'B': <class 'gluon.html.B'>, 'BEAUTIFY': <class 'gluon.html.BEAUTIFY'>, 'BODY': <class 'gluon.html.BODY'>, 'BR': <class 'gluon.html.BR'>, 'BUTTON': <class 'gluon.html.BUTTON'>, ...}, layer='/home/abhi/Downloads/CourseMaterial/web2Py/web2py/applications/final/controllers/default.py')"
p93
sS'func'
p94
S'restricted'
p95
sa(dp96
g71
S'/home/abhi/Downloads/CourseMaterial/web2Py/web2py/applications/final/controllers/default.py'
p97
sg73
(dp98
sg79
I416
sg80
(dp99
I406
S''
sI407
S''
sI408
S'def call():'
p100
sI409
S'    """'
p101
sI410
S'    exposes services. for example:'
p102
sI411
S'    http://..../[app]/default/call/jsonrpc'
p103
sI412
S'    decorate with @services.jsonrpc the functions to expose'
p104
sI413
S'    supports xml, json, xmlrpc, jsonrpc, amfrpc, rss, csv'
p105
sI414
S'    """'
p106
sI415
S'    return service()'
p107
ssg92
S'()'
p108
sg94
S'<module>'
p109
sa(dp110
g71
S'/home/abhi/Downloads/CourseMaterial/web2Py/web2py/gluon/globals.py'
p111
sg73
(dp112
S'self'
p113
S'undefined'
p114
sS'f'
S'<function search_results>'
p115
ssg79
I412
sg80
(dp116
I416
S"        self.generic_patterns = ['*']"
p117
sI407
S"        self.flash = ''            # used by the default view layout"
p118
sI408
S'        self.meta = Storage()      # used by web2py_ajax.html'
p119
sI409
S'        self.menu = []             # used by the default view layout'
p120
sI410
S'        self.files = []            # used by web2py_ajax.html'
p121
sI411
S'        self._vars = None'
p122
sI412
S'        self._caller = lambda f: f()'
p123
sI413
S'        self._view_environment = None'
p124
sI414
S'        self._custom_commit = None'
p125
sI415
S'        self._custom_rollback = None'
p126
ssg92
S'(f=<function search_results>)'
p127
sg94
S'<lambda>'
p128
sa(dp129
g71
S'/home/abhi/Downloads/CourseMaterial/web2Py/web2py/applications/final/controllers/default.py'
p130
sg73
(dp131
S'global YOUTUBE_API_SERVICE_NAME'
p132
S"'youtube'"
p133
sS'global YOUTUBE_API_VERSION'
p134
S"'v3'"
p135
sS'youtube'
p136
g114
sS'developerKey'
p137
g114
sS'global DEVELOPER_KEY'
p138
S"'AIzaSyBY_Z6jpdpSddA1VQEbAM6x0lNxLWyAir0'"
p139
sS'global build'
p140
S'<function build>'
p141
ssg79
I84
sg80
(dp142
I79
S"    if search == 'V':"
p143
sI80
S'        import sys'
p144
sI81
S'        reload(sys)'
p145
sI82
S'        sys.setdefaultencoding("utf-8")'
p146
sI83
S"        query = request.args(1) or redirect(URL('default','index'))"
p147
sI84
S'        youtube = build(YOUTUBE_API_SERVICE_NAME, YOUTUBE_API_VERSION,developerKey=DEVELOPER_KEY)'
p148
sI85
S'        search_response = youtube.search().list(q=query.encode(\'utf-8\'),part="id,snippet",maxResults=20).execute()'
p149
sI86
S'        l=[]'
p150
sI87
S'        videos = []'
p151
sI88
S'        channels = []'
p152
ssg92
S'()'
p153
sg94
S'search_results'
p154
sa(dp155
g71
S'/usr/local/lib/python2.7/dist-packages/oauth2client/util.py'
p156
sg73
(dp157
S'wrapped'
p158
S'<function build>'
p159
sS'args'
p160
S"('youtube', 'v3')"
p161
sS'kwargs'
p162
S"{'developerKey': 'AIzaSyBY_Z6jpdpSddA1VQEbAM6x0lNxLWyAir0'}"
p163
ssg79
I142
sg80
(dp164
I137
S'                    raise TypeError(message)'
p165
sI138
S'                elif positional_parameters_enforcement == POSITIONAL_WARNING:'
p166
sI139
S'                    logger.warning(message)'
p167
sI140
S'                else:  # IGNORE'
p168
sI141
S'                    pass'
p169
sI142
S'            return wrapped(*args, **kwargs)'
p170
sI143
S'        return positional_wrapper'
p171
sI144
S''
sI145
S'    if isinstance(max_positional_args, six.integer_types):'
p172
sI146
S'        return positional_decorator'
p173
ssg92
S"(*args=('youtube', 'v3'), **kwargs={'developerKey': 'AIzaSyBY_Z6jpdpSddA1VQEbAM6x0lNxLWyAir0'})"
p174
sg94
S'positional_wrapper'
p175
sa(dp176
g71
S'/usr/local/lib/python2.7/dist-packages/google_api_python_client-1.4.2-py2.7.egg/googleapiclient/discovery.py'
p177
sg73
(dp178
S'cache'
p179
S'None'
p180
ssg79
I196
sg80
(dp181
I192
S'  requested_url = uritemplate.expand(discoveryServiceUrl, params)'
p182
sI193
S''
sI194
S'  try:'
p183
sI195
S'    content = _retrieve_discovery_doc(requested_url, http, cache_discovery,'
p184
sI196
S'                                      cache)'
p185
sI197
S'  except HttpError as e:'
p186
sI198
S'    if e.resp.status == http_client.NOT_FOUND:'
p187
sI199
S'      raise UnknownApiNameOrVersion("name: %s  version: %s" % (serviceName,'
p188
sI200
S'                                                               version))'
p189
sI191
S''
ssg92
S"(serviceName='youtube', version='v3', http=<httplib2.Http object>, discoveryServiceUrl='https://www.googleapis.com/discovery/v1/apis/{api}/{apiVersion}/rest', developerKey='AIzaSyBY_Z6jpdpSddA1VQEbAM6x0lNxLWyAir0', model=None, requestBuilder=<class 'googleapiclient.http.HttpRequest'>, credentials=None, cache_discovery=True, cache=None)"
p190
sg94
S'build'
p191
sa(dp192
g71
S'/usr/local/lib/python2.7/dist-packages/google_api_python_client-1.4.2-py2.7.egg/googleapiclient/discovery.py'
p193
sg73
(dp194
S'content'
p195
S'None'
p196
sS'http.request'
p197
S'<bound method Http.request of <httplib2.Http object>>'
p198
sS'resp'
p199
g114
sS'http'
p200
S'<httplib2.Http object>'
p201
sS'actual_url'
p202
S"'https://www.googleapis.com/discovery/v1/apis/youtube/v3/rest'"
p203
ssg79
I242
sg80
(dp204
I237
S'  # document to avoid exceeding the quota on discovery requests.'
p205
sI238
S"  if 'REMOTE_ADDR' in os.environ:"
p206
sI239
S"    actual_url = _add_query_parameter(url, 'userIp', os.environ['REMOTE_ADDR'])"
p207
sI240
S"  logger.info('URL being requested: GET %s', actual_url)"
p208
sI241
S''
sI242
S'  resp, content = http.request(actual_url)'
p209
sI243
S''
sI244
S'  if resp.status >= 400:'
p210
sI245
S'    raise HttpError(resp, content, uri=actual_url)'
p211
sI246
S''
ssg92
S"(url='https://www.googleapis.com/discovery/v1/apis/youtube/v3/rest', http=<httplib2.Http object>, cache_discovery=True, cache=<googleapiclient.discovery_cache.file_cache.Cache object>)"
p212
sg94
S'_retrieve_discovery_doc'
p213
sa(dp214
g71
S'/usr/local/lib/python2.7/dist-packages/httplib2/__init__.py'
p215
sg73
(dp216
S'body'
p217
S'None'
p218
sS'cachekey'
p219
S'None'
p220
sS'redirections'
p221
S'5'
sS'self'
p222
S'<httplib2.Http object>'
p223
sS'uri'
p224
S"'https://www.googleapis.com/discovery/v1/apis/youtube/v3/rest'"
p225
sS'authority'
p226
S"'www.googleapis.com'"
p227
sS'method'
p228
S"'GET'"
p229
sS'content'
p230
g114
sS'headers'
p231
S"{'accept-encoding': 'gzip, deflate', 'user-agent': 'Python-httplib2/0.9.1 (gzip)'}"
p232
sS'self._request'
p233
S'<bound method Http._request of <httplib2.Http object>>'
p234
sS'response'
p235
g114
sS'conn'
p236
S'<httplib2.HTTPSConnectionWithTimeout instance>'
p237
sS'request_uri'
p238
S"'/discovery/v1/apis/youtube/v3/rest'"
p239
ssg79
I1608
sg80
(dp240
I1603
S"                if cc.has_key('only-if-cached'):"
p241
sI1604
S"                    info['status'] = '504'"
p242
sI1605
S'                    response = Response(info)'
p243
sI1606
S'                    content = ""'
p244
sI1607
S'                else:'
p245
sI1608
S'                    (response, content) = self._request(conn, authority, uri, request_uri, method, body, headers, redirections, cachekey)'
p246
sI1609
S'        except Exception, e:'
p247
sI1610
S'            if self.force_exception_to_status_code:'
p248
sI1611
S'                if isinstance(e, HttpLib2ErrorWithResponse):'
p249
sI1612
S'                    response = e.response'
p250
ssg92
S"(self=<httplib2.Http object>, uri='https://www.googleapis.com/discovery/v1/apis/youtube/v3/rest', method='GET', body=None, headers={'accept-encoding': 'gzip, deflate', 'user-agent': 'Python-httplib2/0.9.1 (gzip)'}, redirections=5, connection_type=<class httplib2.HTTPSConnectionWithTimeout>)"
p251
sg94
g65
sa(dp252
g71
S'/usr/local/lib/python2.7/dist-packages/httplib2/__init__.py'
p253
sg73
(dp254
S'body'
p255
S'None'
p256
sS'self'
p257
S'<httplib2.Http object>'
p258
sS'method'
p259
S"'GET'"
p260
sS'content'
p261
g114
sS'headers'
p262
S"{'accept-encoding': 'gzip, deflate', 'user-agent': 'Python-httplib2/0.9.1 (gzip)'}"
p263
sS'self._conn_request'
p264
S'<bound method Http._conn_request of <httplib2.Http object>>'
p265
sS'response'
p266
g114
sS'conn'
p267
S'<httplib2.HTTPSConnectionWithTimeout instance>'
p268
sS'request_uri'
p269
S"'/discovery/v1/apis/youtube/v3/rest'"
p270
ssg79
I1350
sg80
(dp271
I1345
S'        auths = [(auth.depth(request_uri), auth) for auth in self.authorizations if auth.inscope(host, request_uri)]'
p272
sI1346
S'        auth = auths and sorted(auths)[0][1] or None'
p273
sI1347
S'        if auth:'
p274
sI1348
S'            auth.request(method, request_uri, headers, body)'
p275
sI1349
S''
sI1350
S'        (response, content) = self._conn_request(conn, request_uri, method, body, headers)'
p276
sI1351
S''
sI1352
S'        if auth:'
p277
sI1353
S'            if auth.response(response, body):'
p278
sI1354
S'                auth.request(method, request_uri, headers, body)'
p279
ssg92
S"(self=<httplib2.Http object>, conn=<httplib2.HTTPSConnectionWithTimeout instance>, host='www.googleapis.com', absolute_uri='https://www.googleapis.com/discovery/v1/apis/youtube/v3/rest', request_uri='/discovery/v1/apis/youtube/v3/rest', method='GET', body=None, headers={'accept-encoding': 'gzip, deflate', 'user-agent': 'Python-httplib2/0.9.1 (gzip)'}, redirections=5, cachekey=None)"
p280
sg94
S'_request'
p281
sa(dp282
g71
S'/usr/local/lib/python2.7/dist-packages/httplib2/__init__.py'
p283
sg73
(dp284
S'conn.connect'
p285
S'<bound method HTTPSConnectionWithTimeout.connect of <httplib2.HTTPSConnectionWithTimeout instance>>'
p286
sS'conn'
p287
S'<httplib2.HTTPSConnectionWithTimeout instance>'
p288
ssg79
I1272
sg80
(dp289
I1267
S'        seen_bad_status_line = False'
p290
sI1268
S'        while i < RETRIES:'
p291
sI1269
S'            i += 1'
p292
sI1270
S'            try:'
p293
sI1271
S"                if hasattr(conn, 'sock') and conn.sock is None:"
p294
sI1272
S'                    conn.connect()'
p295
sI1273
S'                conn.request(method, request_uri, body, headers)'
p296
sI1274
S'            except socket.timeout:'
p297
sI1275
S'                raise'
p298
sI1276
S'            except socket.gaierror:'
p299
ssg92
S"(self=<httplib2.Http object>, conn=<httplib2.HTTPSConnectionWithTimeout instance>, request_uri='/discovery/v1/apis/youtube/v3/rest', method='GET', body=None, headers={'accept-encoding': 'gzip, deflate', 'user-agent': 'Python-httplib2/0.9.1 (gzip)'})"
p300
sg94
S'_conn_request'
p301
sa(dp302
g71
S'/usr/local/lib/python2.7/dist-packages/httplib2/__init__.py'
p303
sg73
(dp304
S'self.ca_certs'
p305
S"'/usr/local/lib/python2.7/dist-packages/httplib2/cacerts.txt'"
p306
sS'self'
p307
S'<httplib2.HTTPSConnectionWithTimeout instance>'
p308
sS'self.disable_ssl_certificate_validation'
p309
S'False'
p310
ssg79
I1036
sg80
(dp311
I1031
S'                if has_timeout(self.timeout):'
p312
sI1032
S'                    sock.settimeout(self.timeout)'
p313
sI1033
S'                sock.connect((self.host, self.port))'
p314
sI1034
S'                self.sock =_ssl_wrap_socket('
p315
sI1035
S'                    sock, self.key_file, self.cert_file,'
p316
sI1036
S'                    self.disable_ssl_certificate_validation, self.ca_certs)'
p317
sI1037
S'                if self.debuglevel > 0:'
p318
sI1038
S'                    print "connect: (%s, %s)" % (self.host, self.port)'
p319
sI1039
S'                    if use_proxy:'
p320
sI1040
S'                        print "proxy: %s" % str((proxy_host, proxy_port, proxy_rdns, proxy_user, proxy_pass))'
p321
ssg92
S'(self=<httplib2.HTTPSConnectionWithTimeout instance>)'
p322
sg94
S'connect'
p323
sa(dp324
g71
S'/usr/local/lib/python2.7/dist-packages/httplib2/__init__.py'
p325
sg73
(dp326
S'ca_certs'
p327
S"'/usr/local/lib/python2.7/dist-packages/httplib2/cacerts.txt'"
p328
sS'cert_reqs'
p329
S'2'
ssg79
I80
sg80
(dp330
I75
S'            cert_reqs = ssl.CERT_REQUIRED'
p331
sI76
S'        # We should be specifying SSL version 3 or TLS v1, but the ssl module'
p332
sI77
S"        # doesn't expose the necessary knobs. So we need to go with the default"
p333
sI78
S'        # of SSLv23.'
p334
sI79
S'        return ssl.wrap_socket(sock, keyfile=key_file, certfile=cert_file,'
p335
sI80
S'                               cert_reqs=cert_reqs, ca_certs=ca_certs)'
p336
sI81
S'except (AttributeError, ImportError):'
p337
sI82
S'    ssl_SSLError = None'
p338
sI83
S'    def _ssl_wrap_socket(sock, key_file, cert_file,'
p339
sI84
S'                         disable_validation, ca_certs):'
p340
ssg92
S"(sock=<socket._socketobject object>, key_file=None, cert_file=None, disable_validation=False, ca_certs='/usr/local/lib/python2.7/dist-packages/httplib2/cacerts.txt')"
p341
sg94
S'_ssl_wrap_socket'
p342
sa(dp343
g71
S'/usr/lib/python2.7/ssl.py'
p344
sg73
(dp345
S'ciphers'
p346
S'None'
p347
ssg79
I487
sg80
(dp348
I482
S'    return SSLSocket(sock, keyfile=keyfile, certfile=certfile,'
p349
sI483
S'                     server_side=server_side, cert_reqs=cert_reqs,'
p350
sI484
S'                     ssl_version=ssl_version, ca_certs=ca_certs,'
p351
sI485
S'                     do_handshake_on_connect=do_handshake_on_connect,'
p352
sI486
S'                     suppress_ragged_eofs=suppress_ragged_eofs,'
p353
sI487
S'                     ciphers=ciphers)'
p354
sI488
S''
sI489
S''
sI490
S'# some utility functions'
p355
sI491
S''
ssg92
S"(sock=<socket._socketobject object>, keyfile=None, certfile=None, server_side=False, cert_reqs=2, ssl_version=2, ca_certs='/usr/local/lib/python2.7/dist-packages/httplib2/cacerts.txt', do_handshake_on_connect=True, suppress_ragged_eofs=True, ciphers=None)"
p356
sg94
S'wrap_socket'
p357
sa(dp358
g71
S'/usr/lib/python2.7/ssl.py'
p359
sg73
(dp360
S'self'
p361
S'<ssl.SSLSocket object>'
p362
sS'self.do_handshake'
p363
S'<bound method SSLSocket.do_handshake of <ssl.SSLSocket object>>'
p364
ssg79
I243
sg80
(dp365
I238
S'            self._sslobj = _ssl.sslwrap(self._sock, server_side,'
p366
sI239
S'                                        keyfile, certfile,'
p367
sI240
S'                                        cert_reqs, ssl_version, ca_certs,'
p368
sI241
S'                                        ciphers)'
p369
sI242
S'            if do_handshake_on_connect:'
p370
sI243
S'                self.do_handshake()'
p371
sI244
S'        self.keyfile = keyfile'
p372
sI245
S'        self.certfile = certfile'
p373
sI246
S'        self.cert_reqs = cert_reqs'
p374
sI247
S'        self.ssl_version = ssl_version'
p375
ssg92
S"(self=<ssl.SSLSocket object>, sock=<socket._socketobject object>, keyfile=None, certfile=None, server_side=False, cert_reqs=2, ssl_version=2, ca_certs='/usr/local/lib/python2.7/dist-packages/httplib2/cacerts.txt', do_handshake_on_connect=True, suppress_ragged_eofs=True, ciphers='DEFAULT:!aNULL:!eNULL:!LOW:!EXPORT:!SSLv2')"
p376
sg94
g26
sa(dp377
g71
S'/usr/lib/python2.7/ssl.py'
p378
sg73
(dp379
S'self._sslobj.do_handshake'
p380
S'<built-in method do_handshake of ssl.SSLContext object>'
p381
sS'self'
p382
S'<ssl.SSLSocket object>'
p383
sS'self._sslobj'
p384
S'<ssl.SSLContext object>'
p385
ssg79
I405
sg80
(dp386
I400
S''
sI401
S'    def do_handshake(self):'
p387
sI402
S''
sI403
S'        """Perform a TLS/SSL handshake."""'
p388
sI404
S''
sI405
S'        self._sslobj.do_handshake()'
p389
sI406
S''
sI407
S'    def _real_connect(self, addr, return_errno):'
p390
sI408
S'        # Here we assume that the socket is client-side, and not'
p391
sI409
S'        # connected at the time of the call.  We connect it, then wrap it.'
p392
ssg92
S'(self=<ssl.SSLSocket object>)'
p393
sg94
S'do_handshake'
p394
sasS'pyver'
p395
S'Python 2.7.6: /usr/bin/python (prefix: /usr)'
p396
sS'session'
p397
g66
(S's\x98\x00\x00\x00<div><table><tr><td style="font-weight:bold;vertical-align:top;">flash</td><td style="vertical-align:top;">:</td><td><div></div></td></tr></table></div>'
tRp398
sS'etype'
p399
S"<class 'ssl.SSLError'>"
p400
sS'date'
p401
S'Thu Nov 19 00:36:59 2015'
p402
sS'response'
p403
g66
(S's\xb2?\x00\x00<div><table><tr><td style="font-weight:bold;vertical-align:top;">body</td><td style="vertical-align:top;">:</td><td><div>&lt;cStringIO.StringO object at 0x7f9c5be68f10&gt;</div></td></tr><tr><td style="font-weight:bold;vertical-align:top;">cookies</td><td style="vertical-align:top;">:</td><td><div><table><tr><td style="font-weight:bold;vertical-align:top;">session_id_final</td><td style="vertical-align:top;">:</td><td><div>127.0.0.1-5d350226-91e3-4346-9403-4789edecb509<table><tr><td style="font-weight:bold;vertical-align:top;">comment</td><td style="vertical-align:top;">:</td><td><div></div></td></tr><tr><td style="font-weight:bold;vertical-align:top;">domain</td><td style="vertical-align:top;">:</td><td><div></div></td></tr><tr><td style="font-weight:bold;vertical-align:top;">expires</td><td style="vertical-align:top;">:</td><td><div></div></td></tr><tr><td style="font-weight:bold;vertical-align:top;">httponly</td><td style="vertical-align:top;">:</td><td><div></div></td></tr><tr><td style="font-weight:bold;vertical-align:top;">max-age</td><td style="vertical-align:top;">:</td><td><div></div></td></tr><tr><td style="font-weight:bold;vertical-align:top;">path</td><td style="vertical-align:top;">:</td><td><div>/</div></td></tr><tr><td style="font-weight:bold;vertical-align:top;">secure</td><td style="vertical-align:top;">:</td><td><div></div></td></tr><tr><td style="font-weight:bold;vertical-align:top;">version</td><td style="vertical-align:top;">:</td><td><div></div></td></tr></table></div></td></tr></table></div></td></tr><tr><td style="font-weight:bold;vertical-align:top;">delimiters</td><td style="vertical-align:top;">:</td><td><div><table><tr><td><div>{{</div></td></tr><tr><td><div>}}</div></td></tr></table></div></td></tr><tr><td style="font-weight:bold;vertical-align:top;">files</td><td style="vertical-align:top;">:</td><td><div><table></table></div></td></tr><tr><td style="font-weight:bold;vertical-align:top;">flash</td><td style="vertical-align:top;">:</td><td><div></div></td></tr><tr><td style="font-weight:bold;vertical-align:top;">form_label_separator</td><td style="vertical-align:top;">:</td><td><div></div></td></tr><tr><td style="font-weight:bold;vertical-align:top;">formstyle</td><td style="vertical-align:top;">:</td><td><div>bootstrap3_inline</div></td></tr><tr><td style="font-weight:bold;vertical-align:top;">generic_patterns</td><td style="vertical-align:top;">:</td><td><div><table><tr><td><div>*</div></td></tr></table></div></td></tr><tr><td style="font-weight:bold;vertical-align:top;">google_analytics_id</td><td style="vertical-align:top;">:</td><td><div>None</div></td></tr><tr><td style="font-weight:bold;vertical-align:top;">headers</td><td style="vertical-align:top;">:</td><td><div><table><tr><td style="font-weight:bold;vertical-align:top;">X-Powered-By</td><td style="vertical-align:top;">:</td><td><div>web2py</div></td></tr></table></div></td></tr><tr><td style="font-weight:bold;vertical-align:top;">logo</td><td style="vertical-align:top;">:</td><td><div><a class="navbar-brand" href="http://www.web2py.com/" id="web2py-logo"><b>web<span>2</span>py</b>&trade;&nbsp;</a></div></td></tr><tr><td style="font-weight:bold;vertical-align:top;">menu</td><td style="vertical-align:top;">:</td><td><div><table><tr><td><div><table><tr><td><div>Home</div></td></tr><tr><td><div>False</div></td></tr><tr><td><div>/final/default/index</div></td></tr><tr><td><div><table></table></div></td></tr></table></div></td></tr><tr><td><div><table><tr><td><div>My Sites</div></td></tr><tr><td><div>False</div></td></tr><tr><td><div>/admin/default/site</div></td></tr></table></div></td></tr><tr><td><div><table><tr><td><div>This App</div></td></tr><tr><td><div>False</div></td></tr><tr><td><div>#</div></td></tr><tr><td><div><table><tr><td><div><table><tr><td><div>Design</div></td></tr><tr><td><div>False</div></td></tr><tr><td><div>/admin/default/design/final</div></td></tr></table></div></td></tr><tr><td><div><li class="divider"></li></div></td></tr><tr><td><div><table><tr><td><div>Controller</div></td></tr><tr><td><div>False</div></td></tr><tr><td><div>/admin/default/edit/final/controllers/default.py</div></td></tr></table></div></td></tr><tr><td><div><table><tr><td><div>View</div></td></tr><tr><td><div>False</div></td></tr><tr><td><div>/admin/default/edit/final/views/default/search_results.html</div></td></tr></table></div></td></tr><tr><td><div><table><tr><td><div>DB Model</div></td></tr><tr><td><div>False</div></td></tr><tr><td><div>/admin/default/edit/final/models/db.py</div></td></tr></table></div></td></tr><tr><td><div><table><tr><td><div>Menu Model</div></td></tr><tr><td><div>False</div></td></tr><tr><td><div>/admin/default/edit/final/models/menu.py</div></td></tr></table></div></td></tr><tr><td><div><table><tr><td><div>Config.ini</div></td></tr><tr><td><div>False</div></td></tr><tr><td><div>/admin/default/edit/final/private/appconfig.ini</div></td></tr></table></div></td></tr><tr><td><div><table><tr><td><div>Layout</div></td></tr><tr><td><div>False</div></td></tr><tr><td><div>/admin/default/edit/final/views/layout.html</div></td></tr></table></div></td></tr><tr><td><div><table><tr><td><div>Stylesheet</div></td></tr><tr><td><div>False</div></td></tr><tr><td><div>/admin/default/edit/final/static/css/web2py-bootstrap3.css</div></td></tr></table></div></td></tr><tr><td><div><table><tr><td><div>Database</div></td></tr><tr><td><div>False</div></td></tr><tr><td><div>/final/appadmin/index</div></td></tr></table></div></td></tr><tr><td><div><table><tr><td><div>Errors</div></td></tr><tr><td><div>False</div></td></tr><tr><td><div>/admin/default/errors/final</div></td></tr></table></div></td></tr><tr><td><div><table><tr><td><div>About</div></td></tr><tr><td><div>False</div></td></tr><tr><td><div>/admin/default/about/final</div></td></tr></table></div></td></tr></table></div></td></tr></table></div></td></tr><tr><td><div><table><tr><td><div>web2py.com</div></td></tr><tr><td><div>False</div></td></tr><tr><td><div>#</div></td></tr><tr><td><div><table><tr><td><div><table><tr><td><div>Download</div></td></tr><tr><td><div>False</div></td></tr><tr><td><div>http://www.web2py.com/examples/default/download</div></td></tr></table></div></td></tr><tr><td><div><table><tr><td><div>Support</div></td></tr><tr><td><div>False</div></td></tr><tr><td><div>http://www.web2py.com/examples/default/support</div></td></tr></table></div></td></tr><tr><td><div><table><tr><td><div>Demo</div></td></tr><tr><td><div>False</div></td></tr><tr><td><div>http://web2py.com/demo_admin</div></td></tr></table></div></td></tr><tr><td><div><table><tr><td><div>Quick Examples</div></td></tr><tr><td><div>False</div></td></tr><tr><td><div>http://web2py.com/examples/default/examples</div></td></tr></table></div></td></tr><tr><td><div><table><tr><td><div>FAQ</div></td></tr><tr><td><div>False</div></td></tr><tr><td><div>http://web2py.com/AlterEgo</div></td></tr></table></div></td></tr><tr><td><div><table><tr><td><div>Videos</div></td></tr><tr><td><div>False</div></td></tr><tr><td><div>http://www.web2py.com/examples/default/videos/</div></td></tr></table></div></td></tr><tr><td><div><table><tr><td><div>Free Applications</div></td></tr><tr><td><div>False</div></td></tr><tr><td><div>http://web2py.com/appliances</div></td></tr></table></div></td></tr><tr><td><div><table><tr><td><div>Plugins</div></td></tr><tr><td><div>False</div></td></tr><tr><td><div>http://web2py.com/plugins</div></td></tr></table></div></td></tr><tr><td><div><table><tr><td><div>Recipes</div></td></tr><tr><td><div>False</div></td></tr><tr><td><div>http://web2pyslices.com/</div></td></tr></table></div></td></tr></table></div></td></tr></table></div></td></tr><tr><td><div><table><tr><td><div>Documentation</div></td></tr><tr><td><div>False</div></td></tr><tr><td><div>#</div></td></tr><tr><td><div><table><tr><td><div><table><tr><td><div>Online book</div></td></tr><tr><td><div>False</div></td></tr><tr><td><div>http://www.web2py.com/book</div></td></tr></table></div></td></tr><tr><td><div><li class="divider"></li></div></td></tr><tr><td><div><table><tr><td><div>Preface</div></td></tr><tr><td><div>False</div></td></tr><tr><td><div>http://www.web2py.com/book/default/chapter/00</div></td></tr></table></div></td></tr><tr><td><div><table><tr><td><div>Introduction</div></td></tr><tr><td><div>False</div></td></tr><tr><td><div>http://www.web2py.com/book/default/chapter/01</div></td></tr></table></div></td></tr><tr><td><div><table><tr><td><div>Python</div></td></tr><tr><td><div>False</div></td></tr><tr><td><div>http://www.web2py.com/book/default/chapter/02</div></td></tr></table></div></td></tr><tr><td><div><table><tr><td><div>Overview</div></td></tr><tr><td><div>False</div></td></tr><tr><td><div>http://www.web2py.com/book/default/chapter/03</div></td></tr></table></div></td></tr><tr><td><div><table><tr><td><div>The Core</div></td></tr><tr><td><div>False</div></td></tr><tr><td><div>http://www.web2py.com/book/default/chapter/04</div></td></tr></table></div></td></tr><tr><td><div><table><tr><td><div>The Views</div></td></tr><tr><td><div>False</div></td></tr><tr><td><div>http://www.web2py.com/book/default/chapter/05</div></td></tr></table></div></td></tr><tr><td><div><table><tr><td><div>Database</div></td></tr><tr><td><div>False</div></td></tr><tr><td><div>http://www.web2py.com/book/default/chapter/06</div></td></tr></table></div></td></tr><tr><td><div><table><tr><td><div>Forms and Validators</div></td></tr><tr><td><div>False</div></td></tr><tr><td><div>http://www.web2py.com/book/default/chapter/07</div></td></tr></table></div></td></tr><tr><td><div><table><tr><td><div>Email and SMS</div></td></tr><tr><td><div>False</div></td></tr><tr><td><div>http://www.web2py.com/book/default/chapter/08</div></td></tr></table></div></td></tr><tr><td><div><table><tr><td><div>Access Control</div></td></tr><tr><td><div>False</div></td></tr><tr><td><div>http://www.web2py.com/book/default/chapter/09</div></td></tr></table></div></td></tr><tr><td><div><table><tr><td><div>Services</div></td></tr><tr><td><div>False</div></td></tr><tr><td><div>http://www.web2py.com/book/default/chapter/10</div></td></tr></table></div></td></tr><tr><td><div><table><tr><td><div>Ajax Recipes</div></td></tr><tr><td><div>False</div></td></tr><tr><td><div>http://www.web2py.com/book/default/chapter/11</div></td></tr></table></div></td></tr><tr><td><div><table><tr><td><div>Components and Plugins</div></td></tr><tr><td><div>False</div></td></tr><tr><td><div>http://www.web2py.com/book/default/chapter/12</div></td></tr></table></div></td></tr><tr><td><div><table><tr><td><div>Deployment Recipes</div></td></tr><tr><td><div>False</div></td></tr><tr><td><div>http://www.web2py.com/book/default/chapter/13</div></td></tr></table></div></td></tr><tr><td><div><table><tr><td><div>Other Recipes</div></td></tr><tr><td><div>False</div></td></tr><tr><td><div>http://www.web2py.com/book/default/chapter/14</div></td></tr></table></div></td></tr><tr><td><div><table><tr><td><div>Helping web2py</div></td></tr><tr><td><div>False</div></td></tr><tr><td><div>http://www.web2py.com/book/default/chapter/15</div></td></tr></table></div></td></tr><tr><td><div><table><tr><td><div>Buy web2py\'s book</div></td></tr><tr><td><div>False</div></td></tr><tr><td><div>http://stores.lulu.com/web2py</div></td></tr></table></div></td></tr></table></div></td></tr></table></div></td></tr><tr><td><div><table><tr><td><div>Community</div></td></tr><tr><td><div>False</div></td></tr><tr><td><div>None</div></td></tr><tr><td><div><table><tr><td><div><table><tr><td><div>Groups</div></td></tr><tr><td><div>False</div></td></tr><tr><td><div>http://www.web2py.com/examples/default/usergroups</div></td></tr></table></div></td></tr><tr><td><div><table><tr><td><div>Twitter</div></td></tr><tr><td><div>False</div></td></tr><tr><td><div>http://twitter.com/web2py</div></td></tr></table></div></td></tr><tr><td><div><table><tr><td><div>Live Chat</div></td></tr><tr><td><div>False</div></td></tr><tr><td><div>http://webchat.freenode.net/?channels=web2py</div></td></tr></table></div></td></tr></table></div></td></tr></table></div></td></tr></table></div></td></tr><tr><td style="font-weight:bold;vertical-align:top;">meta</td><td style="vertical-align:top;">:</td><td><div><table><tr><td style="font-weight:bold;vertical-align:top;">author</td><td style="vertical-align:top;">:</td><td><div>Your Name &lt;you@example.com&gt;</div></td></tr><tr><td style="font-weight:bold;vertical-align:top;">description</td><td style="vertical-align:top;">:</td><td><div>a cool new app</div></td></tr><tr><td style="font-weight:bold;vertical-align:top;">generator</td><td style="vertical-align:top;">:</td><td><div>Web2py Web Framework</div></td></tr><tr><td style="font-weight:bold;vertical-align:top;">keywords</td><td style="vertical-align:top;">:</td><td><div>web2py, python, framework</div></td></tr></table></div></td></tr><tr><td style="font-weight:bold;vertical-align:top;">models_to_run</td><td style="vertical-align:top;">:</td><td><div><table><tr><td><div>^\\w+\\.py$</div></td></tr><tr><td><div>^default/\\w+\\.py$</div></td></tr><tr><td><div>^default/search_results/\\w+\\.py$</div></td></tr></table></div></td></tr><tr><td style="font-weight:bold;vertical-align:top;">postprocessing</td><td style="vertical-align:top;">:</td><td><div><table></table></div></td></tr><tr><td style="font-weight:bold;vertical-align:top;">session_client</td><td style="vertical-align:top;">:</td><td><div>127.0.0.1</div></td></tr><tr><td style="font-weight:bold;vertical-align:top;">session_cookie_compression_level</td><td style="vertical-align:top;">:</td><td><div>None</div></td></tr><tr><td style="font-weight:bold;vertical-align:top;">session_cookie_expires</td><td style="vertical-align:top;">:</td><td><div>None</div></td></tr><tr><td style="font-weight:bold;vertical-align:top;">session_cookie_key</td><td style="vertical-align:top;">:</td><td><div>None</div></td></tr><tr><td style="font-weight:bold;vertical-align:top;">session_data_name</td><td style="vertical-align:top;">:</td><td><div>session_data_final</div></td></tr><tr><td style="font-weight:bold;vertical-align:top;">session_file</td><td style="vertical-align:top;">:</td><td><div>&lt;open file &#x27;/home/abhi/Downloads/CourseMaterial/web2Py/web2py/applications/final/sessions/0e6/189/127.0.0.1-5d350226-91e3-4346-9403-4789edecb509&#x27;, mode &#x27;rb+&#x27; at 0x7f9c5bec39c0&gt;</div></td></tr><tr><td style="font-weight:bold;vertical-align:top;">session_filename</td><td style="vertical-align:top;">:</td><td><div>/home/abhi/Downloads/CourseMaterial/web2Py/web2py/applications/final/sessions/127.0.0.1-5d350226-91e3-4346-9403-4789edecb509</div></td></tr><tr><td style="font-weight:bold;vertical-align:top;">session_hash</td><td style="vertical-align:top;">:</td><td><div>51714468ccf78a02c514d4bb9b04e489</div></td></tr><tr><td style="font-weight:bold;vertical-align:top;">session_id</td><td style="vertical-align:top;">:</td><td><div>127.0.0.1-5d350226-91e3-4346-9403-4789edecb509</div></td></tr><tr><td style="font-weight:bold;vertical-align:top;">session_id_name</td><td style="vertical-align:top;">:</td><td><div>session_id_final</div></td></tr><tr><td style="font-weight:bold;vertical-align:top;">session_locked</td><td style="vertical-align:top;">:</td><td><div>True</div></td></tr><tr><td style="font-weight:bold;vertical-align:top;">session_masterapp</td><td style="vertical-align:top;">:</td><td><div>final</div></td></tr><tr><td style="font-weight:bold;vertical-align:top;">session_new</td><td style="vertical-align:top;">:</td><td><div>False</div></td></tr><tr><td style="font-weight:bold;vertical-align:top;">session_storage_type</td><td style="vertical-align:top;">:</td><td><div>file</div></td></tr><tr><td style="font-weight:bold;vertical-align:top;">status</td><td style="vertical-align:top;">:</td><td><div>200</div></td></tr><tr><td style="font-weight:bold;vertical-align:top;">subtitle</td><td style="vertical-align:top;">:</td><td><div></div></td></tr><tr><td style="font-weight:bold;vertical-align:top;">title</td><td style="vertical-align:top;">:</td><td><div>Final</div></td></tr><tr><td style="font-weight:bold;vertical-align:top;">view</td><td style="vertical-align:top;">:</td><td><div>default/search_results.html</div></td></tr></table></div>'
tRp404
sS'locals'
p405
(dp406
S'self'
p407
S'<ssl.SSLSocket object>'
p408
sssS'traceback'
p409
S'Traceback (most recent call last):\n  File "/home/abhi/Downloads/CourseMaterial/web2Py/web2py/gluon/restricted.py", line 227, in restricted\n    exec ccode in environment\n  File "/home/abhi/Downloads/CourseMaterial/web2Py/web2py/applications/final/controllers/default.py", line 416, in <module>\n  File "/home/abhi/Downloads/CourseMaterial/web2Py/web2py/gluon/globals.py", line 412, in <lambda>\n    self._caller = lambda f: f()\n  File "/home/abhi/Downloads/CourseMaterial/web2Py/web2py/applications/final/controllers/default.py", line 84, in search_results\n    youtube = build(YOUTUBE_API_SERVICE_NAME, YOUTUBE_API_VERSION,developerKey=DEVELOPER_KEY)\n  File "/usr/local/lib/python2.7/dist-packages/oauth2client/util.py", line 142, in positional_wrapper\n    return wrapped(*args, **kwargs)\n  File "/usr/local/lib/python2.7/dist-packages/google_api_python_client-1.4.2-py2.7.egg/googleapiclient/discovery.py", line 196, in build\n    cache)\n  File "/usr/local/lib/python2.7/dist-packages/google_api_python_client-1.4.2-py2.7.egg/googleapiclient/discovery.py", line 242, in _retrieve_discovery_doc\n    resp, content = http.request(actual_url)\n  File "/usr/local/lib/python2.7/dist-packages/httplib2/__init__.py", line 1608, in request\n    (response, content) = self._request(conn, authority, uri, request_uri, method, body, headers, redirections, cachekey)\n  File "/usr/local/lib/python2.7/dist-packages/httplib2/__init__.py", line 1350, in _request\n    (response, content) = self._conn_request(conn, request_uri, method, body, headers)\n  File "/usr/local/lib/python2.7/dist-packages/httplib2/__init__.py", line 1272, in _conn_request\n    conn.connect()\n  File "/usr/local/lib/python2.7/dist-packages/httplib2/__init__.py", line 1036, in connect\n    self.disable_ssl_certificate_validation, self.ca_certs)\n  File "/usr/local/lib/python2.7/dist-packages/httplib2/__init__.py", line 80, in _ssl_wrap_socket\n    cert_reqs=cert_reqs, ca_certs=ca_certs)\n  File "/usr/lib/python2.7/ssl.py", line 487, in wrap_socket\n    ciphers=ciphers)\n  File "/usr/lib/python2.7/ssl.py", line 243, in __init__\n    self.do_handshake()\n  File "/usr/lib/python2.7/ssl.py", line 405, in do_handshake\n    self._sslobj.do_handshake()\nSSLError: [Errno 8] _ssl.c:510: EOF occurred in violation of protocol\n'
p410
s.