(dp1
S'output'
p2
S"<type 'exceptions.UnicodeEncodeError'> 'ascii' codec can't encode characters in position 0-3: ordinal not in range(128)"
p3
sS'layer'
p4
S'/home/abhi/Downloads/CourseMaterial/web2Py/web2py/applications/final/views/default/search_results.html'
p5
sS'code'
p6
S'response.write(\'<!DOCTYPE html>\\n<html lang="en">\\n  <head>\\n    <meta charset="utf-8">\\n    <meta name="viewport" content="width=device-width, initial-scale=1.0">\\n    <meta name="description" content="Creative - Bootstrap 3 Responsive Admin Template">\\n    <meta name="author" content="GeeksLabs">\\n    <meta name="keyword" content="Creative, Dashboard, Admin, Template, Theme, Bootstrap, Responsive, Retina, Minimal">\\n    <link rel="shortcut icon" href="img/favicon.png">\\n\\n    <title>Total Entertainment</title>\\n    <link href="\', escape=False)\nresponse.write(URL(\'static\',\'css/bootstrap.min.css\'))\nresponse.write(\'" rel="stylesheet">\\n    <!-- bootstrap theme -->\\n    <link href="\', escape=False)\nresponse.write(URL(\'static\',\'css/bootstrap-theme.css\'))\nresponse.write(\'" rel="stylesheet">\\n    <!--external css-->\\n    <!-- font icon -->\\n    <link href="\', escape=False)\nresponse.write(URL(\'static\',\'css/elegant-icons-style.css\'))\nresponse.write(\'" rel="stylesheet" />\\n    <link href="\', escape=False)\nresponse.write(URL(\'static\',\'css/font-awesome.min.css\'))\nresponse.write(\'" rel="stylesheet" />\\n    <!-- owl carousel -->\\n    <link rel="stylesheet" href="\', escape=False)\nresponse.write(URL(\'static\',\'css/owl.carousel.css\'))\nresponse.write(\'" type="text/css">\\n  <link href="\', escape=False)\nresponse.write(URL(\'static\',\'css/jquery-jvectormap-1.2.2.css\'))\nresponse.write(\'" rel="stylesheet">\\n    <!-- Custom styles -->\\n  <link rel="stylesheet" href="\', escape=False)\nresponse.write(URL(\'static\',\'css/fullcalendar.css\'))\nresponse.write(\'">\\n  <link href="\', escape=False)\nresponse.write(URL(\'static\',\'css/widgets.css\'))\nresponse.write(\'" rel="stylesheet">\\n    <link href="\', escape=False)\nresponse.write(URL(\'static\',\'css/style.css\'))\nresponse.write(\'" rel="stylesheet">\\n    <link href="\', escape=False)\nresponse.write(URL(\'static\',\'css/style-responsive.css\'))\nresponse.write(\'" rel="stylesheet" />\\n  <link href="\', escape=False)\nresponse.write(URL(\'static\',\'css/xcharts.min.css\'))\nresponse.write(\'" rel=" stylesheet">  \\n  <link href="\', escape=False)\nresponse.write(URL(\'static\',\'css/jquery-ui-1.10.4.min.css\'))\nresponse.write(\'" rel="stylesheet">\\n    <script type="text/javascript" src="\', escape=False)\nresponse.write(URL(\'static\',\'js/bootstrap-select.js\'))\nresponse.write(\'"></script>\\n\\n  </head>\\n\\n  <body>\\n  <!-- container section start -->\\n  <section id="container" class="">\\n     \\n      \\n      <header class="header my-green-bg">\\n            <div class="toggle-nav">\\n                <div class="icon-reorder tooltips" data-original-title="Toggle Navigation" data-placement="bottom"></div>\\n            </div>\\n\\n            <!--logo start-->\\n            <a href="\', escape=False)\nresponse.write(URL(\'index.html\'))\nresponse.write(\'" class="logo"><strong>total&nbsp;&nbsp;&nbsp;<span class="lite">entertainment</span></strong></a>\\n            <!--logo end-->\\n\\n            <div class="nav search-row" id="top_menu">\\n                <!--  search form start -->\\n                <ul class="nav top-menu">                    \\n                    <li>\\n                        <form class="navbar-form" action="#" enctype="multipart/form-data" method="post">\\n                            <input class="form-control" placeholder="Search for your favourite Songs and Videos" type="text" name="query">\\n                            \\n                        <select name="option" class = "selectpicker" data-style = "btn-primary" value="5">\\n                            <option value="V"><strong>Video</strong></option>\\n                            <option value="A"><strong>Audio</strong></option>\\n                        </select>\\n                            <div style="display:none;">\\n                              <input name="_formkey" type="hidden" value="\', escape=False)\nresponse.write(form.formkey)\nresponse.write(\'" />\\n                              <input name="_formname" type="hidden" value="no_table/create" />\\n                            </div>\\n                        </form>\\n                    </li>                    \\n                </ul>\\n                <!--  search form end -->                \\n\\n                \\n            </div>\\n            <div class="top-nav notification-row">                \\n                <!-- notificatoin dropdown start-->\\n                <ul class="nav pull-right top-menu">\\n                    \\n                    <!-- user login dropdown start-->\\n                    \\n                    <li class="dropdown">\\n                    \', escape=False)\nif auth.is_logged_in():\n    response.write(\'\\n                        <a data-toggle="dropdown" class="dropdown-toggle" href="#">\\n                            <span class="profile-ava">\\n                                <img alt="" src="img/avatar1_small.jpg">\\n                            </span>\\n                            <span class="username">Yo \', escape=False)\n    response.write(auth.user.first_name)\n    response.write(\'&nbsp;<strong>!</strong></span>\\n                            <b class="caret"></b>\\n                        </a>\\n                        <ul class="dropdown-menu extended logout">\\n                            <div class="log-arrow-up"></div>\\n                            <li class="eborder-top">\\n                                <a href="#"><i class="icon_profile"></i> My Profile</a>\\n                            </li>\\n                            <li>\\n                                <a href="#"><i class="icon_mail_alt"></i> My Favourite</a>\\n                            </li>\\n                            <li>\\n                                <a href="#"><i class="icon_clock_alt"></i> Logout</a>\\n                            </li>\\n                        </ul>\\n                      \', escape=False)\nelse:\n    response.write(\'\\n                      <a data-toggle="dropdown" class="dropdown-toggle" href="#">\\n                          <!--  <span class="profile-ava">-->\\n                                <img alt="" src="\', escape=False)\n    response.write(URL(\'static\',\'images/key.png\'))\n    response.write(\'">\\n                          <!--  </span> -->\\n                            <span class="username">LogIn</span>\\n                            <b class="caret"></b>\\n                        </a>\\n\\n                      <ul class="dropdown-menu extended logout">\\n                            <div class="log-arrow-up"></div>\\n                            <li class="eborder-top">\\n                                <a href="#"><i class="icon_profile"></i>Log In</a>\\n                            </li>\\n                            <li>\\n                                <a href="#"><i class="icon_mail_alt"></i>Register</a>\\n                            </li>\\n                            <li>\\n                                <a href="#"><i class="icon_clock_alt"></i>Forgot Password</a>\\n                            </li>\\n                       </ul> \\n                      \', escape=False)\n    pass\nresponse.write(\'\\n                    </li>\\n                    <!-- user login dropdown end -->\\n                </ul>\\n                <!-- notificatoin dropdown end-->\\n            </div>\\n      </header>      \\n      <!--header end-->\\n\\n      <!--sidebar start-->\\n         <aside>\\n          <div id="sidebar"  class="nav-collapse ">\\n              <!-- sidebar menu start-->\\n              <ul class="sidebar-menu">                \\n                  <li class="active">\\n                      <a class="" href="\', escape=False)\nresponse.write(URL(\'index.html\'))\nresponse.write(\'">\\n                          <i class="icon_house_alt"></i>\\n                          <span>Welcome </span>\\n                      </a>\\n                  </li>\\n          <li class="sub-menu">\\n                      <a href="javascript:;" class="">\\n                          <i class="fa fa-heart"></i>\\n                          <span>Favourite</span>\\n                          <span class="menu-arrow arrow_carrot-right"></span>\\n                      </a>\\n                      <ul class="sub">\\n                          <li><a class="" href="\', escape=False)\nresponse.write(URL(\'favsong.html\'))\nresponse.write(\'">Songs</a></li>                          \\n                          <li><a class="" href="\', escape=False)\nresponse.write(URL(\'favideo.html\'))\nresponse.write(\'">Videos</a></li>\\n                      </ul>\\n                  </li>       \\n                  <li class="sub-menu">\\n                      <a href="javascript:;" class="">\\n                          <i class="icon_desktop"></i>\\n                          <span>Playlists</span>\\n                          <span class="menu-arrow arrow_carrot-right"></span>\\n                      </a>\\n                      <ul class="sub">\\n                          \\n                          \\n                          <li><a class="" href="\', escape=False)\nresponse.write(URL(\'spons_playlist.html\'))\nresponse.write(\'">Sponsered</a></li>\\n                      </ul>\\n                  </li>\\n                  <li>\\n                      <a class="" href="\', escape=False)\nresponse.write(URL(\'widgets.html\'))\nresponse.write(\'">\\n                          <i class="icon_genius"></i>\\n                          <span>See All</span>\\n                      </a>\\n                  </li>\\n                  <li>                     \\n                      <a class="" href="\', escape=False)\nresponse.write(URL(\'radio.html\'))\nresponse.write(\'">\\n                          <i class="fa fa-music"></i>\\n                          <span>Radio</span>\\n                          \\n                      </a>\\n                                         \\n                  </li>\\n                             \\n                  <li class="sub-menu">\\n                      <a href="javascript:;" class="">\\n                          <i class="icon_table"></i>\\n                          <span>Discover</span>\\n                          <span class="menu-arrow arrow_carrot-right"></span>\\n                      </a>\\n                      <ul class="sub">\\n                          <li><a class="" href="\', escape=False)\nresponse.write(URL(\'default\',\'pop.html\'))\nresponse.write(\'">Popular</a></li>\\n                          <li><a class="" href="\', escape=False)\nresponse.write(URL(\'default\',\'fav.html\'))\nresponse.write(\'">Favourite</a></li>\\n                          <li><a class="" href="\', escape=False)\nresponse.write(URL(\'default\',\'voted.html\'))\nresponse.write(\'">Most Voted</a></li>\\n                      </ul>\\n                  </li>\\n                  \\n                  <li class="sub-menu">\\n                      <a href="javascript:;" class="">\\n                          <i class="icon_documents_alt"></i>\\n                          <span>My Profile</span>\\n                          <span class="menu-arrow arrow_carrot-right"></span>\\n                      </a>\\n                      <ul class="sub">                          \\n                          <li><a class="" href="\', escape=False)\nresponse.write(URL(\'default\',\'user/profile\'))\nresponse.write(\'">Profile</a></li>\\n                      </ul>\\n                  </li>\\n                  \\n              </ul>\\n              <!-- sidebar menu end-->\\n          </div>\\n      </aside>\\n     \\n     <!--sidebar end-->\\n      \\n      <!--main content start-->\\n      <section id="main-content">\\n          <section class="wrapper">            \\n              <!--overview start-->\\n        <div class="col-xs-12 ">\\n        <div class="container-fluid">\\n    <!--      <div class = "result-box">-->\\n          \', escape=False)\nif search == \'V\':\n    response.write(\'\\n          <table class="table table-striped table-hover table-border ">\\n          <caption class="dark-bg"><h1><strong>Results for \', escape=False)\n    response.write(query)\n    response.write(\'</strong></h1></caption>\\n          <tbody>\\n            \', escape=False)\n    x=0\n    response.write(\'\\n            \', escape=False)\n    for video in videos:\n        response.write(\'\\n            \', escape=False)\n        if (x+1)%2:\n            response.write(\'\\n            <tr>\\n            <!--<td><a href="https://www.youtube.com/watch?v=\', escape=False)\n            #=video[1]\n            response.write(\'"><img src="http://img.youtube.com/vi/\', escape=False)\n            #=video[1]\n            response.write(\'/1.jpg">\', escape=False)\n            #=video[0]\n            response.write(\'</a></td>-->\\n              <td class="danger">\\n                <img src="http://img.youtube.com/vi/\', escape=False)\n            response.write(video[1])\n            response.write(\'/1.jpg">\\n              </td>\\n              <td class = "warning">\\n                \', escape=False)\n            response.write(A(video[0], _href=URL(\'insert\',vars=dict(title=video[0],genre=\'romance\',url=video[1],category=\'Video\'))))\n            response.write(\'\\n              </td>\\n            \', escape=False)\n        else:\n            response.write(\'\\n              <td class="danger">\\n                <img src="http://img.youtube.com/vi/\', escape=False)\n            response.write(video[1])\n            response.write(\'/1.jpg">\\n              </td>\\n              <td class = "warning">\\n                \', escape=False)\n            response.write(A(video[0], _href=URL(\'insert\',vars=dict(title=video[0],genre=\'romance\',url=video[1],category=\'Video\'))))\n            response.write(\'\\n              </td>\\n            </tr>\\n            \', escape=False)\n            pass\n        response.write(\'\\n            \', escape=False)\n        x+=1\n        response.write(\'\\n            \', escape=False)\n        pass\n    response.write(\'\\n          </tbody>\\n          </table>\\n          \', escape=False)\nelse:\n    response.write(\'\\n          <table class="table table-striped table-hover table-border ">\\n          <caption class="dark-bg"><h1><strong>Results for \', escape=False)\n    response.write(query)\n    response.write(\'</strong></h1></caption>\\n          <tbody>\\n                \', escape=False)\n    i=0\n    response.write(\'\\n    \', escape=False)\n    for track in tracks:\n        response.write(\'\\n        <tr>\\n            <td>\', escape=False)\n        response.write(A(track.title, _href=URL(\'insert\',vars=dict(title=track.title,genre=\'romance\',url=track.permalink_url,category=\'Audio\'))))\n        response.write(\'\\n            </td>\\n            <td>  \\n            </td>\\n        </tr>\\n        \', escape=False)\n        i+=1\n        response.write(\'\\n    \', escape=False)\n        pass\n    response.write(\'\\n    </tbody>\\n          </tbody>\\n          </table>\\n          \', escape=False)\n    pass\nresponse.write(\'\\n          </div>\\n        </div>\\n      </div>\\n\\n              <!-- project team & activity start -->\\n          \\n              <!-- project team & activity end -->\\n\\n          </section>\\n      <!--main content end-->\\n  \\n</section>\\n</section>\\n  <!-- container section start -->\\n\\n    <!-- javascripts -->\\n        <!-- javascripts -->\\n    <script src="\', escape=False)\nresponse.write(URL(\'static\',\'js/jquery.js\'))\nresponse.write(\'"></script>\\n  <script src="\', escape=False)\nresponse.write(URL(\'static\',\'js/jquery-ui-1.10.4.min.js\'))\nresponse.write(\'"></script>\\n    <script src="\', escape=False)\nresponse.write(URL(\'static\',\'js/jquery-1.8.3.min.js\'))\nresponse.write(\'"></script>\\n    <script type="text/javascript" src="\', escape=False)\nresponse.write(URL(\'static\',\'js/jquery-ui-1.9.2.custom.min.js\'))\nresponse.write(\'"></script>\\n    <script type="text/javascript" src="\', escape=False)\nresponse.write(URL(\'static\',\'js/bootbox.js\'))\nresponse.write(\'"></script>\\n    <!-- bootstrap -->\\n    <script src="\', escape=False)\nresponse.write(URL(\'static\',\'js/bootstrap.min.js\'))\nresponse.write(\'"></script>\\n    <!-- nice scroll -->\\n    <script src="\', escape=False)\nresponse.write(URL(\'static\',\'js/jquery.scrollTo.min.js\'))\nresponse.write(\'"></script>\\n    <script src="\', escape=False)\nresponse.write(URL(\'static\',\'js/jquery.nicescroll.js\'))\nresponse.write(\'" type="text/javascript"></script>\\n    <!-- charts scripts -->\\n    <script src="\', escape=False)\nresponse.write(URL(\'static\',\'js/jquery.sparkline.js\'))\nresponse.write(\'" type="text/javascript"></script>\\n  <script src="\', escape=False)\nresponse.write(URL(\'static\',\'js/jquery.rateit.min.js\'))\nresponse.write(\'"></script>\\n    <!-- custom select -->\\n    <script src="\', escape=False)\nresponse.write(URL(\'static\',\'js/jquery.customSelect.min.js\'))\nresponse.write(\'" ></script>\\n    <!--custome script for all page-->\\n    <script src="\', escape=False)\nresponse.write(URL(\'static\',\'js/scripts.js\'))\nresponse.write(\'"></script>\\n    <!-- custom script for this page-->\\n    <script src="\', escape=False)\nresponse.write(URL(\'static\',\'js/sparkline-chart.js\'))\nresponse.write(\'"></script>\\n  <script src="\', escape=False)\nresponse.write(URL(\'static\',\'js/jquery-jvectormap-1.2.2.min.js\'))\nresponse.write(\'"></script>\\n  <script src="\', escape=False)\nresponse.write(URL(\'static\',\'js/jquery-jvectormap-world-mill-en.js\'))\nresponse.write(\'"></script>\\n  <script src="\', escape=False)\nresponse.write(URL(\'static\',\'js/xcharts.min.js\'))\nresponse.write(\'"></script>\\n  <script src="\', escape=False)\nresponse.write(URL(\'static\',\'js/jquery.autosize.min.js\'))\nresponse.write(\'"></script>\\n  <script src="\', escape=False)\nresponse.write(URL(\'static\',\'js/jquery.placeholder.min.js\'))\nresponse.write(\'"></script>\\n  <script src="\', escape=False)\nresponse.write(URL(\'static\',\'js/gdp-data.js\'))\nresponse.write(\'"></script> \\n  <script src="\', escape=False)\nresponse.write(URL(\'static\',\'js/morris.min.js\'))\nresponse.write(\'"></script>\\n  <script src="\', escape=False)\nresponse.write(URL(\'static\',\'js/sparklines.js\'))\nresponse.write(\'"></script> \\n  <script src="\', escape=False)\nresponse.write(URL(\'static\',\'js/charts.js\'))\nresponse.write(\'"></script>\\n  <script src="\', escape=False)\nresponse.write(URL(\'static\',\'js/jquery.slimscroll.min.js\'))\nresponse.write(\'"></script>\\n\\n  </body>\\n</html>\', escape=False)'
p7
sS'snapshot'
p8
(dp9
S'exception'
p10
(dp11
S'__getslice__'
p12
S"<method-wrapper '__getslice__' of exceptions.UnicodeEncodeError object>"
p13
sS'encoding'
p14
S"'ascii'"
p15
sS'__str__'
p16
S"<method-wrapper '__str__' of exceptions.UnicodeEncodeError object>"
p17
sS'__reduce__'
p18
S'<built-in method __reduce__ of exceptions.UnicodeEncodeError object>'
p19
sS'__dict__'
p20
S'{}'
p21
sS'__sizeof__'
p22
S'<built-in method __sizeof__ of exceptions.UnicodeEncodeError object>'
p23
sS'__init__'
p24
S"<method-wrapper '__init__' of exceptions.UnicodeEncodeError object>"
p25
sS'__setattr__'
p26
S"<method-wrapper '__setattr__' of exceptions.UnicodeEncodeError object>"
p27
sS'__reduce_ex__'
p28
S'<built-in method __reduce_ex__ of exceptions.UnicodeEncodeError object>'
p29
sS'end'
p30
S'4'
sS'__new__'
p31
S'<built-in method __new__ of type object>'
p32
sS'__format__'
p33
S'<built-in method __format__ of exceptions.UnicodeEncodeError object>'
p34
sS'__class__'
p35
S"<type 'exceptions.UnicodeEncodeError'>"
p36
sS'start'
p37
S'0'
sS'__doc__'
p38
S"'Unicode encoding error.'"
p39
sS'object'
p40
S"u'\\ud558\\ub098\\ub418\\uc5b4'"
p41
sS'__getitem__'
p42
S"<method-wrapper '__getitem__' of exceptions.UnicodeEncodeError object>"
p43
sS'__setstate__'
p44
S'<built-in method __setstate__ of exceptions.UnicodeEncodeError object>'
p45
sS'__getattribute__'
p46
S"<method-wrapper '__getattribute__' of exceptions.UnicodeEncodeError object>"
p47
sS'args'
p48
S"('ascii', u'\\ud558\\ub098\\ub418\\uc5b4', 0, 4, 'ordinal not in range(128)')"
p49
sS'reason'
p50
S"'ordinal not in range(128)'"
p51
sS'__subclasshook__'
p52
S'<built-in method __subclasshook__ of type object>'
p53
sS'__unicode__'
p54
S'<built-in method __unicode__ of exceptions.UnicodeEncodeError object>'
p55
sS'__delattr__'
p56
S"<method-wrapper '__delattr__' of exceptions.UnicodeEncodeError object>"
p57
sS'__repr__'
p58
S"<method-wrapper '__repr__' of exceptions.UnicodeEncodeError object>"
p59
sS'__hash__'
p60
S"<method-wrapper '__hash__' of exceptions.UnicodeEncodeError object>"
p61
ssS'evalue'
p62
S"'ascii' codec can't encode characters in position 0-3: ordinal not in range(128)"
p63
sS'request'
p64
cgluon.html
XML_unpickle
p65
(S's\x84i\x00\x00<div><table><tr><td style="font-weight:bold;vertical-align:top;">ajax</td><td style="vertical-align:top;">:</td><td><div>False</div></td></tr><tr><td style="font-weight:bold;vertical-align:top;">application</td><td style="vertical-align:top;">:</td><td><div>final</div></td></tr><tr><td style="font-weight:bold;vertical-align:top;">args</td><td style="vertical-align:top;">:</td><td><div><table><tr><td><div>A</div></td></tr><tr><td><div>img</div></td></tr><tr><td><div>favicon.png</div></td></tr></table></div></td></tr><tr><td style="font-weight:bold;vertical-align:top;">cid</td><td style="vertical-align:top;">:</td><td><div>None</div></td></tr><tr><td style="font-weight:bold;vertical-align:top;">client</td><td style="vertical-align:top;">:</td><td><div>127.0.0.1</div></td></tr><tr><td style="font-weight:bold;vertical-align:top;">controller</td><td style="vertical-align:top;">:</td><td><div>default</div></td></tr><tr><td style="font-weight:bold;vertical-align:top;">cookies</td><td style="vertical-align:top;">:</td><td><div><table><tr><td style="font-weight:bold;vertical-align:top;">session_id_admin</td><td style="vertical-align:top;">:</td><td><div>127.0.0.1-144f05f8-0628-4f43-beef-3d0df169978f<table><tr><td style="font-weight:bold;vertical-align:top;">comment</td><td style="vertical-align:top;">:</td><td><div></div></td></tr><tr><td style="font-weight:bold;vertical-align:top;">domain</td><td style="vertical-align:top;">:</td><td><div></div></td></tr><tr><td style="font-weight:bold;vertical-align:top;">expires</td><td style="vertical-align:top;">:</td><td><div></div></td></tr><tr><td style="font-weight:bold;vertical-align:top;">httponly</td><td style="vertical-align:top;">:</td><td><div></div></td></tr><tr><td style="font-weight:bold;vertical-align:top;">max-age</td><td style="vertical-align:top;">:</td><td><div></div></td></tr><tr><td style="font-weight:bold;vertical-align:top;">path</td><td style="vertical-align:top;">:</td><td><div></div></td></tr><tr><td style="font-weight:bold;vertical-align:top;">secure</td><td style="vertical-align:top;">:</td><td><div></div></td></tr><tr><td style="font-weight:bold;vertical-align:top;">version</td><td style="vertical-align:top;">:</td><td><div></div></td></tr></table></div></td></tr><tr><td style="font-weight:bold;vertical-align:top;">session_id_final</td><td style="vertical-align:top;">:</td><td><div>127.0.0.1-82024f4e-90c8-497e-993b-ff1ce2546f61<table><tr><td style="font-weight:bold;vertical-align:top;">comment</td><td style="vertical-align:top;">:</td><td><div></div></td></tr><tr><td style="font-weight:bold;vertical-align:top;">domain</td><td style="vertical-align:top;">:</td><td><div></div></td></tr><tr><td style="font-weight:bold;vertical-align:top;">expires</td><td style="vertical-align:top;">:</td><td><div></div></td></tr><tr><td style="font-weight:bold;vertical-align:top;">httponly</td><td style="vertical-align:top;">:</td><td><div></div></td></tr><tr><td style="font-weight:bold;vertical-align:top;">max-age</td><td style="vertical-align:top;">:</td><td><div></div></td></tr><tr><td style="font-weight:bold;vertical-align:top;">path</td><td style="vertical-align:top;">:</td><td><div></div></td></tr><tr><td style="font-weight:bold;vertical-align:top;">secure</td><td style="vertical-align:top;">:</td><td><div></div></td></tr><tr><td style="font-weight:bold;vertical-align:top;">version</td><td style="vertical-align:top;">:</td><td><div></div></td></tr></table></div></td></tr><tr><td style="font-weight:bold;vertical-align:top;">session_id_modal</td><td style="vertical-align:top;">:</td><td><div>127.0.0.1-686792ce-a9d0-4eb2-913e-ce7e5a93b8fb<table><tr><td style="font-weight:bold;vertical-align:top;">comment</td><td style="vertical-align:top;">:</td><td><div></div></td></tr><tr><td style="font-weight:bold;vertical-align:top;">domain</td><td style="vertical-align:top;">:</td><td><div></div></td></tr><tr><td style="font-weight:bold;vertical-align:top;">expires</td><td style="vertical-align:top;">:</td><td><div></div></td></tr><tr><td style="font-weight:bold;vertical-align:top;">httponly</td><td style="vertical-align:top;">:</td><td><div></div></td></tr><tr><td style="font-weight:bold;vertical-align:top;">max-age</td><td style="vertical-align:top;">:</td><td><div></div></td></tr><tr><td style="font-weight:bold;vertical-align:top;">path</td><td style="vertical-align:top;">:</td><td><div></div></td></tr><tr><td style="font-weight:bold;vertical-align:top;">secure</td><td style="vertical-align:top;">:</td><td><div></div></td></tr><tr><td style="font-weight:bold;vertical-align:top;">version</td><td style="vertical-align:top;">:</td><td><div></div></td></tr></table></div></td></tr><tr><td style="font-weight:bold;vertical-align:top;">session_id_mymusic</td><td style="vertical-align:top;">:</td><td><div>127.0.0.1-488eddb4-c7b6-40bf-b289-6628f887272d<table><tr><td style="font-weight:bold;vertical-align:top;">comment</td><td style="vertical-align:top;">:</td><td><div></div></td></tr><tr><td style="font-weight:bold;vertical-align:top;">domain</td><td style="vertical-align:top;">:</td><td><div></div></td></tr><tr><td style="font-weight:bold;vertical-align:top;">expires</td><td style="vertical-align:top;">:</td><td><div></div></td></tr><tr><td style="font-weight:bold;vertical-align:top;">httponly</td><td style="vertical-align:top;">:</td><td><div></div></td></tr><tr><td style="font-weight:bold;vertical-align:top;">max-age</td><td style="vertical-align:top;">:</td><td><div></div></td></tr><tr><td style="font-weight:bold;vertical-align:top;">path</td><td style="vertical-align:top;">:</td><td><div></div></td></tr><tr><td style="font-weight:bold;vertical-align:top;">secure</td><td style="vertical-align:top;">:</td><td><div></div></td></tr><tr><td style="font-weight:bold;vertical-align:top;">version</td><td style="vertical-align:top;">:</td><td><div></div></td></tr></table></div></td></tr><tr><td style="font-weight:bold;vertical-align:top;">session_id_videolibrary</td><td style="vertical-align:top;">:</td><td><div>127.0.0.1-e9f1a0ee-6f98-4604-8075-717e10c6c66d<table><tr><td style="font-weight:bold;vertical-align:top;">comment</td><td style="vertical-align:top;">:</td><td><div></div></td></tr><tr><td style="font-weight:bold;vertical-align:top;">domain</td><td style="vertical-align:top;">:</td><td><div></div></td></tr><tr><td style="font-weight:bold;vertical-align:top;">expires</td><td style="vertical-align:top;">:</td><td><div></div></td></tr><tr><td style="font-weight:bold;vertical-align:top;">httponly</td><td style="vertical-align:top;">:</td><td><div></div></td></tr><tr><td style="font-weight:bold;vertical-align:top;">max-age</td><td style="vertical-align:top;">:</td><td><div></div></td></tr><tr><td style="font-weight:bold;vertical-align:top;">path</td><td style="vertical-align:top;">:</td><td><div></div></td></tr><tr><td style="font-weight:bold;vertical-align:top;">secure</td><td style="vertical-align:top;">:</td><td><div></div></td></tr><tr><td style="font-weight:bold;vertical-align:top;">version</td><td style="vertical-align:top;">:</td><td><div></div></td></tr></table></div></td></tr></table></div></td></tr><tr><td style="font-weight:bold;vertical-align:top;">env</td><td style="vertical-align:top;">:</td><td><div><table><tr><td style="font-weight:bold;vertical-align:top;">HTTP_ACCEPT</td><td style="vertical-align:top;">:</td><td><div>*/*</div></td></tr><tr><td style="font-weight:bold;vertical-align:top;">HTTP_ACCEPT_ENCODING</td><td style="vertical-align:top;">:</td><td><div>gzip, deflate, sdch</div></td></tr><tr><td style="font-weight:bold;vertical-align:top;">HTTP_ACCEPT_LANGUAGE</td><td style="vertical-align:top;">:</td><td><div>en-US,en;q=0.8</div></td></tr><tr><td style="font-weight:bold;vertical-align:top;">HTTP_CACHE_CONTROL</td><td style="vertical-align:top;">:</td><td><div>no-cache</div></td></tr><tr><td style="font-weight:bold;vertical-align:top;">HTTP_CONNECTION</td><td style="vertical-align:top;">:</td><td><div>keep-alive</div></td></tr><tr><td style="font-weight:bold;vertical-align:top;">HTTP_COOKIE</td><td style="vertical-align:top;">:</td><td><div>session_id_videolibrary=127.0.0.1-e9f1a0ee-6f98-4604-8075-717e10c6c66d; session_id_mymusic=127.0.0.1-488eddb4-c7b6-40bf-b289-6628f887272d; session_id_modal=127.0.0.1-686792ce-a9d0-4eb2-913e-ce7e5a93b8fb; session_id_admin=127.0.0.1-144f05f8-0628-4f43-beef-3d0df169978f; session_id_final=127.0.0.1-82024f4e-90c8-497e-993b-ff1ce2546f61</div></td></tr><tr><td style="font-weight:bold;vertical-align:top;">HTTP_HOST</td><td style="vertical-align:top;">:</td><td><div>127.0.0.1:8000</div></td></tr><tr><td style="font-weight:bold;vertical-align:top;">HTTP_PRAGMA</td><td style="vertical-align:top;">:</td><td><div>no-cache</div></td></tr><tr><td style="font-weight:bold;vertical-align:top;">HTTP_REFERER</td><td style="vertical-align:top;">:</td><td><div>http://127.0.0.1:8000/final/default/search_results/A/ashqiui</div></td></tr><tr><td style="font-weight:bold;vertical-align:top;">HTTP_USER_AGENT</td><td style="vertical-align:top;">:</td><td><div>Mozilla/5.0 (X11; Linux x86_64) AppleWebKit/537.36 (KHTML, like Gecko) Chrome/45.0.2454.101 Safari/537.36</div></td></tr><tr><td style="font-weight:bold;vertical-align:top;">PATH_INFO</td><td style="vertical-align:top;">:</td><td><div>/final/default/search_results/A/img/favicon.png</div></td></tr><tr><td style="font-weight:bold;vertical-align:top;">QUERY_STRING</td><td style="vertical-align:top;">:</td><td><div></div></td></tr><tr><td style="font-weight:bold;vertical-align:top;">REMOTE_ADDR</td><td style="vertical-align:top;">:</td><td><div>127.0.0.1</div></td></tr><tr><td style="font-weight:bold;vertical-align:top;">REMOTE_PORT</td><td style="vertical-align:top;">:</td><td><div>39026</div></td></tr><tr><td style="font-weight:bold;vertical-align:top;">REQUEST_METHOD</td><td style="vertical-align:top;">:</td><td><div>GET</div></td></tr><tr><td style="font-weight:bold;vertical-align:top;">SCRIPT_NAME</td><td style="vertical-align:top;">:</td><td><div></div></td></tr><tr><td style="font-weight:bold;vertical-align:top;">SERVER_NAME</td><td style="vertical-align:top;">:</td><td><div>abhi-Vostro-3546</div></td></tr><tr><td style="font-weight:bold;vertical-align:top;">SERVER_PORT</td><td style="vertical-align:top;">:</td><td><div>8000</div></td></tr><tr><td style="font-weight:bold;vertical-align:top;">SERVER_PROTOCOL</td><td style="vertical-align:top;">:</td><td><div>HTTP/1.1</div></td></tr><tr><td style="font-weight:bold;vertical-align:top;">SERVER_SOFTWARE</td><td style="vertical-align:top;">:</td><td><div>Rocket 1.2.6</div></td></tr><tr><td style="font-weight:bold;vertical-align:top;">app_folders</td><td style="vertical-align:top;">:</td><td><div>set([&#x27;/home/abhi/Downloads/CourseMaterial/web2Py/web2py/applications/welcome/&#x27;, &#x27;/home/abhi/Downloads/CourseMaterial/web2Py/web2py/applications/final/&#x27;, &#x27;/home/abhi/Downloads/CourseMaterial/web2Py/web2py/applications/admin/&#x27;])</div></td></tr><tr><td style="font-weight:bold;vertical-align:top;">applications_parent</td><td style="vertical-align:top;">:</td><td><div>/home/abhi/Downloads/CourseMaterial/web2Py/web2py</div></td></tr><tr><td style="font-weight:bold;vertical-align:top;">cmd_args</td><td style="vertical-align:top;">:</td><td><div><table></table></div></td></tr><tr><td style="font-weight:bold;vertical-align:top;">cmd_options</td><td style="vertical-align:top;">:</td><td><div>&lt;Values at 0x7f0df21c9fc8: {&#x27;verbose&#x27;: False, &#x27;ip&#x27;: &#x27;127.0.0.1&#x27;, &#x27;debuglevel&#x27;: 30, &#x27;with_scheduler&#x27;: False, &#x27;ips&#x27;: [&#x27;127.0.1.1&#x27;], &#x27;shutdown_timeout&#x27;: 5, &#x27;taskbar&#x27;: False, &#x27;with_coverage&#x27;: False, &#x27;scheduler_groups&#x27;: None, &#x27;port&#x27;: 8000, &#x27;maxthreads&#x27;: None, &#x27;softcron&#x27;: False, &#x27;server_name&#x27;: &#x27;abhi-Vostro-3546&#x27;, &#x27;bpython&#x27;: False, &#x27;nogui&#x27;: False, &#x27;pid_filename&#x27;: &#x27;httpserver.pid&#x27;, &#x27;print_errors&#x27;: False, &#x27;extcron&#x27;: False, &#x27;runcron&#x27;: False, &#x27;run_system_tests&#x27;: False, &#x27;test&#x27;: None, &#x27;folder&#x27;: &#x27;/home/abhi/Downloads/CourseMaterial/web2Py/web2py&#x27;, &#x27;config&#x27;: &#x27;&#x27;, &#x27;minthreads&#x27;: None, &#x27;shell&#x27;: None, &#x27;run&#x27;: &#x27;&#x27;, &#x27;log_filename&#x27;: &#x27;httpserver.log&#x27;, &#x27;profiler_dir&#x27;: None, &#x27;args&#x27;: [&#x27;&#x27;], &#x27;socket_timeout&#x27;: 5, &#x27;ssl_ca_certificate&#x27;: None, &#x27;scheduler&#x27;: None, &#x27;interfaces&#x27;: None, &#x27;ssl_private_key&#x27;: &#x27;&#x27;, &#x27;gae&#x27;: None, &#x27;password&#x27;: &#x27;&lt;ask&gt;&#x27;, &#x27;request_queue_size&#x27;: 5, &#x27;ssl_certificate&#x27;: &#x27;&#x27;, &#x27;cronjob&#x27;: False, &#x27;numthreads&#x27;: None, &#x27;quiet&#x27;: False, &#x27;import_models&#x27;: False, &#x27;timeout&#x27;: 10, &#x27;plain&#x27;: False, &#x27;nobanner&#x27;: False}&gt;</div></td></tr><tr><td style="font-weight:bold;vertical-align:top;">db_sessions</td><td style="vertical-align:top;">:</td><td><div>set([])</div></td></tr><tr><td style="font-weight:bold;vertical-align:top;">debugging</td><td style="vertical-align:top;">:</td><td><div>False</div></td></tr><tr><td style="font-weight:bold;vertical-align:top;">gluon_parent</td><td style="vertical-align:top;">:</td><td><div>/home/abhi/Downloads/CourseMaterial/web2Py/web2py</div></td></tr><tr><td style="font-weight:bold;vertical-align:top;">http_accept</td><td style="vertical-align:top;">:</td><td><div>*/*</div></td></tr><tr><td style="font-weight:bold;vertical-align:top;">http_accept_encoding</td><td style="vertical-align:top;">:</td><td><div>gzip, deflate, sdch</div></td></tr><tr><td style="font-weight:bold;vertical-align:top;">http_accept_language</td><td style="vertical-align:top;">:</td><td><div>en-US,en;q=0.8</div></td></tr><tr><td style="font-weight:bold;vertical-align:top;">http_cache_control</td><td style="vertical-align:top;">:</td><td><div>no-cache</div></td></tr><tr><td style="font-weight:bold;vertical-align:top;">http_connection</td><td style="vertical-align:top;">:</td><td><div>keep-alive</div></td></tr><tr><td style="font-weight:bold;vertical-align:top;">http_cookie</td><td style="vertical-align:top;">:</td><td><div>session_id_videolibrary=127.0.0.1-e9f1a0ee-6f98-4604-8075-717e10c6c66d; session_id_mymusic=127.0.0.1-488eddb4-c7b6-40bf-b289-6628f887272d; session_id_modal=127.0.0.1-686792ce-a9d0-4eb2-913e-ce7e5a93b8fb; session_id_admin=127.0.0.1-144f05f8-0628-4f43-beef-3d0df169978f; session_id_final=127.0.0.1-82024f4e-90c8-497e-993b-ff1ce2546f61</div></td></tr><tr><td style="font-weight:bold;vertical-align:top;">http_host</td><td style="vertical-align:top;">:</td><td><div>127.0.0.1:8000</div></td></tr><tr><td style="font-weight:bold;vertical-align:top;">http_pragma</td><td style="vertical-align:top;">:</td><td><div>no-cache</div></td></tr><tr><td style="font-weight:bold;vertical-align:top;">http_referer</td><td style="vertical-align:top;">:</td><td><div>http://127.0.0.1:8000/final/default/search_results/A/ashqiui</div></td></tr><tr><td style="font-weight:bold;vertical-align:top;">http_user_agent</td><td style="vertical-align:top;">:</td><td><div>Mozilla/5.0 (X11; Linux x86_64) AppleWebKit/537.36 (KHTML, like Gecko) Chrome/45.0.2454.101 Safari/537.36</div></td></tr><tr><td style="font-weight:bold;vertical-align:top;">is_jython</td><td style="vertical-align:top;">:</td><td><div>False</div></td></tr><tr><td style="font-weight:bold;vertical-align:top;">is_pypy</td><td style="vertical-align:top;">:</td><td><div>False</div></td></tr><tr><td style="font-weight:bold;vertical-align:top;">is_source</td><td style="vertical-align:top;">:</td><td><div>True</div></td></tr><tr><td style="font-weight:bold;vertical-align:top;">local_hosts</td><td style="vertical-align:top;">:</td><td><div><table><tr><td><div>::1</div></td></tr><tr><td><div>127.0.1.1</div></td></tr><tr><td><div>::ffff:127.0.0.1</div></td></tr><tr><td><div>127.0.0.1</div></td></tr><tr><td><div>abhi-Vostro-3546</div></td></tr></table></div></td></tr><tr><td style="font-weight:bold;vertical-align:top;">path_info</td><td style="vertical-align:top;">:</td><td><div>/final/default/search_results/A/img/favicon.png</div></td></tr><tr><td style="font-weight:bold;vertical-align:top;">query_string</td><td style="vertical-align:top;">:</td><td><div></div></td></tr><tr><td style="font-weight:bold;vertical-align:top;">remote_addr</td><td style="vertical-align:top;">:</td><td><div>127.0.0.1</div></td></tr><tr><td style="font-weight:bold;vertical-align:top;">remote_port</td><td style="vertical-align:top;">:</td><td><div>39026</div></td></tr><tr><td style="font-weight:bold;vertical-align:top;">request_method</td><td style="vertical-align:top;">:</td><td><div>GET</div></td></tr><tr><td style="font-weight:bold;vertical-align:top;">request_uri</td><td style="vertical-align:top;">:</td><td><div>/final/default/search_results/A/img/favicon.png</div></td></tr><tr><td style="font-weight:bold;vertical-align:top;">script_name</td><td style="vertical-align:top;">:</td><td><div></div></td></tr><tr><td style="font-weight:bold;vertical-align:top;">server_name</td><td style="vertical-align:top;">:</td><td><div>abhi-Vostro-3546</div></td></tr><tr><td style="font-weight:bold;vertical-align:top;">server_port</td><td style="vertical-align:top;">:</td><td><div>8000</div></td></tr><tr><td style="font-weight:bold;vertical-align:top;">server_protocol</td><td style="vertical-align:top;">:</td><td><div>HTTP/1.1</div></td></tr><tr><td style="font-weight:bold;vertical-align:top;">server_software</td><td style="vertical-align:top;">:</td><td><div>Rocket 1.2.6</div></td></tr><tr><td style="font-weight:bold;vertical-align:top;">web2py_path</td><td style="vertical-align:top;">:</td><td><div>/home/abhi/Downloads/CourseMaterial/web2Py/web2py</div></td></tr><tr><td style="font-weight:bold;vertical-align:top;">web2py_version</td><td style="vertical-align:top;">:</td><td><div>2.12.3-stable+timestamp.2015.08.19.00.18.03</div></td></tr><tr><td style="font-weight:bold;vertical-align:top;">wsgi.errors</td><td style="vertical-align:top;">:</td><td><div>&lt;open file &#x27;&lt;stderr&gt;&#x27;, mode &#x27;w&#x27; at 0x7f0df94281e0&gt;</div></td></tr><tr><td style="font-weight:bold;vertical-align:top;">wsgi.file_wrapper</td><td style="vertical-align:top;">:</td><td><div>&lt;class wsgiref.util.FileWrapper at 0x7f0df2252e88&gt;</div></td></tr><tr><td style="font-weight:bold;vertical-align:top;">wsgi.input</td><td style="vertical-align:top;">:</td><td><div>&lt;socket._fileobject object at 0x7f0db70a2250&gt;</div></td></tr><tr><td style="font-weight:bold;vertical-align:top;">wsgi.multiprocess</td><td style="vertical-align:top;">:</td><td><div>False</div></td></tr><tr><td style="font-weight:bold;vertical-align:top;">wsgi.multithread</td><td style="vertical-align:top;">:</td><td><div>True</div></td></tr><tr><td style="font-weight:bold;vertical-align:top;">wsgi.run_once</td><td style="vertical-align:top;">:</td><td><div>False</div></td></tr><tr><td style="font-weight:bold;vertical-align:top;">wsgi.url_scheme</td><td style="vertical-align:top;">:</td><td><div>http</div></td></tr><tr><td style="font-weight:bold;vertical-align:top;">wsgi.version</td><td style="vertical-align:top;">:</td><td><div><table><tr><td><div>1</div></td></tr><tr><td><div>0</div></td></tr></table></div></td></tr><tr><td style="font-weight:bold;vertical-align:top;">wsgi_errors</td><td style="vertical-align:top;">:</td><td><div>&lt;open file &#x27;&lt;stderr&gt;&#x27;, mode &#x27;w&#x27; at 0x7f0df94281e0&gt;</div></td></tr><tr><td style="font-weight:bold;vertical-align:top;">wsgi_file_wrapper</td><td style="vertical-align:top;">:</td><td><div>&lt;class wsgiref.util.FileWrapper at 0x7f0df2252e88&gt;</div></td></tr><tr><td style="font-weight:bold;vertical-align:top;">wsgi_input</td><td style="vertical-align:top;">:</td><td><div>&lt;socket._fileobject object at 0x7f0db70a2250&gt;</div></td></tr><tr><td style="font-weight:bold;vertical-align:top;">wsgi_multiprocess</td><td style="vertical-align:top;">:</td><td><div>False</div></td></tr><tr><td style="font-weight:bold;vertical-align:top;">wsgi_multithread</td><td style="vertical-align:top;">:</td><td><div>True</div></td></tr><tr><td style="font-weight:bold;vertical-align:top;">wsgi_run_once</td><td style="vertical-align:top;">:</td><td><div>False</div></td></tr><tr><td style="font-weight:bold;vertical-align:top;">wsgi_url_scheme</td><td style="vertical-align:top;">:</td><td><div>http</div></td></tr><tr><td style="font-weight:bold;vertical-align:top;">wsgi_version</td><td style="vertical-align:top;">:</td><td><div><table><tr><td><div>1</div></td></tr><tr><td><div>0</div></td></tr></table></div></td></tr></table></div></td></tr><tr><td style="font-weight:bold;vertical-align:top;">extension</td><td style="vertical-align:top;">:</td><td><div>html</div></td></tr><tr><td style="font-weight:bold;vertical-align:top;">folder</td><td style="vertical-align:top;">:</td><td><div>/home/abhi/Downloads/CourseMaterial/web2Py/web2py/applications/final/</div></td></tr><tr><td style="font-weight:bold;vertical-align:top;">function</td><td style="vertical-align:top;">:</td><td><div>search_results</div></td></tr><tr><td style="font-weight:bold;vertical-align:top;">global_settings</td><td style="vertical-align:top;">:</td><td><div><table><tr><td style="font-weight:bold;vertical-align:top;">app_folders</td><td style="vertical-align:top;">:</td><td><div>set([&#x27;/home/abhi/Downloads/CourseMaterial/web2Py/web2py/applications/welcome/&#x27;, &#x27;/home/abhi/Downloads/CourseMaterial/web2Py/web2py/applications/final/&#x27;, &#x27;/home/abhi/Downloads/CourseMaterial/web2Py/web2py/applications/admin/&#x27;])</div></td></tr><tr><td style="font-weight:bold;vertical-align:top;">applications_parent</td><td style="vertical-align:top;">:</td><td><div>/home/abhi/Downloads/CourseMaterial/web2Py/web2py</div></td></tr><tr><td style="font-weight:bold;vertical-align:top;">cmd_args</td><td style="vertical-align:top;">:</td><td><div><table></table></div></td></tr><tr><td style="font-weight:bold;vertical-align:top;">cmd_options</td><td style="vertical-align:top;">:</td><td><div>&lt;Values at 0x7f0df21c9fc8: {&#x27;verbose&#x27;: False, &#x27;ip&#x27;: &#x27;127.0.0.1&#x27;, &#x27;debuglevel&#x27;: 30, &#x27;with_scheduler&#x27;: False, &#x27;ips&#x27;: [&#x27;127.0.1.1&#x27;], &#x27;shutdown_timeout&#x27;: 5, &#x27;taskbar&#x27;: False, &#x27;with_coverage&#x27;: False, &#x27;scheduler_groups&#x27;: None, &#x27;port&#x27;: 8000, &#x27;maxthreads&#x27;: None, &#x27;softcron&#x27;: False, &#x27;server_name&#x27;: &#x27;abhi-Vostro-3546&#x27;, &#x27;bpython&#x27;: False, &#x27;nogui&#x27;: False, &#x27;pid_filename&#x27;: &#x27;httpserver.pid&#x27;, &#x27;print_errors&#x27;: False, &#x27;extcron&#x27;: False, &#x27;runcron&#x27;: False, &#x27;run_system_tests&#x27;: False, &#x27;test&#x27;: None, &#x27;folder&#x27;: &#x27;/home/abhi/Downloads/CourseMaterial/web2Py/web2py&#x27;, &#x27;config&#x27;: &#x27;&#x27;, &#x27;minthreads&#x27;: None, &#x27;shell&#x27;: None, &#x27;run&#x27;: &#x27;&#x27;, &#x27;log_filename&#x27;: &#x27;httpserver.log&#x27;, &#x27;profiler_dir&#x27;: None, &#x27;args&#x27;: [&#x27;&#x27;], &#x27;socket_timeout&#x27;: 5, &#x27;ssl_ca_certificate&#x27;: None, &#x27;scheduler&#x27;: None, &#x27;interfaces&#x27;: None, &#x27;ssl_private_key&#x27;: &#x27;&#x27;, &#x27;gae&#x27;: None, &#x27;password&#x27;: &#x27;&lt;ask&gt;&#x27;, &#x27;request_queue_size&#x27;: 5, &#x27;ssl_certificate&#x27;: &#x27;&#x27;, &#x27;cronjob&#x27;: False, &#x27;numthreads&#x27;: None, &#x27;quiet&#x27;: False, &#x27;import_models&#x27;: False, &#x27;timeout&#x27;: 10, &#x27;plain&#x27;: False, &#x27;nobanner&#x27;: False}&gt;</div></td></tr><tr><td style="font-weight:bold;vertical-align:top;">db_sessions</td><td style="vertical-align:top;">:</td><td><div>set([])</div></td></tr><tr><td style="font-weight:bold;vertical-align:top;">debugging</td><td style="vertical-align:top;">:</td><td><div>False</div></td></tr><tr><td style="font-weight:bold;vertical-align:top;">gluon_parent</td><td style="vertical-align:top;">:</td><td><div>/home/abhi/Downloads/CourseMaterial/web2Py/web2py</div></td></tr><tr><td style="font-weight:bold;vertical-align:top;">is_jython</td><td style="vertical-align:top;">:</td><td><div>False</div></td></tr><tr><td style="font-weight:bold;vertical-align:top;">is_pypy</td><td style="vertical-align:top;">:</td><td><div>False</div></td></tr><tr><td style="font-weight:bold;vertical-align:top;">is_source</td><td style="vertical-align:top;">:</td><td><div>True</div></td></tr><tr><td style="font-weight:bold;vertical-align:top;">local_hosts</td><td style="vertical-align:top;">:</td><td><div><table><tr><td><div>::1</div></td></tr><tr><td><div>127.0.1.1</div></td></tr><tr><td><div>::ffff:127.0.0.1</div></td></tr><tr><td><div>127.0.0.1</div></td></tr><tr><td><div>abhi-Vostro-3546</div></td></tr></table></div></td></tr><tr><td style="font-weight:bold;vertical-align:top;">web2py_version</td><td style="vertical-align:top;">:</td><td><div>2.12.3-stable+timestamp.2015.08.19.00.18.03</div></td></tr></table></div></td></tr><tr><td style="font-weight:bold;vertical-align:top;">is_https</td><td style="vertical-align:top;">:</td><td><div>False</div></td></tr><tr><td style="font-weight:bold;vertical-align:top;">is_local</td><td style="vertical-align:top;">:</td><td><div>True</div></td></tr><tr><td style="font-weight:bold;vertical-align:top;">is_restful</td><td style="vertical-align:top;">:</td><td><div>False</div></td></tr><tr><td style="font-weight:bold;vertical-align:top;">is_sheduler</td><td style="vertical-align:top;">:</td><td><div>None</div></td></tr><tr><td style="font-weight:bold;vertical-align:top;">is_shell</td><td style="vertical-align:top;">:</td><td><div>None</div></td></tr><tr><td style="font-weight:bold;vertical-align:top;">now</td><td style="vertical-align:top;">:</td><td><div>datetime.datetime(2015, 11, 23, 12, 25, 47, 567818)</div></td></tr><tr><td style="font-weight:bold;vertical-align:top;">raw_args</td><td style="vertical-align:top;">:</td><td><div>A/img/favicon.png</div></td></tr><tr><td style="font-weight:bold;vertical-align:top;">raw_extension</td><td style="vertical-align:top;">:</td><td><div>None</div></td></tr><tr><td style="font-weight:bold;vertical-align:top;">url</td><td style="vertical-align:top;">:</td><td><div>/final/default/search_results/A/img/favicon.png</div></td></tr><tr><td style="font-weight:bold;vertical-align:top;">utcnow</td><td style="vertical-align:top;">:</td><td><div>datetime.datetime(2015, 11, 23, 6, 55, 47, 567847)</div></td></tr><tr><td style="font-weight:bold;vertical-align:top;">wsgi</td><td style="vertical-align:top;">:</td><td><div>&lt;gluon.main.LazyWSGI object at 0x7f0db65f1550&gt;</div></td></tr></table></div>'
tRp66
sS'frames'
p67
(lp68
(dp69
S'file'
p70
S'/home/abhi/Downloads/CourseMaterial/web2Py/web2py/gluon/restricted.py'
p71
sS'dump'
p72
(dp73
S'environment'
p74
S"{'A': <class 'gluon.html.A'>, 'ANY_OF': <class 'gluon.validators.ANY_OF'>, 'ASSIGNJS': <function ASSIGNJS>, 'AppConfig': <function AppConfig>, 'Auth': <class 'gluon.tools.Auth'>, 'B': <class 'gluon.html.B'>, 'BEAUTIFY': <class 'gluon.html.BEAUTIFY'>, 'BODY': <class 'gluon.html.BODY'>, 'BR': <class 'gluon.html.BR'>, 'BUTTON': <class 'gluon.html.BUTTON'>, ...}"
p75
sS'ccode'
p76
S'<code object <module> at 0x7f0db65a7f30, file "/...final/views/default/search_results.html", line 1>'
p77
ssS'lnum'
p78
I227
sS'lines'
p79
(dp80
I224
S'            ccode = code'
p81
sI225
S'        else:'
p82
sI226
S'            ccode = compile2(code, layer)'
p83
sI227
S'        exec ccode in environment'
p84
sI228
S'    except HTTP:'
p85
sI229
S'        raise'
p86
sI230
S'    except RestrictedError:'
p87
sI231
S'        # do not encapsulate (obfuscate) the original RestrictedError'
p88
sI222
S'    try:'
p89
sI223
S'        if isinstance(code, types.CodeType):'
p90
ssS'call'
p91
S'(code=\'response.write(\\\'<!DOCTYPE html>\\\\n<html lang="en"..."></script>\\\\n\\\\n  </body>\\\\n</html>\\\', escape=False)\', environment={\'A\': <class \'gluon.html.A\'>, \'ANY_OF\': <class \'gluon.validators.ANY_OF\'>, \'ASSIGNJS\': <function ASSIGNJS>, \'AppConfig\': <function AppConfig>, \'Auth\': <class \'gluon.tools.Auth\'>, \'B\': <class \'gluon.html.B\'>, \'BEAUTIFY\': <class \'gluon.html.BEAUTIFY\'>, \'BODY\': <class \'gluon.html.BODY\'>, \'BR\': <class \'gluon.html.BR\'>, \'BUTTON\': <class \'gluon.html.BUTTON\'>, ...}, layer=\'/home/abhi/Downloads/CourseMaterial/web2Py/web2p...lications/final/views/default/search_results.html\')'
p92
sS'func'
p93
S'restricted'
p94
sa(dp95
g70
S'/home/abhi/Downloads/CourseMaterial/web2Py/web2py/applications/final/views/default/search_results.html'
p96
sg72
(dp97
S'b'
S'undefined'
p98
ssg78
I102
sg79
(dp99
I96
S'    response.write(query)'
p100
sI97
S"    response.write('</strong></h1></caption>\\n          <tbody>\\n                ', escape=False)"
p101
sI98
S'    i=0'
p102
sI99
S"    response.write('\\n    ', escape=False)"
p103
sI100
S'    for track in tracks:'
p104
sI101
S"        response.write('\\n        <tr>\\n            <td>', escape=False)"
p105
sI102
S"        response.write(A(track.title, _href=URL('insert',vars=dict(title=track.title,genre='romance',url=track.permalink_url,category='Audio'))))"
p106
sI103
S"        response.write('\\n            </td>\\n            <td>  \\n            </td>\\n        </tr>\\n        ', escape=False)"
p107
sI104
S'        i+=1'
p108
sI105
S"        response.write('\\n    ', escape=False)"
p109
sI106
S'        pass'
p110
sI107
S"    response.write('\\n    </tbody>\\n          </tbody>\\n          </table>\\n          ', escape=False)"
p111
sI108
S'    pass'
p112
sI109
S'response.write(\'\\n          </div>\\n        </div>\\n      </div>\\n\\n              <!-- project team & activity start -->\\n          \\n              <!-- project team & activity end -->\\n\\n          </section>\\n      <!--main content end-->\\n  \\n</section>\\n</section>\\n  <!-- container section start -->\\n\\n    <!-- javascripts -->\\n        <!-- javascripts -->\\n    <script src="\', escape=False)'
p113
sI110
S"response.write(URL('static','js/jquery.js'))"
p114
sI111
S'response.write(\'"></script>\\n  <script src="\', escape=False)'
p115
sI112
S"response.write(URL('static','js/jquery-ui-1.10.4.min.js'))"
p116
sI93
S"    response.write('\\n          </tbody>\\n          </table>\\n          ', escape=False)"
p117
sI94
S'else:'
p118
sI95
S'    response.write(\'\\n          <table class="table table-striped table-hover table-border ">\\n          <caption class="dark-bg"><h1><strong>Results for \', escape=False)'
p119
ssg91
S'()'
p120
sg93
S'<module>'
p121
sa(dp122
g70
S'/home/abhi/Downloads/CourseMaterial/web2Py/web2py/gluon/html.py'
p123
sg72
(dp124
S'urllib.urlencode'
p125
S'<function urlencode>'
p126
sS'global urllib'
p127
S"<module 'urllib' from '/usr/lib/python2.7/urllib.pyc'>"
p128
sS'other'
p129
S"''"
p130
sS'list_vars'
p131
S"[('category', 'Audio'), ('genre', 'romance'), ('title', u'\\ud558\\ub098\\ub418\\uc5b4'), ('url', u'https://soundcloud.com/xexekr/fmiei9ibaatk')]"
p132
ssg78
I388
sg79
(dp133
I384
S''
sI385
S'    if list_vars:'
p134
sI386
S'        if url_encode:'
p135
sI387
S'\t    print list_vars'
p136
sI388
S"            other += '?%s' % urllib.urlencode(list_vars)"
p137
sI389
S'        else:'
p138
sI390
S"            other += '?%s' % '&'.join(['%s=%s' % var[:2] for var in list_vars])"
p139
sI391
S'    if anchor:'
p140
sI392
S'        if url_encode:'
p141
sI383
S"        list_vars.append(('_signature', sig))"
p142
ssg91
S"(a=None, c=None, f='insert', r=<Storage {'_vars': None, 'function': 'search_res...urseMaterial/web2Py/web2py/applications/final/'}>, args=[], vars={'category': 'Audio', 'genre': 'romance', 'title': u'\\ud558\\ub098\\ub418\\uc5b4', 'url': u'https://soundcloud.com/xexekr/fmiei9ibaatk'}, anchor='', extension=None, env=<Storage {'HTTP_REFERER': 'http://127.0.0.1:8000..., 'HTTP_ACCEPT_ENCODING': 'gzip, deflate, sdch'}>, hmac_key=None, hash_vars=True, salt=None, user_signature=None, scheme=None, host=None, port=None, encode_embedded_slash=False, url_encode=True, language=None)"
p143
sg93
S'URL'
p144
sa(dp145
g70
S'/usr/lib/python2.7/urllib.py'
p146
sg72
(dp147
S'builtinstr'
p148
S"<type 'str'>"
p149
sS'global quote_plus'
p150
S'<function quote_plus>'
p151
sS'v'
S"u'\\ud558\\ub098\\ub418\\uc5b4'"
p152
ssg78
I1332
sg79
(dp153
I1327
S'    l = []'
p154
sI1328
S'    if not doseq:'
p155
sI1329
S'        # preserve old behavior'
p156
sI1330
S'        for k, v in query:'
p157
sI1331
S'            k = quote_plus(str(k))'
p158
sI1332
S'            v = quote_plus(str(v))'
p159
sI1333
S"            l.append(k + '=' + v)"
p160
sI1334
S'    else:'
p161
sI1335
S'        for k, v in query:'
p162
sI1336
S'            k = quote_plus(str(k))'
p163
ssg91
S"(query=[('category', 'Audio'), ('genre', 'romance'), ('title', u'\\ud558\\ub098\\ub418\\uc5b4'), ('url', u'https://soundcloud.com/xexekr/fmiei9ibaatk')], doseq=0)"
p164
sg93
S'urlencode'
p165
sasS'pyver'
p166
S'Python 2.7.6: /usr/bin/python (prefix: /usr)'
p167
sS'session'
p168
g65
(S's\x0b\n\x00\x00<div><table><tr><td style="font-weight:bold;vertical-align:top;">auth</td><td style="vertical-align:top;">:</td><td><div><table><tr><td style="font-weight:bold;vertical-align:top;">expiration</td><td style="vertical-align:top;">:</td><td><div>3600</div></td></tr><tr><td style="font-weight:bold;vertical-align:top;">hmac_key</td><td style="vertical-align:top;">:</td><td><div>69921962-676c-4cc5-8371-1ffccbe93f38</div></td></tr><tr><td style="font-weight:bold;vertical-align:top;">last_visit</td><td style="vertical-align:top;">:</td><td><div>datetime.datetime(2015, 11, 23, 12, 23, 51, 93478)</div></td></tr><tr><td style="font-weight:bold;vertical-align:top;">remember_me</td><td style="vertical-align:top;">:</td><td><div>False</div></td></tr><tr><td style="font-weight:bold;vertical-align:top;">user</td><td style="vertical-align:top;">:</td><td><div><table><tr><td style="font-weight:bold;vertical-align:top;">email</td><td style="vertical-align:top;">:</td><td><div>abhishek.s14@iiits.in</div></td></tr><tr><td style="font-weight:bold;vertical-align:top;">first_name</td><td style="vertical-align:top;">:</td><td><div>abhishek</div></td></tr><tr><td style="font-weight:bold;vertical-align:top;">id</td><td style="vertical-align:top;">:</td><td><div>1L</div></td></tr><tr><td style="font-weight:bold;vertical-align:top;">last_name</td><td style="vertical-align:top;">:</td><td><div>singh</div></td></tr><tr><td style="font-weight:bold;vertical-align:top;">registration_id</td><td style="vertical-align:top;">:</td><td><div></div></td></tr><tr><td style="font-weight:bold;vertical-align:top;">registration_key</td><td style="vertical-align:top;">:</td><td><div></div></td></tr><tr><td style="font-weight:bold;vertical-align:top;">reset_password_key</td><td style="vertical-align:top;">:</td><td><div></div></td></tr></table></div></td></tr><tr><td style="font-weight:bold;vertical-align:top;">user_groups</td><td style="vertical-align:top;">:</td><td><div><table><tr><td style="font-weight:bold;vertical-align:top;">1</td><td style="vertical-align:top;">:</td><td><div>user_1</div></td></tr></table></div></td></tr></table></div></td></tr><tr><td style="font-weight:bold;vertical-align:top;">flash</td><td style="vertical-align:top;">:</td><td><div>None</div></td></tr><tr><td style="font-weight:bold;vertical-align:top;">last_orderby</td><td style="vertical-align:top;">:</td><td><div>None</div></td></tr><tr><td style="font-weight:bold;vertical-align:top;">last_query</td><td style="vertical-align:top;">:</td><td><div>db.songs.id&gt;0</div></td></tr></table></div>'
tRp169
sS'etype'
p170
S"<type 'exceptions.UnicodeEncodeError'>"
p171
sS'date'
p172
S'Mon Nov 23 12:26:15 2015'
p173
sS'response'
p174
g65
(S's\xb2?\x00\x00<div><table><tr><td style="font-weight:bold;vertical-align:top;">body</td><td style="vertical-align:top;">:</td><td><div>&lt;cStringIO.StringO object at 0x7f0db72a5ae8&gt;</div></td></tr><tr><td style="font-weight:bold;vertical-align:top;">cookies</td><td style="vertical-align:top;">:</td><td><div><table><tr><td style="font-weight:bold;vertical-align:top;">session_id_final</td><td style="vertical-align:top;">:</td><td><div>127.0.0.1-82024f4e-90c8-497e-993b-ff1ce2546f61<table><tr><td style="font-weight:bold;vertical-align:top;">comment</td><td style="vertical-align:top;">:</td><td><div></div></td></tr><tr><td style="font-weight:bold;vertical-align:top;">domain</td><td style="vertical-align:top;">:</td><td><div></div></td></tr><tr><td style="font-weight:bold;vertical-align:top;">expires</td><td style="vertical-align:top;">:</td><td><div></div></td></tr><tr><td style="font-weight:bold;vertical-align:top;">httponly</td><td style="vertical-align:top;">:</td><td><div></div></td></tr><tr><td style="font-weight:bold;vertical-align:top;">max-age</td><td style="vertical-align:top;">:</td><td><div></div></td></tr><tr><td style="font-weight:bold;vertical-align:top;">path</td><td style="vertical-align:top;">:</td><td><div>/</div></td></tr><tr><td style="font-weight:bold;vertical-align:top;">secure</td><td style="vertical-align:top;">:</td><td><div></div></td></tr><tr><td style="font-weight:bold;vertical-align:top;">version</td><td style="vertical-align:top;">:</td><td><div></div></td></tr></table></div></td></tr></table></div></td></tr><tr><td style="font-weight:bold;vertical-align:top;">delimiters</td><td style="vertical-align:top;">:</td><td><div><table><tr><td><div>{{</div></td></tr><tr><td><div>}}</div></td></tr></table></div></td></tr><tr><td style="font-weight:bold;vertical-align:top;">files</td><td style="vertical-align:top;">:</td><td><div><table></table></div></td></tr><tr><td style="font-weight:bold;vertical-align:top;">flash</td><td style="vertical-align:top;">:</td><td><div></div></td></tr><tr><td style="font-weight:bold;vertical-align:top;">form_label_separator</td><td style="vertical-align:top;">:</td><td><div></div></td></tr><tr><td style="font-weight:bold;vertical-align:top;">formstyle</td><td style="vertical-align:top;">:</td><td><div>bootstrap3_inline</div></td></tr><tr><td style="font-weight:bold;vertical-align:top;">generic_patterns</td><td style="vertical-align:top;">:</td><td><div><table><tr><td><div>*</div></td></tr></table></div></td></tr><tr><td style="font-weight:bold;vertical-align:top;">google_analytics_id</td><td style="vertical-align:top;">:</td><td><div>None</div></td></tr><tr><td style="font-weight:bold;vertical-align:top;">headers</td><td style="vertical-align:top;">:</td><td><div><table><tr><td style="font-weight:bold;vertical-align:top;">X-Powered-By</td><td style="vertical-align:top;">:</td><td><div>web2py</div></td></tr></table></div></td></tr><tr><td style="font-weight:bold;vertical-align:top;">logo</td><td style="vertical-align:top;">:</td><td><div><a class="navbar-brand" href="http://www.web2py.com/" id="web2py-logo"><b>web<span>2</span>py</b>&trade;&nbsp;</a></div></td></tr><tr><td style="font-weight:bold;vertical-align:top;">menu</td><td style="vertical-align:top;">:</td><td><div><table><tr><td><div><table><tr><td><div>Home</div></td></tr><tr><td><div>False</div></td></tr><tr><td><div>/final/default/index</div></td></tr><tr><td><div><table></table></div></td></tr></table></div></td></tr><tr><td><div><table><tr><td><div>My Sites</div></td></tr><tr><td><div>False</div></td></tr><tr><td><div>/admin/default/site</div></td></tr></table></div></td></tr><tr><td><div><table><tr><td><div>This App</div></td></tr><tr><td><div>False</div></td></tr><tr><td><div>#</div></td></tr><tr><td><div><table><tr><td><div><table><tr><td><div>Design</div></td></tr><tr><td><div>False</div></td></tr><tr><td><div>/admin/default/design/final</div></td></tr></table></div></td></tr><tr><td><div><li class="divider"></li></div></td></tr><tr><td><div><table><tr><td><div>Controller</div></td></tr><tr><td><div>False</div></td></tr><tr><td><div>/admin/default/edit/final/controllers/default.py</div></td></tr></table></div></td></tr><tr><td><div><table><tr><td><div>View</div></td></tr><tr><td><div>False</div></td></tr><tr><td><div>/admin/default/edit/final/views/default/search_results.html</div></td></tr></table></div></td></tr><tr><td><div><table><tr><td><div>DB Model</div></td></tr><tr><td><div>False</div></td></tr><tr><td><div>/admin/default/edit/final/models/db.py</div></td></tr></table></div></td></tr><tr><td><div><table><tr><td><div>Menu Model</div></td></tr><tr><td><div>False</div></td></tr><tr><td><div>/admin/default/edit/final/models/menu.py</div></td></tr></table></div></td></tr><tr><td><div><table><tr><td><div>Config.ini</div></td></tr><tr><td><div>False</div></td></tr><tr><td><div>/admin/default/edit/final/private/appconfig.ini</div></td></tr></table></div></td></tr><tr><td><div><table><tr><td><div>Layout</div></td></tr><tr><td><div>False</div></td></tr><tr><td><div>/admin/default/edit/final/views/layout.html</div></td></tr></table></div></td></tr><tr><td><div><table><tr><td><div>Stylesheet</div></td></tr><tr><td><div>False</div></td></tr><tr><td><div>/admin/default/edit/final/static/css/web2py-bootstrap3.css</div></td></tr></table></div></td></tr><tr><td><div><table><tr><td><div>Database</div></td></tr><tr><td><div>False</div></td></tr><tr><td><div>/final/appadmin/index</div></td></tr></table></div></td></tr><tr><td><div><table><tr><td><div>Errors</div></td></tr><tr><td><div>False</div></td></tr><tr><td><div>/admin/default/errors/final</div></td></tr></table></div></td></tr><tr><td><div><table><tr><td><div>About</div></td></tr><tr><td><div>False</div></td></tr><tr><td><div>/admin/default/about/final</div></td></tr></table></div></td></tr></table></div></td></tr></table></div></td></tr><tr><td><div><table><tr><td><div>web2py.com</div></td></tr><tr><td><div>False</div></td></tr><tr><td><div>#</div></td></tr><tr><td><div><table><tr><td><div><table><tr><td><div>Download</div></td></tr><tr><td><div>False</div></td></tr><tr><td><div>http://www.web2py.com/examples/default/download</div></td></tr></table></div></td></tr><tr><td><div><table><tr><td><div>Support</div></td></tr><tr><td><div>False</div></td></tr><tr><td><div>http://www.web2py.com/examples/default/support</div></td></tr></table></div></td></tr><tr><td><div><table><tr><td><div>Demo</div></td></tr><tr><td><div>False</div></td></tr><tr><td><div>http://web2py.com/demo_admin</div></td></tr></table></div></td></tr><tr><td><div><table><tr><td><div>Quick Examples</div></td></tr><tr><td><div>False</div></td></tr><tr><td><div>http://web2py.com/examples/default/examples</div></td></tr></table></div></td></tr><tr><td><div><table><tr><td><div>FAQ</div></td></tr><tr><td><div>False</div></td></tr><tr><td><div>http://web2py.com/AlterEgo</div></td></tr></table></div></td></tr><tr><td><div><table><tr><td><div>Videos</div></td></tr><tr><td><div>False</div></td></tr><tr><td><div>http://www.web2py.com/examples/default/videos/</div></td></tr></table></div></td></tr><tr><td><div><table><tr><td><div>Free Applications</div></td></tr><tr><td><div>False</div></td></tr><tr><td><div>http://web2py.com/appliances</div></td></tr></table></div></td></tr><tr><td><div><table><tr><td><div>Plugins</div></td></tr><tr><td><div>False</div></td></tr><tr><td><div>http://web2py.com/plugins</div></td></tr></table></div></td></tr><tr><td><div><table><tr><td><div>Recipes</div></td></tr><tr><td><div>False</div></td></tr><tr><td><div>http://web2pyslices.com/</div></td></tr></table></div></td></tr></table></div></td></tr></table></div></td></tr><tr><td><div><table><tr><td><div>Documentation</div></td></tr><tr><td><div>False</div></td></tr><tr><td><div>#</div></td></tr><tr><td><div><table><tr><td><div><table><tr><td><div>Online book</div></td></tr><tr><td><div>False</div></td></tr><tr><td><div>http://www.web2py.com/book</div></td></tr></table></div></td></tr><tr><td><div><li class="divider"></li></div></td></tr><tr><td><div><table><tr><td><div>Preface</div></td></tr><tr><td><div>False</div></td></tr><tr><td><div>http://www.web2py.com/book/default/chapter/00</div></td></tr></table></div></td></tr><tr><td><div><table><tr><td><div>Introduction</div></td></tr><tr><td><div>False</div></td></tr><tr><td><div>http://www.web2py.com/book/default/chapter/01</div></td></tr></table></div></td></tr><tr><td><div><table><tr><td><div>Python</div></td></tr><tr><td><div>False</div></td></tr><tr><td><div>http://www.web2py.com/book/default/chapter/02</div></td></tr></table></div></td></tr><tr><td><div><table><tr><td><div>Overview</div></td></tr><tr><td><div>False</div></td></tr><tr><td><div>http://www.web2py.com/book/default/chapter/03</div></td></tr></table></div></td></tr><tr><td><div><table><tr><td><div>The Core</div></td></tr><tr><td><div>False</div></td></tr><tr><td><div>http://www.web2py.com/book/default/chapter/04</div></td></tr></table></div></td></tr><tr><td><div><table><tr><td><div>The Views</div></td></tr><tr><td><div>False</div></td></tr><tr><td><div>http://www.web2py.com/book/default/chapter/05</div></td></tr></table></div></td></tr><tr><td><div><table><tr><td><div>Database</div></td></tr><tr><td><div>False</div></td></tr><tr><td><div>http://www.web2py.com/book/default/chapter/06</div></td></tr></table></div></td></tr><tr><td><div><table><tr><td><div>Forms and Validators</div></td></tr><tr><td><div>False</div></td></tr><tr><td><div>http://www.web2py.com/book/default/chapter/07</div></td></tr></table></div></td></tr><tr><td><div><table><tr><td><div>Email and SMS</div></td></tr><tr><td><div>False</div></td></tr><tr><td><div>http://www.web2py.com/book/default/chapter/08</div></td></tr></table></div></td></tr><tr><td><div><table><tr><td><div>Access Control</div></td></tr><tr><td><div>False</div></td></tr><tr><td><div>http://www.web2py.com/book/default/chapter/09</div></td></tr></table></div></td></tr><tr><td><div><table><tr><td><div>Services</div></td></tr><tr><td><div>False</div></td></tr><tr><td><div>http://www.web2py.com/book/default/chapter/10</div></td></tr></table></div></td></tr><tr><td><div><table><tr><td><div>Ajax Recipes</div></td></tr><tr><td><div>False</div></td></tr><tr><td><div>http://www.web2py.com/book/default/chapter/11</div></td></tr></table></div></td></tr><tr><td><div><table><tr><td><div>Components and Plugins</div></td></tr><tr><td><div>False</div></td></tr><tr><td><div>http://www.web2py.com/book/default/chapter/12</div></td></tr></table></div></td></tr><tr><td><div><table><tr><td><div>Deployment Recipes</div></td></tr><tr><td><div>False</div></td></tr><tr><td><div>http://www.web2py.com/book/default/chapter/13</div></td></tr></table></div></td></tr><tr><td><div><table><tr><td><div>Other Recipes</div></td></tr><tr><td><div>False</div></td></tr><tr><td><div>http://www.web2py.com/book/default/chapter/14</div></td></tr></table></div></td></tr><tr><td><div><table><tr><td><div>Helping web2py</div></td></tr><tr><td><div>False</div></td></tr><tr><td><div>http://www.web2py.com/book/default/chapter/15</div></td></tr></table></div></td></tr><tr><td><div><table><tr><td><div>Buy web2py\'s book</div></td></tr><tr><td><div>False</div></td></tr><tr><td><div>http://stores.lulu.com/web2py</div></td></tr></table></div></td></tr></table></div></td></tr></table></div></td></tr><tr><td><div><table><tr><td><div>Community</div></td></tr><tr><td><div>False</div></td></tr><tr><td><div>None</div></td></tr><tr><td><div><table><tr><td><div><table><tr><td><div>Groups</div></td></tr><tr><td><div>False</div></td></tr><tr><td><div>http://www.web2py.com/examples/default/usergroups</div></td></tr></table></div></td></tr><tr><td><div><table><tr><td><div>Twitter</div></td></tr><tr><td><div>False</div></td></tr><tr><td><div>http://twitter.com/web2py</div></td></tr></table></div></td></tr><tr><td><div><table><tr><td><div>Live Chat</div></td></tr><tr><td><div>False</div></td></tr><tr><td><div>http://webchat.freenode.net/?channels=web2py</div></td></tr></table></div></td></tr></table></div></td></tr></table></div></td></tr></table></div></td></tr><tr><td style="font-weight:bold;vertical-align:top;">meta</td><td style="vertical-align:top;">:</td><td><div><table><tr><td style="font-weight:bold;vertical-align:top;">author</td><td style="vertical-align:top;">:</td><td><div>Your Name &lt;you@example.com&gt;</div></td></tr><tr><td style="font-weight:bold;vertical-align:top;">description</td><td style="vertical-align:top;">:</td><td><div>a cool new app</div></td></tr><tr><td style="font-weight:bold;vertical-align:top;">generator</td><td style="vertical-align:top;">:</td><td><div>Web2py Web Framework</div></td></tr><tr><td style="font-weight:bold;vertical-align:top;">keywords</td><td style="vertical-align:top;">:</td><td><div>web2py, python, framework</div></td></tr></table></div></td></tr><tr><td style="font-weight:bold;vertical-align:top;">models_to_run</td><td style="vertical-align:top;">:</td><td><div><table><tr><td><div>^\\w+\\.py$</div></td></tr><tr><td><div>^default/\\w+\\.py$</div></td></tr><tr><td><div>^default/search_results/\\w+\\.py$</div></td></tr></table></div></td></tr><tr><td style="font-weight:bold;vertical-align:top;">postprocessing</td><td style="vertical-align:top;">:</td><td><div><table></table></div></td></tr><tr><td style="font-weight:bold;vertical-align:top;">session_client</td><td style="vertical-align:top;">:</td><td><div>127.0.0.1</div></td></tr><tr><td style="font-weight:bold;vertical-align:top;">session_cookie_compression_level</td><td style="vertical-align:top;">:</td><td><div>None</div></td></tr><tr><td style="font-weight:bold;vertical-align:top;">session_cookie_expires</td><td style="vertical-align:top;">:</td><td><div>None</div></td></tr><tr><td style="font-weight:bold;vertical-align:top;">session_cookie_key</td><td style="vertical-align:top;">:</td><td><div>None</div></td></tr><tr><td style="font-weight:bold;vertical-align:top;">session_data_name</td><td style="vertical-align:top;">:</td><td><div>session_data_final</div></td></tr><tr><td style="font-weight:bold;vertical-align:top;">session_file</td><td style="vertical-align:top;">:</td><td><div>&lt;open file &#x27;/home/abhi/Downloads/CourseMaterial/web2Py/web2py/applications/final/sessions/1f8/085/127.0.0.1-82024f4e-90c8-497e-993b-ff1ce2546f61&#x27;, mode &#x27;rb+&#x27; at 0x7f0db657b030&gt;</div></td></tr><tr><td style="font-weight:bold;vertical-align:top;">session_filename</td><td style="vertical-align:top;">:</td><td><div>/home/abhi/Downloads/CourseMaterial/web2Py/web2py/applications/final/sessions/127.0.0.1-82024f4e-90c8-497e-993b-ff1ce2546f61</div></td></tr><tr><td style="font-weight:bold;vertical-align:top;">session_hash</td><td style="vertical-align:top;">:</td><td><div>125a814d958337dc951fe1893d520268</div></td></tr><tr><td style="font-weight:bold;vertical-align:top;">session_id</td><td style="vertical-align:top;">:</td><td><div>127.0.0.1-82024f4e-90c8-497e-993b-ff1ce2546f61</div></td></tr><tr><td style="font-weight:bold;vertical-align:top;">session_id_name</td><td style="vertical-align:top;">:</td><td><div>session_id_final</div></td></tr><tr><td style="font-weight:bold;vertical-align:top;">session_locked</td><td style="vertical-align:top;">:</td><td><div>True</div></td></tr><tr><td style="font-weight:bold;vertical-align:top;">session_masterapp</td><td style="vertical-align:top;">:</td><td><div>final</div></td></tr><tr><td style="font-weight:bold;vertical-align:top;">session_new</td><td style="vertical-align:top;">:</td><td><div>False</div></td></tr><tr><td style="font-weight:bold;vertical-align:top;">session_storage_type</td><td style="vertical-align:top;">:</td><td><div>file</div></td></tr><tr><td style="font-weight:bold;vertical-align:top;">status</td><td style="vertical-align:top;">:</td><td><div>200</div></td></tr><tr><td style="font-weight:bold;vertical-align:top;">subtitle</td><td style="vertical-align:top;">:</td><td><div></div></td></tr><tr><td style="font-weight:bold;vertical-align:top;">title</td><td style="vertical-align:top;">:</td><td><div>Final</div></td></tr><tr><td style="font-weight:bold;vertical-align:top;">view</td><td style="vertical-align:top;">:</td><td><div>default/search_results.html</div></td></tr></table></div>'
tRp175
sS'locals'
p176
(dp177
S'query'
p178
S"[('category', 'Audio'), ('genre', 'romance'), ('title', u'\\ud558\\ub098\\ub418\\uc5b4'), ('url', u'https://soundcloud.com/xexekr/fmiei9ibaatk')]"
p179
sS'k'
S"'title'"
p180
sS'v'
S"u'\\ud558\\ub098\\ub418\\uc5b4'"
p181
sS'doseq'
p182
S'0'
sS'l'
S"['category=Audio', 'genre=romance']"
p183
sssS'traceback'
p184
S'Traceback (most recent call last):\n  File "/home/abhi/Downloads/CourseMaterial/web2Py/web2py/gluon/restricted.py", line 227, in restricted\n    exec ccode in environment\n  File "/home/abhi/Downloads/CourseMaterial/web2Py/web2py/applications/final/views/default/search_results.html", line 102, in <module>\n    <b class="caret"></b>\n  File "/home/abhi/Downloads/CourseMaterial/web2Py/web2py/gluon/html.py", line 388, in URL\n    other += \'?%s\' % urllib.urlencode(list_vars)\n  File "/usr/lib/python2.7/urllib.py", line 1332, in urlencode\n    v = quote_plus(str(v))\nUnicodeEncodeError: \'ascii\' codec can\'t encode characters in position 0-3: ordinal not in range(128)\n'
p185
s.