(dp1
S'output'
p2
S"<class 'requests.exceptions.ConnectionError'> HTTPSConnectionPool(host='api.soundcloud.com', port=443): Max retries exceeded with url: /oembed.json?url=https%3A%2F%2Fsoundcloud.com%2Farij_jamshed%2Fsun-le-zara-full-audio-song-singham-return2014-arjit-singh&client_id=f4e257503f0990527a6e17e14158076e (Caused by <class 'socket.gaierror'>: [Errno -2] Name or service not known)"
p3
sS'layer'
p4
S'/home/abhi/Downloads/CourseMaterial/web2Py/web2py/applications/final/controllers/default.py'
p5
sS'code'
p6
S'# -*- coding: utf-8 -*-\n# this file is released under public domain and you can use without limitations\n\n#########################################################################\n## This is a sample controller\n## - index is the default action of any application\n## - user is required for authentication and authorization\n## - download is for downloading files uploaded in the db (does streaming)\n#########################################################################\nimport soundcloud\nfrom apiclient.discovery import build\nfrom apiclient.errors import HttpError\nfrom oauth2client.tools import argparser\n\n\n# Set DEVELOPER_KEY to the API key value from the APIs & auth > Registered apps\n# tab of\n#   https://cloud.google.com/console\n# Please ensure that you have enabled the YouTube Data API for your project.\nDEVELOPER_KEY = "AIzaSyBY_Z6jpdpSddA1VQEbAM6x0lNxLWyAir0"\nYOUTUBE_API_SERVICE_NAME = "youtube"\nYOUTUBE_API_VERSION = "v3"\n\nclient = soundcloud.Client(client_id=\'f4e257503f0990527a6e17e14158076e\')\n\n\n\n\n\n\n\n\n\n\n\n\n\ndef index():\n    form = SQLFORM.factory(Field(\'query\',\'string\'), Field(\'option\') ,formstyle=\'divs\', submit_button="Search")\n    response.flash = T("Hello World")\n    if form.process().accepted:\n        #k=redirect(URL(\'default\',\'results\', args=[1, formone.vars.search_query_1]))\n        print form.vars.query\n        redirect(URL(\'default\',\'search_results\', args=[form.vars.option, form.vars.query]))\n    elif form.errors:\n        print "failed"\n    else:\n        print "unknown"\n    #return dict(form=form)\n    return locals()\n\n\ndef test():\n    \n    form = SQLFORM.factory(Field(\'query\',\'string\'), Field(\'option\') ,formstyle=\'divs\', submit_button="Search")\n    response.flash = T("Hello World")\n    if form.process().accepted:\n        #k=redirect(URL(\'default\',\'results\', args=[1, formone.vars.search_query_1]))\n        print form.vars.query\n        redirect(URL(\'default\',\'search_results\', args=[form.vars.option, form.vars.query]))\n    elif form.errors:\n        print "failed"\n    else:\n        print "unknown"\n    return locals()\n\n\ndef search_results():\n    form = SQLFORM.factory(Field(\'query\',\'string\'), Field(\'option\'),formstyle=\'divs\', submit_button="Search")\n    if form.process().accepted:\n        #k=redirect(URL(\'default\',\'results\', args=[1, formone.vars.search_query_1]))\n        print form.vars.query\n        redirect(URL(\'default\',\'search_results\', args=[form.vars.option, form.vars.query]))\n    elif form.errors:\n        print "failed"\n    else:\n        print "unknown"\n    search = request.args(0) or redirect(URL(\'default\',\'index\'))\n    if search == \'V\':\n        import sys\n        reload(sys)\n        sys.setdefaultencoding("utf-8")\n        query = request.args(1) or redirect(URL(\'default\',\'index\'))\n        youtube = build(YOUTUBE_API_SERVICE_NAME, YOUTUBE_API_VERSION,developerKey=DEVELOPER_KEY)\n        search_response = youtube.search().list(q=query.encode(\'utf-8\'),part="id,snippet",maxResults=20).execute()\n        l=[]\n        videos = []\n        channels = []\n        playlists = []\n        for search_result in search_response.get("items", []):\n            if search_result["id"]["kind"] == "youtube#video":\n                l.append(search_result["snippet"]["title"])\n                l.append(search_result["id"]["videoId"])\n                videos.append(l)\n                l=[]\n            elif search_result["id"]["kind"] == "youtube#channel":\n                channels.append("%s (%s)" % (search_result["snippet"]["title"],\n                                   search_result["id"]["channelId"]))\n            elif search_result["id"]["kind"] == "youtube#playlist":\n                playlists.append("%s (%s)" % (search_result["snippet"]["title"],\n                                    search_result["id"]["playlistId"]))\n        return dict(videos=videos[0:20],search=search,form=form,query=query)\n    elif search == \'A\':\n        query = request.args(1) or redirect(URL(\'default\',\'index\'))\n        tracks = client.get(\'/tracks\', q=query, limit=20)\n        """emb = []\n        for track in tracks:\n            print track.stream_url\n            url = client.get(track.stream_url, allow_redirects=False)\n            emb.append(url.location)\n            print url.location\n            #print type(track.title)"""\n        for t in tracks:\n            url=t.permalink_url\n            #print url\n            embed_info = client.get(\'/oembed\', url=url)\n            #print embed_info.html\n            #for x in t:\n            #    print x,t[x]\n            #print "\\n\\n"\n        return dict(tracks=tracks,search=search,form=form,query=query)\n\n\n"""def display_manual_form():\n    #form = SQLFORM(db.person)\n    form = SQLFORM.factory(Field(\'s1\',\'string\'), formstyle=\'divs\', submit_button="Search")\n    if form.process(session=None, formname=\'test\').accepted:\n        print query\n    elif form.errors:\n        response.flash = \'form has errors\'\n    else:\n        response.flash = \'please fill the form\'\n    # Note: no form instance is passed to the view\n    return dict()"""\n\ndef spons_playlist():\n    form = SQLFORM.factory(Field(\'query\',\'string\'), Field(\'option\') ,formstyle=\'divs\', submit_button="Search")\n    if form.process().accepted:\n        #k=redirect(URL(\'default\',\'results\', args=[1, formone.vars.search_query_1]))\n        print form.vars.query\n        redirect(URL(\'default\',\'search_results\', args=[form.vars.option, form.vars.query]))\n    elif form.errors:\n        print "failed"\n    else:\n        print "unknown"\n    #search = request.args(0, cast=int) or redirect(URL(\'default\',\'index\'))\n    return dict(form=form)\n\n"""def form_component():\n    form = SQLFORM.factory(Field(\'query\',\'string\'), formstyle=\'divs\', submit_button="Search")\n    if form.process().accepted:\n        #k=redirect(URL(\'default\',\'results\', args=[1, formone.vars.search_query_1]))\n        print form.vars.query\n        redirect(URL(\'default\',\'search_results\', args=[1, form.vars.query]))\n    elif form.errors:\n        print "failed"\n    else:\n        print "unknown"\n    songs = db(db.songs.genre==)\n    #search = request.args(0, cast=int) or redirect(URL(\'default\',\'index\'))\n    return locals()"""\n\n\n#@auth.requires_login()\ndef vote():\n    id=request.args(0,cast=int)\n    #print id\n    flag=True\n    if auth.user:\n        song=db.songs(id)\n        likes=db.songs_like(db.songs_like.songs1==id)\n        #print song\n        #print likes\n        if song:\n            if likes:\n                q=db((db.songs_like.user_id==auth.user.id)&(db.songs_like.songs1==id)).select()\n                print q[0].total\n                if q[0].total==0:\n                    print "Increased Like"\n                    song.update_record(Likes=song.Likes+1)\n                    likes.update_record(total=1)\n                    flag=False\n                else:\n                    print "Deleted Like"\n                    if song.Likes!=0:\n                        song.update_record(Likes=song.Likes-1)\n                    else:\n                        song.update_record(Likes=0)\n                    likes.update_record(total=0)\n                    flag=True\n                    #db((db.songs_like.songs1==song.id)&(db.songs_like.user_id==auth.user.id)).delete()\n            else:\n                #print auth.user.id , song.id\n                db.songs_like.insert(total=1,songs1=song.id,user_id=auth.user.id)\n        else:\n            return str("Song on which you tried to vote doesnt exist")\n        song=db.songs(id)\n        return str(song.Likes)\n    else:\n        return str("Please Log IN")\n\n\n\n@auth.requires_login()\ndef mark_favourite():\n    id=request.args(0,cast=int)\n    print id\n    x=db((db.favourite.songid==id)&(db.favourite.user_id==auth.user.id)).select()\n    print "x is = "\n    print x\n    if not x:\n        db.favourite.insert(songid=id,user_id=auth.user.id)\n        redirect(URL(\'default\',\'see\', args=[1,id]))\n    else :\n        redirect(URL(\'default\',\'index\'))\n\n@auth.requires_login()\ndef favsong():\n    form = SQLFORM.factory(Field(\'query\',\'string\'),Field(\'option\') ,formstyle=\'divs\', submit_button="Search")\n    if form.process().accepted:\n        #k=redirect(URL(\'default\',\'results\', args=[1, formone.vars.search_query_1]))\n        print form.vars.query\n        print form.vars.option\n        redirect(URL(\'default\',\'search_results\', args=[form.vars.option, form.vars.query]))\n    elif form.errors:\n        print "failed"\n    else:\n        print "unknown"\n    result=db(db.favourite.user_id==auth.user.id).select()\n    l=[]\n    for r in result:\n        k=db(db.songs.id==r.songid).select()\n        if k[0].category == \'Audio\':\n            l.append(k[0])\n    return dict(song=l,form=form)\n\n@auth.requires_login()\ndef favideo():\n    form = SQLFORM.factory(Field(\'query\',\'string\'), Field(\'option\') ,formstyle=\'divs\', submit_button="Search")\n    if form.process().accepted:\n        #k=redirect(URL(\'default\',\'results\', args=[1, formone.vars.search_query_1]))\n        print form.vars.query\n        redirect(URL(\'default\',\'search_results\', args=[form.vars.option, form.vars.query]))\n    elif form.errors:\n        print "failed"\n    else:\n        print "unknown"\n    result=db(db.favourite.user_id==auth.user.id).select()\n    l=[]\n    for r in result:\n        k=db(db.songs.id==r.songid).select()\n        if k[0].category == \'Video\':\n            l.append(k[0])\n    return dict(song=l,form=form)\n\ndef widgets():\n    form = SQLFORM.factory(Field(\'query\',\'string\'),Field(\'option\') , formstyle=\'divs\', submit_button="Search")\n    if form.process().accepted:\n        #k=redirect(URL(\'default\',\'results\', args=[1, formone.vars.search_query_1]))\n        print form.vars.query\n        redirect(URL(\'default\',\'search_results\', args=[form.vars.option, form.vars.query]))\n    elif form.errors:\n        print "failed"\n    else:\n        print "unknown"\n\n    song=db().select(db.songs.title,db.songs.id,db.songs.category)\n    return locals()\n\n\ndef radio():\n\n    form = SQLFORM.factory(Field(\'query\',\'string\'), Field(\'option\') ,formstyle=\'divs\', submit_button="Search")\n    response.flash = T("Hello World")\n    if form.process().accepted:\n        #k=redirect(URL(\'default\',\'results\', args=[1, formone.vars.search_query_1]))\n        print form.vars.query\n        redirect(URL(\'default\',\'search_results\', args=[form.vars.option, form.vars.query]))\n    elif form.errors:\n        print "failed"\n    else:\n        print "unknown"\n    import json\n    import urllib2\n    url = "http://api.dirble.com/v2/stations?per_page=30&token=f1a8a36dd125c2e665dafec481"\n    data = json.load(urllib2.urlopen(url))\n    #return dict(form=form)\n    return locals()\n\ndef see():\n    form = SQLFORM.factory(Field(\'query\',\'string\'),Field(\'option\') , formstyle=\'divs\', submit_button="Search")\n    if form.process().accepted:\n        #k=redirect(URL(\'default\',\'results\', args=[1, formone.vars.search_query_1]))\n        #print form.vars.query\n        redirect(URL(\'default\',\'search_results\', args=[form.vars.option, form.vars.query]))\n    elif form.errors:\n        print "failed"\n    else:\n        print "unknown"\n    id=request.args(0,cast=int)\n    #print db.songs(id)\n    song=db.songs(id) or redirect(URL(\'index\'))\n    comments=db(db.cmnt.songs1==song.id).select()\n    #print song.id\n    #song.Likes.default=0\n    Likes=song.Likes\n    #print Likes\n    #for comment in comments:\n    if auth.user:\n        #db.cmnt.songs1=id\n        db.cmnt.songs1.default=id\n        formcmnt=SQLFORM(db.cmnt)\n        if formcmnt.process().accepted:\n            redirect(URL(\'see\',args=id))\n        else:\n            response.flash="Success!"\n    else:\n        formcmnt=A("Please Login for commenting and liking",_href=URL(\'user/login\',vars=dict(_next=URL(args=request.args))))\n    return locals()\n\ndef upload():\n    form=SQLFORM(db.videos, fields=[\'title\',\'description\',\'video\'])\n    return locals()\n\ndef insert():\n    vars=request.get_vars\n    title=vars.title\n    url=vars.url\n    print url\n    category=vars.category\n    genre=vars.genre\n    likes=0\n    existing=db(db.songs.title==vars.title).select()\n    #if category == \'Audio\':\n        #url = client.get(url, allow_redirects=False)\n        #url=url.location\n    if existing:\n        new_id=existing.id\n    else:    \n        db.songs.insert(title=title,url=url,category=category,genre=genre,Likes=likes)\n        new_id=db(db.songs.id>0).count()\n    redirect(URL(\'see\',args=new_id))\n\n"""def see():\n    x=0\n    id=request.args(0,cast=int)\n    print db.songs(id)\n    song=db.songs(id) or redirect(URL(\'index\'))\n    comments=db(db.cmnt.songs1==song.id).select()\n    print song.id\n    #song.Likes.default=0\n    Likes=song.Likes\n    #for comment in comments:\n    if auth.user:\n        #db.cmnt.songs1=id\n        db.cmnt.songs1.default=id\n        form=SQLFORM(db.cmnt)\n        if form.process().accepted:\n            redirect(URL(\'see\',args=id))\n        else:\n            response.flash="Success!"\n    else:\n        form=A("Please Login for commenting and liking",_href=URL(\'user/login\',vars=dict(_next=URL(args=request.args))))\n    return locals()\n"""\n\n@auth.requires_login()\ndef mark_favourite():\n    id=request.args(0,cast=int)\n    print id\n    x=db((db.favourite.songid==id)&(db.favourite.user_id==auth.user.id)).select()\n    print "x is = "\n    print x\n    if not x:\n        db.favourite.insert(songid=id,user_id=auth.user.id)\n        redirect(URL(\'default\',\'see\', args=[1,id]))\n    else :\n        redirect(URL(\'default\',\'index\'))\n\ndef user():\n    """\n    exposes:\n    http://..../[app]/default/user/login\n    http://..../[app]/default/user/logout\n    http://..../[app]/default/user/register\n    http://..../[app]/default/user/profile\n    http://..../[app]/default/user/retrieve_password\n    http://..../[app]/default/user/change_password\n    http://..../[app]/default/user/manage_users (requires membership in\n    http://..../[app]/default/user/bulk_register\n    use @auth.requires_login()\n        @auth.requires_membership(\'group name\')\n        @auth.requires_permission(\'read\',\'table name\',record_id)\n    to decorate functions that need access control\n    """\n    return dict(form=auth())\n\n\n@cache.action()\ndef download():\n    """\n    allows downloading of uploaded files\n    http://..../[app]/default/download/[filename]\n    """\n    return response.download(request, db)\n\n\ndef call():\n    """\n    exposes services. for example:\n    http://..../[app]/default/call/jsonrpc\n    decorate with @services.jsonrpc the functions to expose\n    supports xml, json, xmlrpc, jsonrpc, amfrpc, rss, csv\n    """\n    return service()\nresponse._vars=response._caller(search_results)\n'
p7
sS'snapshot'
p8
(dp9
S'exception'
p10
(dp11
S'__module__'
p12
S"'requests.exceptions'"
p13
sS'__getslice__'
p14
S"<method-wrapper '__getslice__' of ConnectionError object>"
p15
sS'__str__'
p16
S"<method-wrapper '__str__' of ConnectionError object>"
p17
sS'__reduce__'
p18
S'<built-in method __reduce__ of ConnectionError object>'
p19
sS'__dict__'
p20
S'{}'
p21
sS'__sizeof__'
p22
S'<built-in method __sizeof__ of ConnectionError object>'
p23
sS'__weakref__'
p24
S'None'
p25
sS'__init__'
p26
S"<method-wrapper '__init__' of ConnectionError object>"
p27
sS'__setattr__'
p28
S"<method-wrapper '__setattr__' of ConnectionError object>"
p29
sS'__reduce_ex__'
p30
S'<built-in method __reduce_ex__ of ConnectionError object>'
p31
sS'__new__'
p32
S'<built-in method __new__ of type object>'
p33
sS'errno'
p34
S'None'
p35
sS'__format__'
p36
S'<built-in method __format__ of ConnectionError object>'
p37
sS'__class__'
p38
S"<class 'requests.exceptions.ConnectionError'>"
p39
sS'filename'
p40
S'None'
p41
sS'__doc__'
p42
S"'A Connection error occurred.'"
p43
sS'__getitem__'
p44
S"<method-wrapper '__getitem__' of ConnectionError object>"
p45
sS'__setstate__'
p46
S'<built-in method __setstate__ of ConnectionError object>'
p47
sS'__getattribute__'
p48
S"<method-wrapper '__getattribute__' of ConnectionError object>"
p49
sS'args'
p50
S'(MaxRetryError("HTTPSConnectionPool(host=\'api.sou...error\'>: [Errno -2] Name or service not known)",),)'
p51
sS'__subclasshook__'
p52
S'<built-in method __subclasshook__ of type object>'
p53
sS'__unicode__'
p54
S'<built-in method __unicode__ of ConnectionError object>'
p55
sS'strerror'
p56
S'None'
p57
sS'__delattr__'
p58
S"<method-wrapper '__delattr__' of ConnectionError object>"
p59
sS'__repr__'
p60
S"<method-wrapper '__repr__' of ConnectionError object>"
p61
sS'__hash__'
p62
S"<method-wrapper '__hash__' of ConnectionError object>"
p63
ssS'evalue'
p64
S"HTTPSConnectionPool(host='api.soundcloud.com', port=443): Max retries exceeded with url: /oembed.json?url=https%3A%2F%2Fsoundcloud.com%2Farij_jamshed%2Fsun-le-zara-full-audio-song-singham-return2014-arjit-singh&client_id=f4e257503f0990527a6e17e14158076e (Caused by <class 'socket.gaierror'>: [Errno -2] Name or service not known)"
p65
sS'request'
p66
cgluon.html
XML_unpickle
p67
(S'seS\x00\x00<div><table><tr><td style="font-weight:bold;vertical-align:top;">ajax</td><td style="vertical-align:top;">:</td><td><div>False</div></td></tr><tr><td style="font-weight:bold;vertical-align:top;">application</td><td style="vertical-align:top;">:</td><td><div>final</div></td></tr><tr><td style="font-weight:bold;vertical-align:top;">args</td><td style="vertical-align:top;">:</td><td><div><table><tr><td><div>A</div></td></tr><tr><td><div>sun_le</div></td></tr></table></div></td></tr><tr><td style="font-weight:bold;vertical-align:top;">cid</td><td style="vertical-align:top;">:</td><td><div>None</div></td></tr><tr><td style="font-weight:bold;vertical-align:top;">client</td><td style="vertical-align:top;">:</td><td><div>127.0.0.1</div></td></tr><tr><td style="font-weight:bold;vertical-align:top;">controller</td><td style="vertical-align:top;">:</td><td><div>default</div></td></tr><tr><td style="font-weight:bold;vertical-align:top;">cookies</td><td style="vertical-align:top;">:</td><td><div><table><tr><td style="font-weight:bold;vertical-align:top;">session_id_final</td><td style="vertical-align:top;">:</td><td><div>127.0.0.1-e997da31-b43f-4718-bf2f-8c6bec3979c0<table><tr><td style="font-weight:bold;vertical-align:top;">comment</td><td style="vertical-align:top;">:</td><td><div></div></td></tr><tr><td style="font-weight:bold;vertical-align:top;">domain</td><td style="vertical-align:top;">:</td><td><div></div></td></tr><tr><td style="font-weight:bold;vertical-align:top;">expires</td><td style="vertical-align:top;">:</td><td><div></div></td></tr><tr><td style="font-weight:bold;vertical-align:top;">httponly</td><td style="vertical-align:top;">:</td><td><div></div></td></tr><tr><td style="font-weight:bold;vertical-align:top;">max-age</td><td style="vertical-align:top;">:</td><td><div></div></td></tr><tr><td style="font-weight:bold;vertical-align:top;">path</td><td style="vertical-align:top;">:</td><td><div></div></td></tr><tr><td style="font-weight:bold;vertical-align:top;">secure</td><td style="vertical-align:top;">:</td><td><div></div></td></tr><tr><td style="font-weight:bold;vertical-align:top;">version</td><td style="vertical-align:top;">:</td><td><div></div></td></tr></table></div></td></tr></table></div></td></tr><tr><td style="font-weight:bold;vertical-align:top;">env</td><td style="vertical-align:top;">:</td><td><div><table><tr><td style="font-weight:bold;vertical-align:top;">HTTP_ACCEPT</td><td style="vertical-align:top;">:</td><td><div>text/html,application/xhtml+xml,application/xml;q=0.9,*/*;q=0.8</div></td></tr><tr><td style="font-weight:bold;vertical-align:top;">HTTP_ACCEPT_ENCODING</td><td style="vertical-align:top;">:</td><td><div>gzip, deflate</div></td></tr><tr><td style="font-weight:bold;vertical-align:top;">HTTP_ACCEPT_LANGUAGE</td><td style="vertical-align:top;">:</td><td><div>en-US,en;q=0.5</div></td></tr><tr><td style="font-weight:bold;vertical-align:top;">HTTP_CONNECTION</td><td style="vertical-align:top;">:</td><td><div>keep-alive</div></td></tr><tr><td style="font-weight:bold;vertical-align:top;">HTTP_COOKIE</td><td style="vertical-align:top;">:</td><td><div>session_id_final=127.0.0.1-e997da31-b43f-4718-bf2f-8c6bec3979c0</div></td></tr><tr><td style="font-weight:bold;vertical-align:top;">HTTP_DNT</td><td style="vertical-align:top;">:</td><td><div>1</div></td></tr><tr><td style="font-weight:bold;vertical-align:top;">HTTP_HOST</td><td style="vertical-align:top;">:</td><td><div>127.0.0.1:8000</div></td></tr><tr><td style="font-weight:bold;vertical-align:top;">HTTP_REFERER</td><td style="vertical-align:top;">:</td><td><div>http://127.0.0.1:8000/final/</div></td></tr><tr><td style="font-weight:bold;vertical-align:top;">HTTP_USER_AGENT</td><td style="vertical-align:top;">:</td><td><div>Mozilla/5.0 (X11; Ubuntu; Linux x86_64; rv:41.0) Gecko/20100101 Firefox/41.0</div></td></tr><tr><td style="font-weight:bold;vertical-align:top;">PATH_INFO</td><td style="vertical-align:top;">:</td><td><div>/final/default/search_results/A/sun le</div></td></tr><tr><td style="font-weight:bold;vertical-align:top;">QUERY_STRING</td><td style="vertical-align:top;">:</td><td><div></div></td></tr><tr><td style="font-weight:bold;vertical-align:top;">REMOTE_ADDR</td><td style="vertical-align:top;">:</td><td><div>127.0.0.1</div></td></tr><tr><td style="font-weight:bold;vertical-align:top;">REMOTE_PORT</td><td style="vertical-align:top;">:</td><td><div>56877</div></td></tr><tr><td style="font-weight:bold;vertical-align:top;">REQUEST_METHOD</td><td style="vertical-align:top;">:</td><td><div>GET</div></td></tr><tr><td style="font-weight:bold;vertical-align:top;">SCRIPT_NAME</td><td style="vertical-align:top;">:</td><td><div></div></td></tr><tr><td style="font-weight:bold;vertical-align:top;">SERVER_NAME</td><td style="vertical-align:top;">:</td><td><div>abhi-Vostro-3546</div></td></tr><tr><td style="font-weight:bold;vertical-align:top;">SERVER_PORT</td><td style="vertical-align:top;">:</td><td><div>8000</div></td></tr><tr><td style="font-weight:bold;vertical-align:top;">SERVER_PROTOCOL</td><td style="vertical-align:top;">:</td><td><div>HTTP/1.1</div></td></tr><tr><td style="font-weight:bold;vertical-align:top;">SERVER_SOFTWARE</td><td style="vertical-align:top;">:</td><td><div>Rocket 1.2.6</div></td></tr><tr><td style="font-weight:bold;vertical-align:top;">app_folders</td><td style="vertical-align:top;">:</td><td><div>set([&#x27;/home/abhi/Downloads/CourseMaterial/web2Py/web2py/applications/welcome/&#x27;, &#x27;/home/abhi/Downloads/CourseMaterial/web2Py/web2py/applications/modal/&#x27;, &#x27;/home/abhi/Downloads/CourseMaterial/web2Py/web2py/applications/final/&#x27;, &#x27;/home/abhi/Downloads/CourseMaterial/web2Py/web2py/applications/admin/&#x27;])</div></td></tr><tr><td style="font-weight:bold;vertical-align:top;">applications_parent</td><td style="vertical-align:top;">:</td><td><div>/home/abhi/Downloads/CourseMaterial/web2Py/web2py</div></td></tr><tr><td style="font-weight:bold;vertical-align:top;">cmd_args</td><td style="vertical-align:top;">:</td><td><div><table></table></div></td></tr><tr><td style="font-weight:bold;vertical-align:top;">cmd_options</td><td style="vertical-align:top;">:</td><td><div>&lt;Values at 0x7f8401c8dfc8: {&#x27;verbose&#x27;: False, &#x27;ip&#x27;: &#x27;127.0.0.1&#x27;, &#x27;debuglevel&#x27;: 30, &#x27;with_scheduler&#x27;: False, &#x27;ips&#x27;: [&#x27;127.0.1.1&#x27;], &#x27;shutdown_timeout&#x27;: 5, &#x27;taskbar&#x27;: False, &#x27;with_coverage&#x27;: False, &#x27;scheduler_groups&#x27;: None, &#x27;port&#x27;: 8000, &#x27;maxthreads&#x27;: None, &#x27;softcron&#x27;: False, &#x27;server_name&#x27;: &#x27;abhi-Vostro-3546&#x27;, &#x27;bpython&#x27;: False, &#x27;nogui&#x27;: False, &#x27;pid_filename&#x27;: &#x27;httpserver.pid&#x27;, &#x27;print_errors&#x27;: False, &#x27;extcron&#x27;: False, &#x27;runcron&#x27;: False, &#x27;run_system_tests&#x27;: False, &#x27;test&#x27;: None, &#x27;folder&#x27;: &#x27;/home/abhi/Downloads/CourseMaterial/web2Py/web2py&#x27;, &#x27;config&#x27;: &#x27;&#x27;, &#x27;minthreads&#x27;: None, &#x27;shell&#x27;: None, &#x27;run&#x27;: &#x27;&#x27;, &#x27;log_filename&#x27;: &#x27;httpserver.log&#x27;, &#x27;profiler_dir&#x27;: None, &#x27;args&#x27;: [&#x27;&#x27;], &#x27;socket_timeout&#x27;: 5, &#x27;ssl_ca_certificate&#x27;: None, &#x27;scheduler&#x27;: None, &#x27;interfaces&#x27;: None, &#x27;ssl_private_key&#x27;: &#x27;&#x27;, &#x27;gae&#x27;: None, &#x27;password&#x27;: &#x27;&lt;ask&gt;&#x27;, &#x27;request_queue_size&#x27;: 5, &#x27;ssl_certificate&#x27;: &#x27;&#x27;, &#x27;cronjob&#x27;: False, &#x27;numthreads&#x27;: None, &#x27;quiet&#x27;: False, &#x27;import_models&#x27;: False, &#x27;timeout&#x27;: 10, &#x27;plain&#x27;: False, &#x27;nobanner&#x27;: False}&gt;</div></td></tr><tr><td style="font-weight:bold;vertical-align:top;">db_sessions</td><td style="vertical-align:top;">:</td><td><div>set([])</div></td></tr><tr><td style="font-weight:bold;vertical-align:top;">debugging</td><td style="vertical-align:top;">:</td><td><div>False</div></td></tr><tr><td style="font-weight:bold;vertical-align:top;">gluon_parent</td><td style="vertical-align:top;">:</td><td><div>/home/abhi/Downloads/CourseMaterial/web2Py/web2py</div></td></tr><tr><td style="font-weight:bold;vertical-align:top;">http_accept</td><td style="vertical-align:top;">:</td><td><div>text/html,application/xhtml+xml,application/xml;q=0.9,*/*;q=0.8</div></td></tr><tr><td style="font-weight:bold;vertical-align:top;">http_accept_encoding</td><td style="vertical-align:top;">:</td><td><div>gzip, deflate</div></td></tr><tr><td style="font-weight:bold;vertical-align:top;">http_accept_language</td><td style="vertical-align:top;">:</td><td><div>en-US,en;q=0.5</div></td></tr><tr><td style="font-weight:bold;vertical-align:top;">http_connection</td><td style="vertical-align:top;">:</td><td><div>keep-alive</div></td></tr><tr><td style="font-weight:bold;vertical-align:top;">http_cookie</td><td style="vertical-align:top;">:</td><td><div>session_id_final=127.0.0.1-e997da31-b43f-4718-bf2f-8c6bec3979c0</div></td></tr><tr><td style="font-weight:bold;vertical-align:top;">http_dnt</td><td style="vertical-align:top;">:</td><td><div>1</div></td></tr><tr><td style="font-weight:bold;vertical-align:top;">http_host</td><td style="vertical-align:top;">:</td><td><div>127.0.0.1:8000</div></td></tr><tr><td style="font-weight:bold;vertical-align:top;">http_referer</td><td style="vertical-align:top;">:</td><td><div>http://127.0.0.1:8000/final/</div></td></tr><tr><td style="font-weight:bold;vertical-align:top;">http_user_agent</td><td style="vertical-align:top;">:</td><td><div>Mozilla/5.0 (X11; Ubuntu; Linux x86_64; rv:41.0) Gecko/20100101 Firefox/41.0</div></td></tr><tr><td style="font-weight:bold;vertical-align:top;">is_jython</td><td style="vertical-align:top;">:</td><td><div>False</div></td></tr><tr><td style="font-weight:bold;vertical-align:top;">is_pypy</td><td style="vertical-align:top;">:</td><td><div>False</div></td></tr><tr><td style="font-weight:bold;vertical-align:top;">is_source</td><td style="vertical-align:top;">:</td><td><div>True</div></td></tr><tr><td style="font-weight:bold;vertical-align:top;">local_hosts</td><td style="vertical-align:top;">:</td><td><div><table><tr><td><div>::1</div></td></tr><tr><td><div>127.0.1.1</div></td></tr><tr><td><div>::ffff:127.0.0.1</div></td></tr><tr><td><div>127.0.0.1</div></td></tr><tr><td><div>abhi-Vostro-3546</div></td></tr></table></div></td></tr><tr><td style="font-weight:bold;vertical-align:top;">path_info</td><td style="vertical-align:top;">:</td><td><div>/final/default/search_results/A/sun le</div></td></tr><tr><td style="font-weight:bold;vertical-align:top;">query_string</td><td style="vertical-align:top;">:</td><td><div></div></td></tr><tr><td style="font-weight:bold;vertical-align:top;">remote_addr</td><td style="vertical-align:top;">:</td><td><div>127.0.0.1</div></td></tr><tr><td style="font-weight:bold;vertical-align:top;">remote_port</td><td style="vertical-align:top;">:</td><td><div>56877</div></td></tr><tr><td style="font-weight:bold;vertical-align:top;">request_method</td><td style="vertical-align:top;">:</td><td><div>GET</div></td></tr><tr><td style="font-weight:bold;vertical-align:top;">request_uri</td><td style="vertical-align:top;">:</td><td><div>/final/default/search_results/A/sun le</div></td></tr><tr><td style="font-weight:bold;vertical-align:top;">script_name</td><td style="vertical-align:top;">:</td><td><div></div></td></tr><tr><td style="font-weight:bold;vertical-align:top;">server_name</td><td style="vertical-align:top;">:</td><td><div>abhi-Vostro-3546</div></td></tr><tr><td style="font-weight:bold;vertical-align:top;">server_port</td><td style="vertical-align:top;">:</td><td><div>8000</div></td></tr><tr><td style="font-weight:bold;vertical-align:top;">server_protocol</td><td style="vertical-align:top;">:</td><td><div>HTTP/1.1</div></td></tr><tr><td style="font-weight:bold;vertical-align:top;">server_software</td><td style="vertical-align:top;">:</td><td><div>Rocket 1.2.6</div></td></tr><tr><td style="font-weight:bold;vertical-align:top;">web2py_path</td><td style="vertical-align:top;">:</td><td><div>/home/abhi/Downloads/CourseMaterial/web2Py/web2py</div></td></tr><tr><td style="font-weight:bold;vertical-align:top;">web2py_version</td><td style="vertical-align:top;">:</td><td><div>2.12.3-stable+timestamp.2015.08.19.00.18.03</div></td></tr><tr><td style="font-weight:bold;vertical-align:top;">wsgi.errors</td><td style="vertical-align:top;">:</td><td><div>&lt;open file &#x27;&lt;stderr&gt;&#x27;, mode &#x27;w&#x27; at 0x7f8408eec1e0&gt;</div></td></tr><tr><td style="font-weight:bold;vertical-align:top;">wsgi.file_wrapper</td><td style="vertical-align:top;">:</td><td><div>&lt;class wsgiref.util.FileWrapper at 0x7f8401d16e88&gt;</div></td></tr><tr><td style="font-weight:bold;vertical-align:top;">wsgi.input</td><td style="vertical-align:top;">:</td><td><div>&lt;socket._fileobject object at 0x7f83c33f2bd0&gt;</div></td></tr><tr><td style="font-weight:bold;vertical-align:top;">wsgi.multiprocess</td><td style="vertical-align:top;">:</td><td><div>False</div></td></tr><tr><td style="font-weight:bold;vertical-align:top;">wsgi.multithread</td><td style="vertical-align:top;">:</td><td><div>True</div></td></tr><tr><td style="font-weight:bold;vertical-align:top;">wsgi.run_once</td><td style="vertical-align:top;">:</td><td><div>False</div></td></tr><tr><td style="font-weight:bold;vertical-align:top;">wsgi.url_scheme</td><td style="vertical-align:top;">:</td><td><div>http</div></td></tr><tr><td style="font-weight:bold;vertical-align:top;">wsgi.version</td><td style="vertical-align:top;">:</td><td><div><table><tr><td><div>1</div></td></tr><tr><td><div>0</div></td></tr></table></div></td></tr><tr><td style="font-weight:bold;vertical-align:top;">wsgi_errors</td><td style="vertical-align:top;">:</td><td><div>&lt;open file &#x27;&lt;stderr&gt;&#x27;, mode &#x27;w&#x27; at 0x7f8408eec1e0&gt;</div></td></tr><tr><td style="font-weight:bold;vertical-align:top;">wsgi_file_wrapper</td><td style="vertical-align:top;">:</td><td><div>&lt;class wsgiref.util.FileWrapper at 0x7f8401d16e88&gt;</div></td></tr><tr><td style="font-weight:bold;vertical-align:top;">wsgi_input</td><td style="vertical-align:top;">:</td><td><div>&lt;socket._fileobject object at 0x7f83c33f2bd0&gt;</div></td></tr><tr><td style="font-weight:bold;vertical-align:top;">wsgi_multiprocess</td><td style="vertical-align:top;">:</td><td><div>False</div></td></tr><tr><td style="font-weight:bold;vertical-align:top;">wsgi_multithread</td><td style="vertical-align:top;">:</td><td><div>True</div></td></tr><tr><td style="font-weight:bold;vertical-align:top;">wsgi_run_once</td><td style="vertical-align:top;">:</td><td><div>False</div></td></tr><tr><td style="font-weight:bold;vertical-align:top;">wsgi_url_scheme</td><td style="vertical-align:top;">:</td><td><div>http</div></td></tr><tr><td style="font-weight:bold;vertical-align:top;">wsgi_version</td><td style="vertical-align:top;">:</td><td><div><table><tr><td><div>1</div></td></tr><tr><td><div>0</div></td></tr></table></div></td></tr></table></div></td></tr><tr><td style="font-weight:bold;vertical-align:top;">extension</td><td style="vertical-align:top;">:</td><td><div>html</div></td></tr><tr><td style="font-weight:bold;vertical-align:top;">folder</td><td style="vertical-align:top;">:</td><td><div>/home/abhi/Downloads/CourseMaterial/web2Py/web2py/applications/final/</div></td></tr><tr><td style="font-weight:bold;vertical-align:top;">function</td><td style="vertical-align:top;">:</td><td><div>search_results</div></td></tr><tr><td style="font-weight:bold;vertical-align:top;">global_settings</td><td style="vertical-align:top;">:</td><td><div><table><tr><td style="font-weight:bold;vertical-align:top;">app_folders</td><td style="vertical-align:top;">:</td><td><div>set([&#x27;/home/abhi/Downloads/CourseMaterial/web2Py/web2py/applications/welcome/&#x27;, &#x27;/home/abhi/Downloads/CourseMaterial/web2Py/web2py/applications/modal/&#x27;, &#x27;/home/abhi/Downloads/CourseMaterial/web2Py/web2py/applications/final/&#x27;, &#x27;/home/abhi/Downloads/CourseMaterial/web2Py/web2py/applications/admin/&#x27;])</div></td></tr><tr><td style="font-weight:bold;vertical-align:top;">applications_parent</td><td style="vertical-align:top;">:</td><td><div>/home/abhi/Downloads/CourseMaterial/web2Py/web2py</div></td></tr><tr><td style="font-weight:bold;vertical-align:top;">cmd_args</td><td style="vertical-align:top;">:</td><td><div><table></table></div></td></tr><tr><td style="font-weight:bold;vertical-align:top;">cmd_options</td><td style="vertical-align:top;">:</td><td><div>&lt;Values at 0x7f8401c8dfc8: {&#x27;verbose&#x27;: False, &#x27;ip&#x27;: &#x27;127.0.0.1&#x27;, &#x27;debuglevel&#x27;: 30, &#x27;with_scheduler&#x27;: False, &#x27;ips&#x27;: [&#x27;127.0.1.1&#x27;], &#x27;shutdown_timeout&#x27;: 5, &#x27;taskbar&#x27;: False, &#x27;with_coverage&#x27;: False, &#x27;scheduler_groups&#x27;: None, &#x27;port&#x27;: 8000, &#x27;maxthreads&#x27;: None, &#x27;softcron&#x27;: False, &#x27;server_name&#x27;: &#x27;abhi-Vostro-3546&#x27;, &#x27;bpython&#x27;: False, &#x27;nogui&#x27;: False, &#x27;pid_filename&#x27;: &#x27;httpserver.pid&#x27;, &#x27;print_errors&#x27;: False, &#x27;extcron&#x27;: False, &#x27;runcron&#x27;: False, &#x27;run_system_tests&#x27;: False, &#x27;test&#x27;: None, &#x27;folder&#x27;: &#x27;/home/abhi/Downloads/CourseMaterial/web2Py/web2py&#x27;, &#x27;config&#x27;: &#x27;&#x27;, &#x27;minthreads&#x27;: None, &#x27;shell&#x27;: None, &#x27;run&#x27;: &#x27;&#x27;, &#x27;log_filename&#x27;: &#x27;httpserver.log&#x27;, &#x27;profiler_dir&#x27;: None, &#x27;args&#x27;: [&#x27;&#x27;], &#x27;socket_timeout&#x27;: 5, &#x27;ssl_ca_certificate&#x27;: None, &#x27;scheduler&#x27;: None, &#x27;interfaces&#x27;: None, &#x27;ssl_private_key&#x27;: &#x27;&#x27;, &#x27;gae&#x27;: None, &#x27;password&#x27;: &#x27;&lt;ask&gt;&#x27;, &#x27;request_queue_size&#x27;: 5, &#x27;ssl_certificate&#x27;: &#x27;&#x27;, &#x27;cronjob&#x27;: False, &#x27;numthreads&#x27;: None, &#x27;quiet&#x27;: False, &#x27;import_models&#x27;: False, &#x27;timeout&#x27;: 10, &#x27;plain&#x27;: False, &#x27;nobanner&#x27;: False}&gt;</div></td></tr><tr><td style="font-weight:bold;vertical-align:top;">db_sessions</td><td style="vertical-align:top;">:</td><td><div>set([])</div></td></tr><tr><td style="font-weight:bold;vertical-align:top;">debugging</td><td style="vertical-align:top;">:</td><td><div>False</div></td></tr><tr><td style="font-weight:bold;vertical-align:top;">gluon_parent</td><td style="vertical-align:top;">:</td><td><div>/home/abhi/Downloads/CourseMaterial/web2Py/web2py</div></td></tr><tr><td style="font-weight:bold;vertical-align:top;">is_jython</td><td style="vertical-align:top;">:</td><td><div>False</div></td></tr><tr><td style="font-weight:bold;vertical-align:top;">is_pypy</td><td style="vertical-align:top;">:</td><td><div>False</div></td></tr><tr><td style="font-weight:bold;vertical-align:top;">is_source</td><td style="vertical-align:top;">:</td><td><div>True</div></td></tr><tr><td style="font-weight:bold;vertical-align:top;">local_hosts</td><td style="vertical-align:top;">:</td><td><div><table><tr><td><div>::1</div></td></tr><tr><td><div>127.0.1.1</div></td></tr><tr><td><div>::ffff:127.0.0.1</div></td></tr><tr><td><div>127.0.0.1</div></td></tr><tr><td><div>abhi-Vostro-3546</div></td></tr></table></div></td></tr><tr><td style="font-weight:bold;vertical-align:top;">web2py_version</td><td style="vertical-align:top;">:</td><td><div>2.12.3-stable+timestamp.2015.08.19.00.18.03</div></td></tr></table></div></td></tr><tr><td style="font-weight:bold;vertical-align:top;">is_https</td><td style="vertical-align:top;">:</td><td><div>False</div></td></tr><tr><td style="font-weight:bold;vertical-align:top;">is_local</td><td style="vertical-align:top;">:</td><td><div>True</div></td></tr><tr><td style="font-weight:bold;vertical-align:top;">is_restful</td><td style="vertical-align:top;">:</td><td><div>False</div></td></tr><tr><td style="font-weight:bold;vertical-align:top;">is_sheduler</td><td style="vertical-align:top;">:</td><td><div>None</div></td></tr><tr><td style="font-weight:bold;vertical-align:top;">is_shell</td><td style="vertical-align:top;">:</td><td><div>None</div></td></tr><tr><td style="font-weight:bold;vertical-align:top;">now</td><td style="vertical-align:top;">:</td><td><div>datetime.datetime(2015, 11, 20, 0, 16, 57, 705366)</div></td></tr><tr><td style="font-weight:bold;vertical-align:top;">raw_args</td><td style="vertical-align:top;">:</td><td><div>A/sun le</div></td></tr><tr><td style="font-weight:bold;vertical-align:top;">raw_extension</td><td style="vertical-align:top;">:</td><td><div>None</div></td></tr><tr><td style="font-weight:bold;vertical-align:top;">url</td><td style="vertical-align:top;">:</td><td><div>/final/default/search_results/A/sun le</div></td></tr><tr><td style="font-weight:bold;vertical-align:top;">utcnow</td><td style="vertical-align:top;">:</td><td><div>datetime.datetime(2015, 11, 19, 18, 46, 57, 705395)</div></td></tr><tr><td style="font-weight:bold;vertical-align:top;">wsgi</td><td style="vertical-align:top;">:</td><td><div>&lt;gluon.main.LazyWSGI object at 0x7f83c327a7d0&gt;</div></td></tr></table></div>'
tRp68
sS'frames'
p69
(lp70
(dp71
S'file'
p72
S'/home/abhi/Downloads/CourseMaterial/web2Py/web2py/gluon/restricted.py'
p73
sS'dump'
p74
(dp75
S'environment'
p76
S"{'A': <class 'gluon.html.A'>, 'ANY_OF': <class 'gluon.validators.ANY_OF'>, 'ASSIGNJS': <function ASSIGNJS>, 'AppConfig': <function AppConfig>, 'Auth': <class 'gluon.tools.Auth'>, 'B': <class 'gluon.html.B'>, 'BEAUTIFY': <class 'gluon.html.BEAUTIFY'>, 'BODY': <class 'gluon.html.BODY'>, 'BR': <class 'gluon.html.BR'>, 'BUTTON': <class 'gluon.html.BUTTON'>, ...}"
p77
sS'ccode'
p78
S'<code object <module> at 0x7f83c340dbb0, file "/...lications/final/controllers/default.py", line 10>'
p79
ssS'lnum'
p80
I227
sS'lines'
p81
(dp82
I224
S'            ccode = code'
p83
sI225
S'        else:'
p84
sI226
S'            ccode = compile2(code, layer)'
p85
sI227
S'        exec ccode in environment'
p86
sI228
S'    except HTTP:'
p87
sI229
S'        raise'
p88
sI230
S'    except RestrictedError:'
p89
sI231
S'        # do not encapsulate (obfuscate) the original RestrictedError'
p90
sI222
S'    try:'
p91
sI223
S'        if isinstance(code, types.CodeType):'
p92
ssS'call'
p93
S"(code='# -*- coding: utf-8 -*-\\n# this file is released ...\\nresponse._vars=response._caller(search_results)\\n', environment={'A': <class 'gluon.html.A'>, 'ANY_OF': <class 'gluon.validators.ANY_OF'>, 'ASSIGNJS': <function ASSIGNJS>, 'AppConfig': <function AppConfig>, 'Auth': <class 'gluon.tools.Auth'>, 'B': <class 'gluon.html.B'>, 'BEAUTIFY': <class 'gluon.html.BEAUTIFY'>, 'BODY': <class 'gluon.html.BODY'>, 'BR': <class 'gluon.html.BR'>, 'BUTTON': <class 'gluon.html.BUTTON'>, ...}, layer='/home/abhi/Downloads/CourseMaterial/web2Py/web2py/applications/final/controllers/default.py')"
p94
sS'func'
p95
S'restricted'
p96
sa(dp97
g72
S'/home/abhi/Downloads/CourseMaterial/web2Py/web2py/applications/final/controllers/default.py'
p98
sg74
(dp99
sg80
I416
sg81
(dp100
I406
S''
sI407
S''
sI408
S'def call():'
p101
sI409
S'    """'
p102
sI410
S'    exposes services. for example:'
p103
sI411
S'    http://..../[app]/default/call/jsonrpc'
p104
sI412
S'    decorate with @services.jsonrpc the functions to expose'
p105
sI413
S'    supports xml, json, xmlrpc, jsonrpc, amfrpc, rss, csv'
p106
sI414
S'    """'
p107
sI415
S'    return service()'
p108
ssg93
S'()'
p109
sg95
S'<module>'
p110
sa(dp111
g72
S'/home/abhi/Downloads/CourseMaterial/web2Py/web2py/gluon/globals.py'
p112
sg74
(dp113
S'self'
p114
S'undefined'
p115
sS'f'
S'<function search_results>'
p116
ssg80
I412
sg81
(dp117
I416
S"        self.generic_patterns = ['*']"
p118
sI407
S"        self.flash = ''            # used by the default view layout"
p119
sI408
S'        self.meta = Storage()      # used by web2py_ajax.html'
p120
sI409
S'        self.menu = []             # used by the default view layout'
p121
sI410
S'        self.files = []            # used by web2py_ajax.html'
p122
sI411
S'        self._vars = None'
p123
sI412
S'        self._caller = lambda f: f()'
p124
sI413
S'        self._view_environment = None'
p125
sI414
S'        self._custom_commit = None'
p126
sI415
S'        self._custom_rollback = None'
p127
ssg93
S'(f=<function search_results>)'
p128
sg95
S'<lambda>'
p129
sa(dp130
g72
S'/home/abhi/Downloads/CourseMaterial/web2Py/web2py/applications/final/controllers/default.py'
p131
sg74
(dp132
S'embed_info'
p133
S'<soundcloud.resource.Resource object>'
p134
sS'url'
p135
S"u'https://soundcloud.com/arij_jamshed/sun-le-zara-full-audio-song-singham-return2014-arjit-singh'"
p136
sS'client.get'
p137
S'<functools.partial object>'
p138
sS'global client'
p139
S'<soundcloud.client.Client object>'
p140
ssg80
I116
sg81
(dp141
I111
S'            print url.location'
p142
sI112
S'            #print type(track.title)"""'
p143
sI113
S'        for t in tracks:'
p144
sI114
S'            url=t.permalink_url'
p145
sI115
S'            #print url'
p146
sI116
S"            embed_info = client.get('/oembed', url=url)"
p147
sI117
S'            #print embed_info.html'
p148
sI118
S'            #for x in t:'
p149
sI119
S'            #    print x,t[x]'
p150
sI120
S'            #print "\\n\\n"'
p151
ssg93
S'()'
p152
sg95
S'search_results'
p153
sa(dp154
g72
S'/usr/local/lib/python2.7/dist-packages/soundcloud/client.py'
p155
sg74
(dp156
S'global make_request'
p157
S'<function make_request>'
p158
sS'url'
p159
S"'https://api.soundcloud.com/oembed.json'"
p160
sS'global wrapped_resource'
p161
S'<function wrapped_resource>'
p162
sS'method'
p163
S"'get'"
p164
sS'kwargs'
p165
S"{'client_id': 'f4e257503f0990527a6e17e14158076e', 'url': u'https://soundcloud.com/arij_jamshed/sun-le-zara-full-audio-song-singham-return2014-arjit-singh'}"
p166
ssg80
I130
sg81
(dp167
I128
S"            'proxies': self.options.get('proxies', None)"
p168
sI129
S'        })'
p169
sI130
S'        return wrapped_resource(make_request(method, url, kwargs))'
p170
sI131
S''
sI132
S'    def __getattr__(self, name, **kwargs):'
p171
sI133
S'        """Translate an HTTP verb into a request method."""'
p172
sI134
S"        if name not in ('get', 'post', 'put', 'head', 'delete'):"
p173
sI125
S''
sI126
S'        kwargs.update({'
p174
sI127
S"            'verify_ssl': self.options.get('verify_ssl', True),"
p175
ssg93
S"(self=<soundcloud.client.Client object>, method='get', resource='/oembed', **kwargs={'client_id': 'f4e257503f0990527a6e17e14158076e', 'url': u'https://soundcloud.com/arij_jamshed/sun-le-zara-full-audio-song-singham-return2014-arjit-singh'})"
p176
sg95
S'_request'
p177
sa(dp178
g72
S'/usr/local/lib/python2.7/dist-packages/soundcloud/request.py'
p179
sg74
(dp180
S'request_func'
p181
S'<function get>'
p182
sS'url'
p183
S"'https://api.soundcloud.com/oembed.json'"
p184
sS'qs'
p185
S"'url=https%3A%2F%2Fsoundcloud.com%2Farij_jamshed%...-singh&client_id=f4e257503f0990527a6e17e14158076e'"
p186
sS'result'
p187
g115
sS'kwargs'
p188
S"{'allow_redirects': True, 'headers': {'User-Agent': 'SoundCloud Python API Wrapper 0.4.1'}}"
p189
ssg80
I122
sg81
(dp190
I117
S'    if request_func is None:'
p191
sI118
S"        raise TypeError('Unknown method: %s' % (method,))"
p192
sI119
S''
sI120
S"    if method == 'get':"
p193
sI121
S'        qs = urllib.urlencode(data)'
p194
sI122
S"        result = request_func('%s?%s' % (url, qs), **kwargs)"
p195
sI123
S'    else:'
p196
sI124
S"        kwargs['data'] = data"
p197
sI125
S'        if files:'
p198
sI126
S"            kwargs['files'] = files"
p199
ssg93
S"(method='get', url='https://api.soundcloud.com/oembed.json', params={'client_id': 'f4e257503f0990527a6e17e14158076e', 'url': u'https://soundcloud.com/arij_jamshed/sun-le-zara-full-audio-song-singham-return2014-arjit-singh'})"
p200
sg95
S'make_request'
p201
sa(dp202
g72
S'/usr/lib/python2.7/dist-packages/requests/api.py'
p203
sg74
(dp204
S'global request'
p205
S'<function request>'
p206
sS'url'
p207
S"'https://api.soundcloud.com/oembed.json?url=https...-singh&client_id=f4e257503f0990527a6e17e14158076e'"
p208
sS'kwargs'
p209
S"{'allow_redirects': True, 'headers': {'User-Agent': 'SoundCloud Python API Wrapper 0.4.1'}}"
p210
ssg80
I55
sg81
(dp211
I50
S'    :param url: URL for the new :class:`Request` object.'
p212
sI51
S'    :param \\*\\*kwargs: Optional arguments that ``request`` takes.'
p213
sI52
S'    """'
p214
sI53
S''
sI54
S"    kwargs.setdefault('allow_redirects', True)"
p215
sI55
S"    return request('get', url, **kwargs)"
p216
sI56
S''
sI57
S''
sI58
S'def options(url, **kwargs):'
p217
sI59
S'    """Sends a OPTIONS request. Returns :class:`Response` object.'
p218
ssg93
S"(url='https://api.soundcloud.com/oembed.json?url=https...-singh&client_id=f4e257503f0990527a6e17e14158076e', **kwargs={'allow_redirects': True, 'headers': {'User-Agent': 'SoundCloud Python API Wrapper 0.4.1'}})"
p219
sg95
S'get'
p220
sa(dp221
g72
S'/usr/lib/python2.7/dist-packages/requests/api.py'
p222
sg74
(dp223
S'url'
p224
S"'https://api.soundcloud.com/oembed.json?url=https...-singh&client_id=f4e257503f0990527a6e17e14158076e'"
p225
sS'session'
p226
S'<requests.sessions.Session object>'
p227
sS'method'
p228
S"'get'"
p229
sS'session.request'
p230
S'<bound method Session.request of <requests.sessions.Session object>>'
p231
sS'kwargs'
p232
S"{'allow_redirects': True, 'headers': {'User-Agent': 'SoundCloud Python API Wrapper 0.4.1'}}"
p233
ssg80
I44
sg81
(dp234
I39
S"      >>> req = requests.request('GET', 'http://httpbin.org/get')"
p235
sI40
S'      <Response [200]>'
p236
sI41
S'    """'
p237
sI42
S''
sI43
S'    session = sessions.Session()'
p238
sI44
S'    return session.request(method=method, url=url, **kwargs)'
p239
sI45
S''
sI46
S''
sI47
S'def get(url, **kwargs):'
p240
sI48
S'    """Sends a GET request. Returns :class:`Response` object.'
p241
ssg93
S"(method='get', url='https://api.soundcloud.com/oembed.json?url=https...-singh&client_id=f4e257503f0990527a6e17e14158076e', **kwargs={'allow_redirects': True, 'headers': {'User-Agent': 'SoundCloud Python API Wrapper 0.4.1'}})"
p242
sg95
g66
sa(dp243
g72
S'/usr/lib/python2.7/dist-packages/requests/sessions.py'
p244
sg74
(dp245
S'resp'
p246
g115
sS'send_kwargs'
p247
S"{'allow_redirects': True, 'cert': None, 'proxies': OrderedDict(), 'stream': False, 'timeout': None, 'verify': True}"
p248
sS'prep'
p249
S'<PreparedRequest [GET]>'
p250
sS'self'
p251
S'<requests.sessions.Session object>'
p252
sS'self.send'
p253
S'<bound method Session.send of <requests.sessions.Session object>>'
p254
ssg80
I455
sg81
(dp255
I450
S"            'verify': verify,"
p256
sI451
S"            'cert': cert,"
p257
sI452
S"            'proxies': proxies,"
p258
sI453
S"            'allow_redirects': allow_redirects,"
p259
sI454
S'        }'
p260
sI455
S'        resp = self.send(prep, **send_kwargs)'
p261
sI456
S''
sI457
S'        return resp'
p262
sI458
S''
sI459
S'    def get(self, url, **kwargs):'
p263
ssg93
S"(self=<requests.sessions.Session object>, method='get', url='https://api.soundcloud.com/oembed.json?url=https...-singh&client_id=f4e257503f0990527a6e17e14158076e', params=None, data=None, headers={'User-Agent': 'SoundCloud Python API Wrapper 0.4.1'}, cookies=None, files=None, auth=None, timeout=None, allow_redirects=True, proxies=OrderedDict(), hooks=None, stream=False, verify=True, cert=None)"
p264
sg95
g66
sa(dp265
g72
S'/usr/lib/python2.7/dist-packages/requests/sessions.py'
p266
sg74
(dp267
S'request'
p268
S'<PreparedRequest [GET]>'
p269
sS'adapter'
p270
S'<requests.adapters.HTTPAdapter object>'
p271
sS'r'
g115
sS'adapter.send'
p272
S'<bound method HTTPAdapter.send of <requests.adapters.HTTPAdapter object>>'
p273
sS'kwargs'
p274
S"{'cert': None, 'proxies': OrderedDict(), 'stream': False, 'timeout': None, 'verify': True}"
p275
ssg80
I558
sg81
(dp276
I553
S'        adapter = self.get_adapter(url=request.url)'
p277
sI554
S''
sI555
S'        # Start time (approximately) of the request'
p278
sI556
S'        start = datetime.utcnow()'
p279
sI557
S'        # Send the request'
p280
sI558
S'        r = adapter.send(request, **kwargs)'
p281
sI559
S'        # Total elapsed time of the request (approximately)'
p282
sI560
S'        r.elapsed = datetime.utcnow() - start'
p283
sI561
S''
sI562
S'        # Response manipulation hooks'
p284
ssg93
S"(self=<requests.sessions.Session object>, request=<PreparedRequest [GET]>, **kwargs={'cert': None, 'proxies': OrderedDict(), 'stream': False, 'timeout': None, 'verify': True})"
p285
sg95
S'send'
p286
sa(dp287
g72
S'/usr/lib/python2.7/dist-packages/requests/adapters.py'
p288
sg74
(dp289
S'global ConnectionError'
p290
S"<class 'requests.exceptions.ConnectionError'>"
p291
sS'e'
S'MaxRetryError("HTTPSConnectionPool(host=\'api.sou...error\'>: [Errno -2] Name or service not known)",)'
p292
ssg80
I378
sg81
(dp293
I373
S''
sI374
S'        except socket.error as sockerr:'
p294
sI375
S'            raise ConnectionError(sockerr)'
p295
sI376
S''
sI377
S'        except MaxRetryError as e:'
p296
sI378
S'            raise ConnectionError(e)'
p297
sI379
S''
sI380
S'        except _ProxyError as e:'
p298
sI381
S'            raise ProxyError(e)'
p299
sI382
S''
ssg93
S'(self=<requests.adapters.HTTPAdapter object>, request=<PreparedRequest [GET]>, stream=False, timeout=<urllib3.util.Timeout object>, verify=True, cert=None, proxies=OrderedDict())'
p300
sg95
g286
sasS'pyver'
p301
S'Python 2.7.6: /usr/bin/python (prefix: /usr)'
p302
sS'session'
p303
g67
(S's\x1a\x00\x00\x00<div><table></table></div>'
tRp304
sS'etype'
p305
S"<class 'requests.exceptions.ConnectionError'>"
p306
sS'date'
p307
S'Fri Nov 20 00:17:43 2015'
p308
sS'response'
p309
g67
(S's\xb2?\x00\x00<div><table><tr><td style="font-weight:bold;vertical-align:top;">body</td><td style="vertical-align:top;">:</td><td><div>&lt;cStringIO.StringO object at 0x7f83c3123880&gt;</div></td></tr><tr><td style="font-weight:bold;vertical-align:top;">cookies</td><td style="vertical-align:top;">:</td><td><div><table><tr><td style="font-weight:bold;vertical-align:top;">session_id_final</td><td style="vertical-align:top;">:</td><td><div>127.0.0.1-e997da31-b43f-4718-bf2f-8c6bec3979c0<table><tr><td style="font-weight:bold;vertical-align:top;">comment</td><td style="vertical-align:top;">:</td><td><div></div></td></tr><tr><td style="font-weight:bold;vertical-align:top;">domain</td><td style="vertical-align:top;">:</td><td><div></div></td></tr><tr><td style="font-weight:bold;vertical-align:top;">expires</td><td style="vertical-align:top;">:</td><td><div></div></td></tr><tr><td style="font-weight:bold;vertical-align:top;">httponly</td><td style="vertical-align:top;">:</td><td><div></div></td></tr><tr><td style="font-weight:bold;vertical-align:top;">max-age</td><td style="vertical-align:top;">:</td><td><div></div></td></tr><tr><td style="font-weight:bold;vertical-align:top;">path</td><td style="vertical-align:top;">:</td><td><div>/</div></td></tr><tr><td style="font-weight:bold;vertical-align:top;">secure</td><td style="vertical-align:top;">:</td><td><div></div></td></tr><tr><td style="font-weight:bold;vertical-align:top;">version</td><td style="vertical-align:top;">:</td><td><div></div></td></tr></table></div></td></tr></table></div></td></tr><tr><td style="font-weight:bold;vertical-align:top;">delimiters</td><td style="vertical-align:top;">:</td><td><div><table><tr><td><div>{{</div></td></tr><tr><td><div>}}</div></td></tr></table></div></td></tr><tr><td style="font-weight:bold;vertical-align:top;">files</td><td style="vertical-align:top;">:</td><td><div><table></table></div></td></tr><tr><td style="font-weight:bold;vertical-align:top;">flash</td><td style="vertical-align:top;">:</td><td><div></div></td></tr><tr><td style="font-weight:bold;vertical-align:top;">form_label_separator</td><td style="vertical-align:top;">:</td><td><div></div></td></tr><tr><td style="font-weight:bold;vertical-align:top;">formstyle</td><td style="vertical-align:top;">:</td><td><div>bootstrap3_inline</div></td></tr><tr><td style="font-weight:bold;vertical-align:top;">generic_patterns</td><td style="vertical-align:top;">:</td><td><div><table><tr><td><div>*</div></td></tr></table></div></td></tr><tr><td style="font-weight:bold;vertical-align:top;">google_analytics_id</td><td style="vertical-align:top;">:</td><td><div>None</div></td></tr><tr><td style="font-weight:bold;vertical-align:top;">headers</td><td style="vertical-align:top;">:</td><td><div><table><tr><td style="font-weight:bold;vertical-align:top;">X-Powered-By</td><td style="vertical-align:top;">:</td><td><div>web2py</div></td></tr></table></div></td></tr><tr><td style="font-weight:bold;vertical-align:top;">logo</td><td style="vertical-align:top;">:</td><td><div><a class="navbar-brand" href="http://www.web2py.com/" id="web2py-logo"><b>web<span>2</span>py</b>&trade;&nbsp;</a></div></td></tr><tr><td style="font-weight:bold;vertical-align:top;">menu</td><td style="vertical-align:top;">:</td><td><div><table><tr><td><div><table><tr><td><div>Home</div></td></tr><tr><td><div>False</div></td></tr><tr><td><div>/final/default/index</div></td></tr><tr><td><div><table></table></div></td></tr></table></div></td></tr><tr><td><div><table><tr><td><div>My Sites</div></td></tr><tr><td><div>False</div></td></tr><tr><td><div>/admin/default/site</div></td></tr></table></div></td></tr><tr><td><div><table><tr><td><div>This App</div></td></tr><tr><td><div>False</div></td></tr><tr><td><div>#</div></td></tr><tr><td><div><table><tr><td><div><table><tr><td><div>Design</div></td></tr><tr><td><div>False</div></td></tr><tr><td><div>/admin/default/design/final</div></td></tr></table></div></td></tr><tr><td><div><li class="divider"></li></div></td></tr><tr><td><div><table><tr><td><div>Controller</div></td></tr><tr><td><div>False</div></td></tr><tr><td><div>/admin/default/edit/final/controllers/default.py</div></td></tr></table></div></td></tr><tr><td><div><table><tr><td><div>View</div></td></tr><tr><td><div>False</div></td></tr><tr><td><div>/admin/default/edit/final/views/default/search_results.html</div></td></tr></table></div></td></tr><tr><td><div><table><tr><td><div>DB Model</div></td></tr><tr><td><div>False</div></td></tr><tr><td><div>/admin/default/edit/final/models/db.py</div></td></tr></table></div></td></tr><tr><td><div><table><tr><td><div>Menu Model</div></td></tr><tr><td><div>False</div></td></tr><tr><td><div>/admin/default/edit/final/models/menu.py</div></td></tr></table></div></td></tr><tr><td><div><table><tr><td><div>Config.ini</div></td></tr><tr><td><div>False</div></td></tr><tr><td><div>/admin/default/edit/final/private/appconfig.ini</div></td></tr></table></div></td></tr><tr><td><div><table><tr><td><div>Layout</div></td></tr><tr><td><div>False</div></td></tr><tr><td><div>/admin/default/edit/final/views/layout.html</div></td></tr></table></div></td></tr><tr><td><div><table><tr><td><div>Stylesheet</div></td></tr><tr><td><div>False</div></td></tr><tr><td><div>/admin/default/edit/final/static/css/web2py-bootstrap3.css</div></td></tr></table></div></td></tr><tr><td><div><table><tr><td><div>Database</div></td></tr><tr><td><div>False</div></td></tr><tr><td><div>/final/appadmin/index</div></td></tr></table></div></td></tr><tr><td><div><table><tr><td><div>Errors</div></td></tr><tr><td><div>False</div></td></tr><tr><td><div>/admin/default/errors/final</div></td></tr></table></div></td></tr><tr><td><div><table><tr><td><div>About</div></td></tr><tr><td><div>False</div></td></tr><tr><td><div>/admin/default/about/final</div></td></tr></table></div></td></tr></table></div></td></tr></table></div></td></tr><tr><td><div><table><tr><td><div>web2py.com</div></td></tr><tr><td><div>False</div></td></tr><tr><td><div>#</div></td></tr><tr><td><div><table><tr><td><div><table><tr><td><div>Download</div></td></tr><tr><td><div>False</div></td></tr><tr><td><div>http://www.web2py.com/examples/default/download</div></td></tr></table></div></td></tr><tr><td><div><table><tr><td><div>Support</div></td></tr><tr><td><div>False</div></td></tr><tr><td><div>http://www.web2py.com/examples/default/support</div></td></tr></table></div></td></tr><tr><td><div><table><tr><td><div>Demo</div></td></tr><tr><td><div>False</div></td></tr><tr><td><div>http://web2py.com/demo_admin</div></td></tr></table></div></td></tr><tr><td><div><table><tr><td><div>Quick Examples</div></td></tr><tr><td><div>False</div></td></tr><tr><td><div>http://web2py.com/examples/default/examples</div></td></tr></table></div></td></tr><tr><td><div><table><tr><td><div>FAQ</div></td></tr><tr><td><div>False</div></td></tr><tr><td><div>http://web2py.com/AlterEgo</div></td></tr></table></div></td></tr><tr><td><div><table><tr><td><div>Videos</div></td></tr><tr><td><div>False</div></td></tr><tr><td><div>http://www.web2py.com/examples/default/videos/</div></td></tr></table></div></td></tr><tr><td><div><table><tr><td><div>Free Applications</div></td></tr><tr><td><div>False</div></td></tr><tr><td><div>http://web2py.com/appliances</div></td></tr></table></div></td></tr><tr><td><div><table><tr><td><div>Plugins</div></td></tr><tr><td><div>False</div></td></tr><tr><td><div>http://web2py.com/plugins</div></td></tr></table></div></td></tr><tr><td><div><table><tr><td><div>Recipes</div></td></tr><tr><td><div>False</div></td></tr><tr><td><div>http://web2pyslices.com/</div></td></tr></table></div></td></tr></table></div></td></tr></table></div></td></tr><tr><td><div><table><tr><td><div>Documentation</div></td></tr><tr><td><div>False</div></td></tr><tr><td><div>#</div></td></tr><tr><td><div><table><tr><td><div><table><tr><td><div>Online book</div></td></tr><tr><td><div>False</div></td></tr><tr><td><div>http://www.web2py.com/book</div></td></tr></table></div></td></tr><tr><td><div><li class="divider"></li></div></td></tr><tr><td><div><table><tr><td><div>Preface</div></td></tr><tr><td><div>False</div></td></tr><tr><td><div>http://www.web2py.com/book/default/chapter/00</div></td></tr></table></div></td></tr><tr><td><div><table><tr><td><div>Introduction</div></td></tr><tr><td><div>False</div></td></tr><tr><td><div>http://www.web2py.com/book/default/chapter/01</div></td></tr></table></div></td></tr><tr><td><div><table><tr><td><div>Python</div></td></tr><tr><td><div>False</div></td></tr><tr><td><div>http://www.web2py.com/book/default/chapter/02</div></td></tr></table></div></td></tr><tr><td><div><table><tr><td><div>Overview</div></td></tr><tr><td><div>False</div></td></tr><tr><td><div>http://www.web2py.com/book/default/chapter/03</div></td></tr></table></div></td></tr><tr><td><div><table><tr><td><div>The Core</div></td></tr><tr><td><div>False</div></td></tr><tr><td><div>http://www.web2py.com/book/default/chapter/04</div></td></tr></table></div></td></tr><tr><td><div><table><tr><td><div>The Views</div></td></tr><tr><td><div>False</div></td></tr><tr><td><div>http://www.web2py.com/book/default/chapter/05</div></td></tr></table></div></td></tr><tr><td><div><table><tr><td><div>Database</div></td></tr><tr><td><div>False</div></td></tr><tr><td><div>http://www.web2py.com/book/default/chapter/06</div></td></tr></table></div></td></tr><tr><td><div><table><tr><td><div>Forms and Validators</div></td></tr><tr><td><div>False</div></td></tr><tr><td><div>http://www.web2py.com/book/default/chapter/07</div></td></tr></table></div></td></tr><tr><td><div><table><tr><td><div>Email and SMS</div></td></tr><tr><td><div>False</div></td></tr><tr><td><div>http://www.web2py.com/book/default/chapter/08</div></td></tr></table></div></td></tr><tr><td><div><table><tr><td><div>Access Control</div></td></tr><tr><td><div>False</div></td></tr><tr><td><div>http://www.web2py.com/book/default/chapter/09</div></td></tr></table></div></td></tr><tr><td><div><table><tr><td><div>Services</div></td></tr><tr><td><div>False</div></td></tr><tr><td><div>http://www.web2py.com/book/default/chapter/10</div></td></tr></table></div></td></tr><tr><td><div><table><tr><td><div>Ajax Recipes</div></td></tr><tr><td><div>False</div></td></tr><tr><td><div>http://www.web2py.com/book/default/chapter/11</div></td></tr></table></div></td></tr><tr><td><div><table><tr><td><div>Components and Plugins</div></td></tr><tr><td><div>False</div></td></tr><tr><td><div>http://www.web2py.com/book/default/chapter/12</div></td></tr></table></div></td></tr><tr><td><div><table><tr><td><div>Deployment Recipes</div></td></tr><tr><td><div>False</div></td></tr><tr><td><div>http://www.web2py.com/book/default/chapter/13</div></td></tr></table></div></td></tr><tr><td><div><table><tr><td><div>Other Recipes</div></td></tr><tr><td><div>False</div></td></tr><tr><td><div>http://www.web2py.com/book/default/chapter/14</div></td></tr></table></div></td></tr><tr><td><div><table><tr><td><div>Helping web2py</div></td></tr><tr><td><div>False</div></td></tr><tr><td><div>http://www.web2py.com/book/default/chapter/15</div></td></tr></table></div></td></tr><tr><td><div><table><tr><td><div>Buy web2py\'s book</div></td></tr><tr><td><div>False</div></td></tr><tr><td><div>http://stores.lulu.com/web2py</div></td></tr></table></div></td></tr></table></div></td></tr></table></div></td></tr><tr><td><div><table><tr><td><div>Community</div></td></tr><tr><td><div>False</div></td></tr><tr><td><div>None</div></td></tr><tr><td><div><table><tr><td><div><table><tr><td><div>Groups</div></td></tr><tr><td><div>False</div></td></tr><tr><td><div>http://www.web2py.com/examples/default/usergroups</div></td></tr></table></div></td></tr><tr><td><div><table><tr><td><div>Twitter</div></td></tr><tr><td><div>False</div></td></tr><tr><td><div>http://twitter.com/web2py</div></td></tr></table></div></td></tr><tr><td><div><table><tr><td><div>Live Chat</div></td></tr><tr><td><div>False</div></td></tr><tr><td><div>http://webchat.freenode.net/?channels=web2py</div></td></tr></table></div></td></tr></table></div></td></tr></table></div></td></tr></table></div></td></tr><tr><td style="font-weight:bold;vertical-align:top;">meta</td><td style="vertical-align:top;">:</td><td><div><table><tr><td style="font-weight:bold;vertical-align:top;">author</td><td style="vertical-align:top;">:</td><td><div>Your Name &lt;you@example.com&gt;</div></td></tr><tr><td style="font-weight:bold;vertical-align:top;">description</td><td style="vertical-align:top;">:</td><td><div>a cool new app</div></td></tr><tr><td style="font-weight:bold;vertical-align:top;">generator</td><td style="vertical-align:top;">:</td><td><div>Web2py Web Framework</div></td></tr><tr><td style="font-weight:bold;vertical-align:top;">keywords</td><td style="vertical-align:top;">:</td><td><div>web2py, python, framework</div></td></tr></table></div></td></tr><tr><td style="font-weight:bold;vertical-align:top;">models_to_run</td><td style="vertical-align:top;">:</td><td><div><table><tr><td><div>^\\w+\\.py$</div></td></tr><tr><td><div>^default/\\w+\\.py$</div></td></tr><tr><td><div>^default/search_results/\\w+\\.py$</div></td></tr></table></div></td></tr><tr><td style="font-weight:bold;vertical-align:top;">postprocessing</td><td style="vertical-align:top;">:</td><td><div><table></table></div></td></tr><tr><td style="font-weight:bold;vertical-align:top;">session_client</td><td style="vertical-align:top;">:</td><td><div>127.0.0.1</div></td></tr><tr><td style="font-weight:bold;vertical-align:top;">session_cookie_compression_level</td><td style="vertical-align:top;">:</td><td><div>None</div></td></tr><tr><td style="font-weight:bold;vertical-align:top;">session_cookie_expires</td><td style="vertical-align:top;">:</td><td><div>None</div></td></tr><tr><td style="font-weight:bold;vertical-align:top;">session_cookie_key</td><td style="vertical-align:top;">:</td><td><div>None</div></td></tr><tr><td style="font-weight:bold;vertical-align:top;">session_data_name</td><td style="vertical-align:top;">:</td><td><div>session_data_final</div></td></tr><tr><td style="font-weight:bold;vertical-align:top;">session_file</td><td style="vertical-align:top;">:</td><td><div>&lt;open file &#x27;/home/abhi/Downloads/CourseMaterial/web2Py/web2py/applications/final/sessions/05d/1c5/127.0.0.1-e997da31-b43f-4718-bf2f-8c6bec3979c0&#x27;, mode &#x27;rb+&#x27; at 0x7f83c32ec390&gt;</div></td></tr><tr><td style="font-weight:bold;vertical-align:top;">session_filename</td><td style="vertical-align:top;">:</td><td><div>/home/abhi/Downloads/CourseMaterial/web2Py/web2py/applications/final/sessions/127.0.0.1-e997da31-b43f-4718-bf2f-8c6bec3979c0</div></td></tr><tr><td style="font-weight:bold;vertical-align:top;">session_hash</td><td style="vertical-align:top;">:</td><td><div>19fd9e795afa482484489f49c5d10916</div></td></tr><tr><td style="font-weight:bold;vertical-align:top;">session_id</td><td style="vertical-align:top;">:</td><td><div>127.0.0.1-e997da31-b43f-4718-bf2f-8c6bec3979c0</div></td></tr><tr><td style="font-weight:bold;vertical-align:top;">session_id_name</td><td style="vertical-align:top;">:</td><td><div>session_id_final</div></td></tr><tr><td style="font-weight:bold;vertical-align:top;">session_locked</td><td style="vertical-align:top;">:</td><td><div>True</div></td></tr><tr><td style="font-weight:bold;vertical-align:top;">session_masterapp</td><td style="vertical-align:top;">:</td><td><div>final</div></td></tr><tr><td style="font-weight:bold;vertical-align:top;">session_new</td><td style="vertical-align:top;">:</td><td><div>False</div></td></tr><tr><td style="font-weight:bold;vertical-align:top;">session_storage_type</td><td style="vertical-align:top;">:</td><td><div>file</div></td></tr><tr><td style="font-weight:bold;vertical-align:top;">status</td><td style="vertical-align:top;">:</td><td><div>200</div></td></tr><tr><td style="font-weight:bold;vertical-align:top;">subtitle</td><td style="vertical-align:top;">:</td><td><div></div></td></tr><tr><td style="font-weight:bold;vertical-align:top;">title</td><td style="vertical-align:top;">:</td><td><div>Final</div></td></tr><tr><td style="font-weight:bold;vertical-align:top;">view</td><td style="vertical-align:top;">:</td><td><div>default/search_results.html</div></td></tr></table></div>'
tRp310
sS'locals'
p311
(dp312
S'proxies'
p313
S'OrderedDict()'
p314
sS'e'
S'MaxRetryError("HTTPSConnectionPool(host=\'api.sou...error\'>: [Errno -2] Name or service not known)",)'
p315
sS'stream'
p316
S'False'
p317
sS'url'
p318
S"'/oembed.json?url=https%3A%2F%2Fsoundcloud.com%2F...-singh&client_id=f4e257503f0990527a6e17e14158076e'"
p319
sS'verify'
p320
S'True'
p321
sS'self'
p322
S'<requests.adapters.HTTPAdapter object>'
p323
sg66
S'<PreparedRequest [GET]>'
p324
sS'cert'
p325
S'None'
p326
sS'timeout'
p327
S'<urllib3.util.Timeout object>'
p328
sS'chunked'
p329
g317
sS'conn'
p330
S'<urllib3.connectionpool.HTTPSConnectionPool object>'
p331
sssS'traceback'
p332
S'Traceback (most recent call last):\n  File "/home/abhi/Downloads/CourseMaterial/web2Py/web2py/gluon/restricted.py", line 227, in restricted\n    exec ccode in environment\n  File "/home/abhi/Downloads/CourseMaterial/web2Py/web2py/applications/final/controllers/default.py", line 416, in <module>\n  File "/home/abhi/Downloads/CourseMaterial/web2Py/web2py/gluon/globals.py", line 412, in <lambda>\n    self._caller = lambda f: f()\n  File "/home/abhi/Downloads/CourseMaterial/web2Py/web2py/applications/final/controllers/default.py", line 116, in search_results\n    embed_info = client.get(\'/oembed\', url=url)\n  File "/usr/local/lib/python2.7/dist-packages/soundcloud/client.py", line 130, in _request\n    return wrapped_resource(make_request(method, url, kwargs))\n  File "/usr/local/lib/python2.7/dist-packages/soundcloud/request.py", line 122, in make_request\n    result = request_func(\'%s?%s\' % (url, qs), **kwargs)\n  File "/usr/lib/python2.7/dist-packages/requests/api.py", line 55, in get\n    return request(\'get\', url, **kwargs)\n  File "/usr/lib/python2.7/dist-packages/requests/api.py", line 44, in request\n    return session.request(method=method, url=url, **kwargs)\n  File "/usr/lib/python2.7/dist-packages/requests/sessions.py", line 455, in request\n    resp = self.send(prep, **send_kwargs)\n  File "/usr/lib/python2.7/dist-packages/requests/sessions.py", line 558, in send\n    r = adapter.send(request, **kwargs)\n  File "/usr/lib/python2.7/dist-packages/requests/adapters.py", line 378, in send\n    raise ConnectionError(e)\nConnectionError: HTTPSConnectionPool(host=\'api.soundcloud.com\', port=443): Max retries exceeded with url: /oembed.json?url=https%3A%2F%2Fsoundcloud.com%2Farij_jamshed%2Fsun-le-zara-full-audio-song-singham-return2014-arjit-singh&client_id=f4e257503f0990527a6e17e14158076e (Caused by <class \'socket.gaierror\'>: [Errno -2] Name or service not known)\n'
p333
s.