(dp1
S'output'
p2
S"<class 'requests.exceptions.ConnectionError'> HTTPSConnectionPool(host='api.soundcloud.com', port=443): Max retries exceeded with url: /oembed.json?url=https%3A%2F%2Fsoundcloud.com%2Fhadeel_muruj%2Fsaathi-tera-ban-jaoo-kyu-hain&client_id=f4e257503f0990527a6e17e14158076e (Caused by <class 'socket.gaierror'>: [Errno -2] Name or service not known)"
p3
sS'layer'
p4
S'/home/abhi/Downloads/CourseMaterial/web2Py/web2py/applications/final/views/default/see.html'
p5
sS'code'
p6
S'response.write(\'<!DOCTYPE html>\\n<html lang="en">\\n  <head>\\n    <meta charset="utf-8">\\n    <meta name="viewport" content="width=device-width, initial-scale=1.0">\\n    <meta name="description" content="Creative - Bootstrap 3 Responsive Admin Template">\\n    <meta name="author" content="GeeksLabs">\\n    <meta name="keyword" content="Creative, Dashboard, Admin, Template, Theme, Bootstrap, Responsive, Retina, Minimal">\\n    <link rel="shortcut icon" href="img/favicon.png">\\n\\n    <title>Total Entertainment</title>\\n    <link href="\', escape=False)\nresponse.write(URL(\'static\',\'css/bootstrap.min.css\'))\nresponse.write(\'" rel="stylesheet">\\n    <!-- bootstrap theme -->\\n    <link href="\', escape=False)\nresponse.write(URL(\'static\',\'css/bootstrap-theme.css\'))\nresponse.write(\'" rel="stylesheet">\\n    <!--external css-->\\n    <!-- font icon -->\\n    <link href="\', escape=False)\nresponse.write(URL(\'static\',\'css/elegant-icons-style.css\'))\nresponse.write(\'" rel="stylesheet" />\\n    <link href="\', escape=False)\nresponse.write(URL(\'static\',\'css/font-awesome.min.css\'))\nresponse.write(\'" rel="stylesheet" />\\n    <!-- owl carousel -->\\n   <!-- <link rel="stylesheet" href="\', escape=False)\nresponse.write(URL(\'static\',\'css/owl.carousel.css\'))\nresponse.write(\'" type="text/css">-->\\n  <link href="\', escape=False)\nresponse.write(URL(\'static\',\'css/jquery-jvectormap-1.2.2.css\'))\nresponse.write(\'" rel="stylesheet">\\n    <!-- Custom styles -->\\n  <link rel="stylesheet" href="\', escape=False)\nresponse.write(URL(\'static\',\'css/fullcalendar.css\'))\nresponse.write(\'">\\n  <link href="\', escape=False)\nresponse.write(URL(\'static\',\'css/widgets.css\'))\nresponse.write(\'" rel="stylesheet">\\n    <link href="\', escape=False)\nresponse.write(URL(\'static\',\'css/style.css\'))\nresponse.write(\'" rel="stylesheet">\\n    <link href="\', escape=False)\nresponse.write(URL(\'static\',\'css/style-responsive.css\'))\nresponse.write(\'" rel="stylesheet" />\\n  <link href="\', escape=False)\nresponse.write(URL(\'static\',\'css/xcharts.min.css\'))\nresponse.write(\'" rel=" stylesheet">  \\n  <link href="\', escape=False)\nresponse.write(URL(\'static\',\'css/jquery-ui-1.10.4.min.css\'))\nresponse.write(\'" rel="stylesheet">\\n  <link rel="stylesheet" type="text/css" href="\', escape=False)\nresponse.write(URL(\'static\',\'css/bootstrap-select.css\'))\nresponse.write(\'">\\n    <script type="text/javascript" src="\', escape=False)\nresponse.write(URL(\'static\',\'js/jquery-1.9.1.min.js\'))\nresponse.write(\'"></script>\\n    <script type="text/javascript" src="\', escape=False)\nresponse.write(URL(\'static\',\'js/jssor.slider.mini.js\'))\nresponse.write(\'"></script>\\n    <script type="text/javascript" src="\', escape=False)\nresponse.write(URL(\'static\',\'js/web2py.js\'))\nresponse.write(\'"></script>\\n        <script type="text/javascript" src="\', escape=False)\nresponse.write(URL(\'static\',\'js/bootstrap-select.js\'))\nresponse.write(\'"></script>\\n \\n\\n\\n<head>\\n  <style type="text/css">\\n    .rating {\\n    float:left;\\n}\\n\\n/* :not(:checked) is a filter, so that browsers that don\\xe2\\x80\\x99t support :checked don\\xe2\\x80\\x99t \\n   follow these rules. Every browser that supports :checked also supports :not(), so\\n   it doesn\\xe2\\x80\\x99t make the test unnecessarily selective */\\n.rating:not(:checked) > input {\\n    position:absolute;\\n    top:-9999px;\\n    clip:rect(0,0,0,0);\\n}\\n\\n.rating:not(:checked) > label {\\n    float:right;\\n    width:1.172em;\\n    padding:0 .1em;\\n    overflow:hidden;\\n    white-space:nowrap;\\n    cursor:pointer;\\n    font-size:200%;\\n    line-height:1.2;\\n    color:#ddd;\\n    text-shadow:1px 1px #bbb, 2px 2px #666, .1em .1em .2em rgba(0,0,0,.5);\\n}\\n\\n.rating:not(:checked) > label:before {\\n    content: "\\\\2605";\\n}\\n\\n.rating > input:checked ~ label {\\n    color: #f70;\\n    text-shadow:1px 1px #c60, 2px 2px #940, .1em .1em .2em rgba(0,0,0,.5);\\n}\\n\\n.rating:not(:checked) > label:hover,\\n.rating:not(:checked) > label:hover ~ label {\\n    color: gold;\\n    text-shadow:1px 1px goldenrod, 2px 2px #B57340, .1em .1em .2em rgba(0,0,0,.5);\\n}\\n\\n.rating > input:checked + label:hover,\\n.rating > input:checked + label:hover ~ label,\\n.rating > input:checked ~ label:hover,\\n.rating > input:checked ~ label:hover ~ label,\\n.rating > label:hover ~ input:checked ~ label {\\n    color: #ea0;\\n    text-shadow:1px 1px goldenrod, 2px 2px #B57340, .1em .1em .2em rgba(0,0,0,.5);\\n}\\n\\n.rating > label:active {\\n    position:relative;\\n    top:2px;\\n    left:2px;\\n}\\n  </style>\\n\\n\\n\\n\\n  </head>\\n\\n  <body>\\n  <!-- container section start -->\\n\\n\\n    <script>\\n        jQuery(document).ready(function ($) {\\n            \\n            var jssor_1_options = {\\n              $AutoPlay: true,\\n              $AutoPlaySteps: 3,\\n              $SlideDuration: 200,\\n              $SlideWidth: 132,\\n              $SlideSpacing: 2,\\n              $Cols: 6,\\n              $ArrowNavigatorOptions: {\\n                $Class: $JssorArrowNavigator$,\\n                $Steps: 4\\n              },\\n              $BulletNavigatorOptions: {\\n                $Class: $JssorBulletNavigator$,\\n                $SpacingX: 1,\\n                $SpacingY: 1\\n              }\\n            };\\n            \\n            var jssor_1_slider = new $JssorSlider$("jssor_1", jssor_1_options);\\n            \\n            //responsive code begin\\n            //you can remove responsive code if you don\\\'t want the slider scales while window resizes\\n            function ScaleSlider() {\\n                var refSize = jssor_1_slider.$Elmt.parentNode.clientWidth;\\n                if (refSize) {\\n                    refSize = Math.min(refSize, 1300);\\n                    jssor_1_slider.$ScaleWidth(refSize);\\n                }\\n                else {\\n                    window.setTimeout(ScaleSlider, 30);\\n                }\\n            }\\n            ScaleSlider();\\n            $(window).bind("load", ScaleSlider);\\n            $(window).bind("resize", ScaleSlider);\\n            $(window).bind("orientationchange", ScaleSlider);\\n            //responsive code end\\n        });\\n    </script>\\n\\n    <style>\\n        \\n        /* jssor slider bullet navigator skin 03 css */\\n        /*\\n        .jssorb03 div           (normal)\\n        .jssorb03 div:hover     (normal mouseover)\\n        .jssorb03 .av           (active)\\n        .jssorb03 .av:hover     (active mouseover)\\n        .jssorb03 .dn           (mousedown)\\n        */\\n        .jssorb03 {\\n            position: absolute;\\n        }\\n        .jssorb03 div, .jssorb03 div:hover, .jssorb03 .av {\\n            position: absolute;\\n            /* size of bullet elment */\\n            width: 21px;\\n            height: 21px;\\n            text-align: center;\\n            line-height: 21px;\\n            color: white;\\n            font-size: 12px;\\n            background: url(\', escape=False)\nresponse.write(URL(\'static\',\'img/b03.png\'))\nresponse.write(\') no-repeat;\\n            overflow: hidden;\\n            cursor: pointer;\\n        }\\n        .jssorb03 div { background-position: -5px -4px; }\\n        .jssorb03 div:hover, .jssorb03 .av:hover { background-position: -35px -4px; }\\n        .jssorb03 .av { background-position: -65px -4px; }\\n        .jssorb03 .dn, .jssorb03 .dn:hover { background-position: -95px -4px; }\\n\\n        /* jssor slider arrow navigator skin 03 css */\\n        /*\\n        .jssora03l                  (normal)\\n        .jssora03r                  (normal)\\n        .jssora03l:hover            (normal mouseover)\\n        .jssora03r:hover            (normal mouseover)\\n        .jssora03l.jssora03ldn      (mousedown)\\n        .jssora03r.jssora03rdn      (mousedown)\\n        */\\n        .jssora03l, .jssora03r {\\n            display: block;\\n            position: absolute;\\n            /* size of arrow element */\\n            width: 55px;\\n            height: 55px;\\n            cursor: pointer;\\n            background: url(\', escape=False)\nresponse.write(URL(\'static\',\'img/a03.png\'))\nresponse.write(\') no-repeat;\\n            overflow: hidden;\\n        }\\n        .jssora03l { background-position: -3px -33px; }\\n        .jssora03r { background-position: -63px -33px; }\\n        .jssora03l:hover { background-position: -123px -33px; }\\n        .jssora03r:hover { background-position: -183px -33px; }\\n        .jssora03l.jssora03ldn { background-position: -243px -33px; }\\n        .jssora03r.jssora03rdn { background-position: -303px -33px; }\\n    </style>\\n\\n\\n\\n\\n\\n\\n\\n\\n\\n\\n\\n\\n\\n  <section id="container" class="">\\n     \\n      \\n      <header class="header my-green-bg">\\n            <div class="toggle-nav">\\n                <div class="icon-reorder tooltips" data-original-title="Toggle Navigation" data-placement="bottom"></div>\\n            </div>\\n\\n            <!--logo start-->\\n            <a href="\', escape=False)\nresponse.write(URL(\'index.html\'))\nresponse.write(\'" class="logo"><strong>total&nbsp;&nbsp;&nbsp;<span class="lite">entertainment</span></strong></a>\\n            <!--logo end-->\\n\\n            <div class="nav search-row" id="top_menu">\\n                <!--  search form start -->\\n                <ul class="nav top-menu">                    \\n                    <li>\\n                        <form class="navbar-form" action="#" enctype="multipart/form-data" method="post">\\n                            <input class="form-control" placeholder="Search for your favourite Songs and Videos" type="text" name="query">\\n                            \\n                        <select name="option" class = "selectpicker" data-style = "btn-primary" value="5">\\n                            <option value="V">Video</option>\\n                            <option value="A">Audio</option>\\n                        </select>\\n                            <div style="display:none;">\\n                              <input name="_formkey" type="hidden" value="\', escape=False)\nresponse.write(form.formkey)\nresponse.write(\'" />\\n                              <input name="_formname" type="hidden" value="no_table/create" />\\n                            </div>\\n                        </form>\\n                    </li>                    \\n                </ul>\\n                <!--  search form end -->                \\n            </div>\\n            <div class="top-nav notification-row">                \\n                <!-- notificatoin dropdown start-->\\n                <ul class="nav pull-right top-menu">\\n                    \\n                    <!-- user login dropdown start-->\\n                    \\n                    <li class="dropdown">\\n                    \', escape=False)\nif auth.is_logged_in():\n    response.write(\'\\n                        <a data-toggle="dropdown" class="dropdown-toggle" href="#">\\n                            <span class="profile-ava">\\n                                <img alt="" src="\', escape=False)\n    response.write(URL(\'static\',\'images/avatar-mini2.jpg\'))\n    response.write(\'">\\n                            </span>\\n                            <span class="username">Yo \', escape=False)\n    response.write(auth.user.first_name)\n    response.write(\'&nbsp;<strong>!</strong></span>\\n                            <b class="caret"></b>\\n                        </a>\\n\\n                        <ul class="dropdown-menu extended logout">\\n                            <div class="log-arrow-up"></div>\\n                            <li class="eborder-top">\\n                                <a href="\', escape=False)\n    response.write(URL(\'default\',\'user/register\'))\n    response.write(\'"><i class="icon_profile"></i> My Profile</a>\\n                            </li>\\n                            <li>\\n                                <a href="\', escape=False)\n    response.write(URL(\'default\',\'user/register\'))\n    response.write(\'"><i class="icon_mail_alt"></i> My Favourite</a>\\n                            </li>\\n                            <li>\\n                                <a href="\', escape=False)\n    response.write(URL(\'default\',\'user/logout\'))\n    response.write(\'"><i class="icon_clock_alt"></i> Logout</a>\\n                            </li>\\n                        </ul>\\n                      \', escape=False)\nelse:\n    response.write(\'\\n                      <a data-toggle="dropdown" class="dropdown-toggle" href="#">\\n                          <!--  <span class="profile-ava">-->\\n                                <img alt="" src="\', escape=False)\n    response.write(URL(\'static\',\'images/key.png\'))\n    response.write(\'">\\n                          <!--  </span> -->\\n                            <span class="username">LogIn</span>\\n                            <b class="caret"></b>\\n                        </a>\\n                      <ul class="dropdown-menu extended logout">\\n                            <div class="log-arrow-up"></div>\\n                            <li class="eborder-top">\\n                                <a href="\', escape=False)\n    response.write(URL(\'user.html\'))\n    response.write(\'"><i class="icon_profile"></i>Log In</a>\\n                            </li>\\n                            <li>\\n                                <a href="\', escape=False)\n    response.write(URL(\'default\',\'user/register\'))\n    response.write(\'"><i class="icon_mail_alt"></i>Register</a>\\n                            </li>\\n                            <li>\\n                                <a href="\', escape=False)\n    response.write(URL(\'default\',\'user/request_reset_password\'))\n    response.write(\'"><i class="icon_clock_alt"></i>Forgot Password</a>\\n                            </li>\\n                       </ul> \\n                      \', escape=False)\n    pass\nresponse.write(\'\\n                    </li>\\n                    <!-- user login dropdown end -->\\n                </ul>\\n                <!-- notificatoin dropdown end-->\\n            </div>\\n      </header>      \\n      <!--header end-->\\n\\n      <!--sidebar start-->\\n        <aside>\\n          <div id="sidebar"  class="nav-collapse ">\\n              <!-- sidebar menu start-->\\n              <ul class="sidebar-menu">                \\n                  <li class="active">\\n                      <a class="" href="\', escape=False)\nresponse.write(URL(\'default\',\'index.html\'))\nresponse.write(\'">\\n                          <i class="icon_house_alt"></i>\\n                          <span>Welcome </span>\\n                      </a>\\n                  </li>\\n          <li class="sub-menu">\\n                      <a href="javascript:;" class="">\\n                          <i class="fa fa-heart"></i>\\n                          <span>Favourite</span>\\n                          <span class="menu-arrow arrow_carrot-right"></span>\\n                      </a>\\n                      <ul class="sub">\\n                          <li><a class="" href="\', escape=False)\nresponse.write(URL(\'default\',\'favsong.html\'))\nresponse.write(\'">Songs</a></li>                          \\n                          <li><a class="" href="\', escape=False)\nresponse.write(URL(\'default\',\'favideo.html\'))\nresponse.write(\'">Videos</a></li>\\n                      </ul>\\n                  </li>       \\n                  <li class="sub-menu">\\n                      <a href="javascript:;" class="">\\n                          <i class="icon_desktop"></i>\\n                          <span>Playlists</span>\\n                          <span class="menu-arrow arrow_carrot-right"></span>\\n                      </a>\\n                      <ul class="sub">\\n                          <li><a class="" href="general.html">Create</a></li>\\n                          <li><a class="" href="buttons.html">Your Playlist1</a></li>\\n                          <li><a class="" href="\', escape=False)\nresponse.write(URL(\'default\',\'spons_playlist.html\'))\nresponse.write(\'">Sponsered</a></li>\\n                      </ul>\\n                  </li>\\n                  <li>\\n                      <a class="" href="\', escape=False)\nresponse.write(URL(\'default\',\'widgets.html\'))\nresponse.write(\'">\\n                          <i class="icon_genius"></i>\\n                          <span>See All</span>\\n                      </a>\\n                  </li>\\n                  <li>                     \\n                      <a class="" href="chart-chartjs.html">\\n                          <i class="fa fa-music"></i>\\n                          <span>Top Charts</span>\\n                          \\n                      </a>\\n                                         \\n                  </li>\\n                             \\n                  <li class="sub-menu">\\n                      <a href="javascript:;" class="">\\n                          <i class="icon_table"></i>\\n                          <span>Discover</span>\\n                          <span class="menu-arrow arrow_carrot-right"></span>\\n                      </a>\\n                      <ul class="sub">\\n                       <li><a class="" href="\', escape=False)\nresponse.write(URL(\'create.html\'))\nresponse.write(\'">Create</a></li>\\n                          <li><a class="" href="\', escape=False)\nresponse.write(URL(\'list.html\'))\nresponse.write(\'">Your Playlist1</a></li>\\n                          <li><a class="" href="\', escape=False)\nresponse.write(URL(\'spons_playlist.html\'))\nresponse.write(\'">Sponsered</a></li>\\n                      </ul>\\n                  </li>\\n                  \\n                  <li class="sub-menu">\\n                      <a href="javascript:;" class="">\\n                          <i class="icon_documents_alt"></i>\\n                          <span>My Profile</span>\\n                          <span class="menu-arrow arrow_carrot-right"></span>\\n                      </a>\\n                      <ul class="sub">                          \\n                          <li><a class="" href="profile.html">Profile</a></li>\\n                          <li><a class="" href="login.html"><span>My History</span></a></li>\\n                          <li><a class="" href="404.html">My Uploads</a></li>\\n                      </ul>\\n                  </li>\\n                  \\n              </ul>\\n              <!-- sidebar menu end-->\\n          </div>\\n      </aside>\\n     <!--sidebar end-->\\n      \\n      <!--main content start-->\\n      <section id="main-content">\\n          <section class="wrapper">            \\n              <!--overview start-->\\n              <!--\\n           <div class="row">\\n        <div class="col-lg-3 col-md-3 col-sm-12 col-xs-12"><a href="">\\n          <div class="info-box blue-bg boxes">\\n            <i class="fa fa-music"></i>\\n            <div class="count">New</div>\\n            <div class="title">Albums</div>\\n          </div>\\n        </div>\\n        </a>\\n        \\n        <div class="col-lg-3 col-md-3 col-sm-12 col-xs-12"><a href="">\\n          <div class="info-box brown-bg boxes">\\n            <i class="fa fa-upload"></i>\\n            <div class="count">My</div>\\n            <div class="title">Uploads</div>            \\n          </div>\\n        </div>\\n        </a>\\n        \\n        <div class="col-lg-3 col-md-3 col-sm-12 col-xs-12"><a href="">\\n          <div class="info-box dark-bg boxes">\\n            <i class="fa fa-thumbs-o-up"></i>\\n            <div class="count">Most</div>\\n            <div class="title">Rated</div>            \\n          </div>\\n        </div>\\n        </a>\\n        \\n        <div class="col-lg-3 col-md-3 col-sm-12 col-xs-12"><a href="">\\n          <div class="info-box green-bg boxes">\\n            <i class="fa fa-play-circle-o"></i>\\n            <div class="count">Live</div>\\n            <div class="title">Radio</div>            \\n          </div>\\n        </div>\\n        </a>\\n        \\n      </div>\\n        -->\\n<h1>\', escape=False)\nresponse.write(song.title)\nresponse.write(\'\\n</h1>\\n<h2>\\n\', escape=False)\nif song.category==\'Audio\':\n    response.write(\'\\n<!--<audio controls><div width="50%">\\n                <source src=\', escape=False)\n    #=song.url\n    response.write(\' type="audio/mpeg">\\n                \', escape=False)\n    #print song.url\n    response.write(\'\\n                Your browser does not support the audio tag.</div>\\n            </audio>  -->\\n    <div id="1">\\n    \', escape=False)\n    import soundcloud\n    response.write(\'\\n    \', escape=False)\n    client = soundcloud.Client(client_id=\'f4e257503f0990527a6e17e14158076e\')\n    response.write(\'\\n    \', escape=False)\n    url=song.url\n    response.write(\'\\n    \', escape=False)\n    embed_info = client.get(\'/oembed\', url=url)\n    response.write(\'\\n    \', escape=False)\n    response.write(XML(embed_info.html))\n    response.write(\'\\n    </div>\\n\', escape=False)\nelse:\n    response.write(\'\\n<div id="player" class = "col-xs-8"></div>\\n\\n    <script>\\n      // 2. This code loads the IFrame Player API code asynchronously.\\n      var tag = document.createElement(\\\'script\\\');\\n\\n      tag.src = "https://www.youtube.com/iframe_api";\\n      var firstScriptTag = document.getElementsByTagName(\\\'script\\\')[0];\\n      firstScriptTag.parentNode.insertBefore(tag, firstScriptTag);\\n\\n      // 3. This function creates an <iframe> (and YouTube player)\\n      //    after the API code downloads.\\n      var player;\\n      function onYouTubeIframeAPIReady() {\\n        player = new YT.Player(\\\'player\\\', {\\n          height: \\\'390\\\',\\n          width: \\\'640\\\',\\n          videoId: \\\'\', escape=False)\n    response.write(song.url)\n    response.write("\',\\n          events: {\\n            \'onReady\': onPlayerReady,\\n            \'onStateChange\': onPlayerStateChange\\n          }\\n        });\\n      }\\n\\n      // 4. The API will call this function when the video player is ready.\\n      function onPlayerReady(event) {\\n        event.target.playVideo();\\n      }\\n\\n      // 5. The API calls this function when the player\'s state changes.\\n      //    The function indicates that when playing a video (state=1),\\n      //    the player should play for six seconds and then stop.\\n      var done = false;\\n      function onPlayerStateChange(event) {\\n        if (event.data == YT.PlayerState.PLAYING && !done) {\\n          //setTimeout(stopVideo, 6000);\\n          done = true;\\n        }\\n      }\\n      function stopVideo() {\\n        player.stopVideo();\\n      }\\n    </script>\\n", escape=False)\n    pass\nresponse.write(\'\\n\\n<fieldset class="rating">\\n    <legend>Please rate:</legend>\\n    <input type="radio" id="star5" name="rating" value="5" /><label for="star5" title="Rocks!">5 stars</label>\\n    <input type="radio" id="star4" name="rating" value="4" /><label for="star4" title="Pretty good">4 stars</label>\\n    <input type="radio" id="star3" name="rating" value="3" /><label for="star3" title="Meh">3 stars</label>\\n    <input type="radio" id="star2" name="rating" value="2" /><label for="star2" title="Kinda bad">2 stars</label>\\n    <input type="radio" id="star1" name="rating" value="1" /><label for="star1" title="Sucks big time">1 star</label>\\n</fieldset>\\n\\n<div style="padding-top:10%;">\\n\', escape=False)\nresponse.write(A(\'Click here \', _href=URL(\'mark_favourite\',args=song.id)))\nresponse.write(\'&nbsp;to Mark it as favourite</div>\\n</h2>\\n<div class="col-xs-6">\\n<h3>\\nLikes <span id="likes">\', escape=False)\nresponse.write(Likes)\nresponse.write(\'</span>\\n<button type="button" class="btn btn-warning" onclick="ajax(\\\'\', escape=False)\nresponse.write(URL(\'vote\',args=(song.id)))\nresponse.write(\'\\\',[],\\\'likes\\\')">\\n  Like\\n</button>\\n</h3>\\n\', escape=False)\nfor comment in comments:\n    response.write(\'\\n<br>\\n<strong>\', escape=False)\n    response.write(comment.created_by.first_name)\n    response.write(\'</strong> said <i>\', escape=False)\n    #prettydate(comment.created_on)\n    response.write(\'</i><br>\\n&nbsp;&nbsp;&nbsp;&nbsp;&nbsp;&nbsp;&nbsp;&nbsp;&nbsp;\', escape=False)\n    response.write(comment.body)\n    response.write(\'\\n\', escape=False)\n    pass\nresponse.write(\'\\n<h4>\\n\', escape=False)\nresponse.write(formcmnt)\nresponse.write(\'\\n</h4>\\n\\n\\n              <!-- project team & activity start -->\\n          \\n              <!-- project team & activity end -->\\n</div>\\n          </section>\\n      </section>\\n      <!--main content end-->\\n  </section>\\n\\n\\n\\n\\n\\n\\n\\n\\n\\n\\n\\n  <!-- container section start -->\\n\\n    <!-- javascripts -->\\n        <!-- javascripts -->\\n    <script src="\', escape=False)\nresponse.write(URL(\'static\',\'js/jquery.js\'))\nresponse.write(\'"></script>\\n  <script src="\', escape=False)\nresponse.write(URL(\'static\',\'js/jquery-ui-1.10.4.min.js\'))\nresponse.write(\'"></script>\\n    <script src="\', escape=False)\nresponse.write(URL(\'static\',\'js/jquery-1.8.3.min.js\'))\nresponse.write(\'"></script>\\n    <script type="text/javascript" src="\', escape=False)\nresponse.write(URL(\'static\',\'js/jquery-ui-1.9.2.custom.min.js\'))\nresponse.write(\'"></script>\\n    <script type="text/javascript" src="\', escape=False)\nresponse.write(URL(\'static\',\'js/bootbox.js\'))\nresponse.write(\'"></script>\\n    <!-- bootstrap -->\\n    <script src="\', escape=False)\nresponse.write(URL(\'static\',\'js/bootstrap.min.js\'))\nresponse.write(\'"></script>\\n    <!-- nice scroll -->\\n    <script src="\', escape=False)\nresponse.write(URL(\'static\',\'js/jquery.scrollTo.min.js\'))\nresponse.write(\'"></script>\\n    <script src="\', escape=False)\nresponse.write(URL(\'static\',\'js/jquery.nicescroll.js\'))\nresponse.write(\'" type="text/javascript"></script>\\n    <!-- charts scripts -->\\n    <script src="\', escape=False)\nresponse.write(URL(\'static\',\'js/jquery.sparkline.js\'))\nresponse.write(\'" type="text/javascript"></script>\\n  <script src="\', escape=False)\nresponse.write(URL(\'static\',\'js/jquery.rateit.min.js\'))\nresponse.write(\'"></script>\\n    <!-- custom select -->\\n    <script src="\', escape=False)\nresponse.write(URL(\'static\',\'js/jquery.customSelect.min.js\'))\nresponse.write(\'" ></script>\\n    <!--custome script for all page-->\\n    <script src="\', escape=False)\nresponse.write(URL(\'static\',\'js/scripts.js\'))\nresponse.write(\'"></script>\\n    <!-- custom script for this page-->\\n    <script src="\', escape=False)\nresponse.write(URL(\'static\',\'js/sparkline-chart.js\'))\nresponse.write(\'"></script>\\n  <script src="\', escape=False)\nresponse.write(URL(\'static\',\'js/jquery-jvectormap-1.2.2.min.js\'))\nresponse.write(\'"></script>\\n  <script src="\', escape=False)\nresponse.write(URL(\'static\',\'js/jquery-jvectormap-world-mill-en.js\'))\nresponse.write(\'"></script>\\n  <script src="\', escape=False)\nresponse.write(URL(\'static\',\'js/xcharts.min.js\'))\nresponse.write(\'"></script>\\n  <script src="\', escape=False)\nresponse.write(URL(\'static\',\'js/jquery.autosize.min.js\'))\nresponse.write(\'"></script>\\n  <script src="\', escape=False)\nresponse.write(URL(\'static\',\'js/jquery.placeholder.min.js\'))\nresponse.write(\'"></script>\\n  <script src="\', escape=False)\nresponse.write(URL(\'static\',\'js/gdp-data.js\'))\nresponse.write(\'"></script> \\n  <script src="\', escape=False)\nresponse.write(URL(\'static\',\'js/morris.min.js\'))\nresponse.write(\'"></script>\\n  <script src="\', escape=False)\nresponse.write(URL(\'static\',\'js/sparklines.js\'))\nresponse.write(\'"></script> \\n  <script src="\', escape=False)\nresponse.write(URL(\'static\',\'js/charts.js\'))\nresponse.write(\'"></script>\\n  <script src="\', escape=False)\nresponse.write(URL(\'static\',\'js/jquery.slimscroll.min.js\'))\nresponse.write(\'"></script>\\n\\n  </body>\\n</html>\', escape=False)'
p7
sS'snapshot'
p8
(dp9
S'exception'
p10
(dp11
S'__module__'
p12
S"'requests.exceptions'"
p13
sS'__getslice__'
p14
S"<method-wrapper '__getslice__' of ConnectionError object>"
p15
sS'__str__'
p16
S"<method-wrapper '__str__' of ConnectionError object>"
p17
sS'__reduce__'
p18
S'<built-in method __reduce__ of ConnectionError object>'
p19
sS'__dict__'
p20
S'{}'
p21
sS'__sizeof__'
p22
S'<built-in method __sizeof__ of ConnectionError object>'
p23
sS'__weakref__'
p24
S'None'
p25
sS'__init__'
p26
S"<method-wrapper '__init__' of ConnectionError object>"
p27
sS'__setattr__'
p28
S"<method-wrapper '__setattr__' of ConnectionError object>"
p29
sS'__reduce_ex__'
p30
S'<built-in method __reduce_ex__ of ConnectionError object>'
p31
sS'__new__'
p32
S'<built-in method __new__ of type object>'
p33
sS'errno'
p34
S'None'
p35
sS'__format__'
p36
S'<built-in method __format__ of ConnectionError object>'
p37
sS'__class__'
p38
S"<class 'requests.exceptions.ConnectionError'>"
p39
sS'filename'
p40
S'None'
p41
sS'__doc__'
p42
S"'A Connection error occurred.'"
p43
sS'__getitem__'
p44
S"<method-wrapper '__getitem__' of ConnectionError object>"
p45
sS'__setstate__'
p46
S'<built-in method __setstate__ of ConnectionError object>'
p47
sS'__getattribute__'
p48
S"<method-wrapper '__getattribute__' of ConnectionError object>"
p49
sS'args'
p50
S'(MaxRetryError("HTTPSConnectionPool(host=\'api.sou...error\'>: [Errno -2] Name or service not known)",),)'
p51
sS'__subclasshook__'
p52
S'<built-in method __subclasshook__ of type object>'
p53
sS'__unicode__'
p54
S'<built-in method __unicode__ of ConnectionError object>'
p55
sS'strerror'
p56
S'None'
p57
sS'__delattr__'
p58
S"<method-wrapper '__delattr__' of ConnectionError object>"
p59
sS'__repr__'
p60
S"<method-wrapper '__repr__' of ConnectionError object>"
p61
sS'__hash__'
p62
S"<method-wrapper '__hash__' of ConnectionError object>"
p63
ssS'evalue'
p64
S"HTTPSConnectionPool(host='api.soundcloud.com', port=443): Max retries exceeded with url: /oembed.json?url=https%3A%2F%2Fsoundcloud.com%2Fhadeel_muruj%2Fsaathi-tera-ban-jaoo-kyu-hain&client_id=f4e257503f0990527a6e17e14158076e (Caused by <class 'socket.gaierror'>: [Errno -2] Name or service not known)"
p65
sS'request'
p66
cgluon.html
XML_unpickle
p67
(S's+R\x00\x00<div><table><tr><td style="font-weight:bold;vertical-align:top;">ajax</td><td style="vertical-align:top;">:</td><td><div>False</div></td></tr><tr><td style="font-weight:bold;vertical-align:top;">application</td><td style="vertical-align:top;">:</td><td><div>final</div></td></tr><tr><td style="font-weight:bold;vertical-align:top;">args</td><td style="vertical-align:top;">:</td><td><div><table><tr><td><div>27</div></td></tr></table></div></td></tr><tr><td style="font-weight:bold;vertical-align:top;">cid</td><td style="vertical-align:top;">:</td><td><div>None</div></td></tr><tr><td style="font-weight:bold;vertical-align:top;">client</td><td style="vertical-align:top;">:</td><td><div>127.0.0.1</div></td></tr><tr><td style="font-weight:bold;vertical-align:top;">controller</td><td style="vertical-align:top;">:</td><td><div>default</div></td></tr><tr><td style="font-weight:bold;vertical-align:top;">cookies</td><td style="vertical-align:top;">:</td><td><div><table><tr><td style="font-weight:bold;vertical-align:top;">session_id_final</td><td style="vertical-align:top;">:</td><td><div>127.0.0.1-41b11f1a-482c-49fd-975f-7aa9cbae2bcd<table><tr><td style="font-weight:bold;vertical-align:top;">comment</td><td style="vertical-align:top;">:</td><td><div></div></td></tr><tr><td style="font-weight:bold;vertical-align:top;">domain</td><td style="vertical-align:top;">:</td><td><div></div></td></tr><tr><td style="font-weight:bold;vertical-align:top;">expires</td><td style="vertical-align:top;">:</td><td><div></div></td></tr><tr><td style="font-weight:bold;vertical-align:top;">httponly</td><td style="vertical-align:top;">:</td><td><div></div></td></tr><tr><td style="font-weight:bold;vertical-align:top;">max-age</td><td style="vertical-align:top;">:</td><td><div></div></td></tr><tr><td style="font-weight:bold;vertical-align:top;">path</td><td style="vertical-align:top;">:</td><td><div></div></td></tr><tr><td style="font-weight:bold;vertical-align:top;">secure</td><td style="vertical-align:top;">:</td><td><div></div></td></tr><tr><td style="font-weight:bold;vertical-align:top;">version</td><td style="vertical-align:top;">:</td><td><div></div></td></tr></table></div></td></tr></table></div></td></tr><tr><td style="font-weight:bold;vertical-align:top;">env</td><td style="vertical-align:top;">:</td><td><div><table><tr><td style="font-weight:bold;vertical-align:top;">HTTP_ACCEPT</td><td style="vertical-align:top;">:</td><td><div>text/html,application/xhtml+xml,application/xml;q=0.9,*/*;q=0.8</div></td></tr><tr><td style="font-weight:bold;vertical-align:top;">HTTP_ACCEPT_ENCODING</td><td style="vertical-align:top;">:</td><td><div>gzip, deflate</div></td></tr><tr><td style="font-weight:bold;vertical-align:top;">HTTP_ACCEPT_LANGUAGE</td><td style="vertical-align:top;">:</td><td><div>en-US,en;q=0.5</div></td></tr><tr><td style="font-weight:bold;vertical-align:top;">HTTP_CACHE_CONTROL</td><td style="vertical-align:top;">:</td><td><div>max-age=0</div></td></tr><tr><td style="font-weight:bold;vertical-align:top;">HTTP_CONNECTION</td><td style="vertical-align:top;">:</td><td><div>keep-alive</div></td></tr><tr><td style="font-weight:bold;vertical-align:top;">HTTP_COOKIE</td><td style="vertical-align:top;">:</td><td><div>session_id_final=127.0.0.1-41b11f1a-482c-49fd-975f-7aa9cbae2bcd</div></td></tr><tr><td style="font-weight:bold;vertical-align:top;">HTTP_DNT</td><td style="vertical-align:top;">:</td><td><div>1</div></td></tr><tr><td style="font-weight:bold;vertical-align:top;">HTTP_HOST</td><td style="vertical-align:top;">:</td><td><div>127.0.0.1:8000</div></td></tr><tr><td style="font-weight:bold;vertical-align:top;">HTTP_USER_AGENT</td><td style="vertical-align:top;">:</td><td><div>Mozilla/5.0 (X11; Ubuntu; Linux x86_64; rv:41.0) Gecko/20100101 Firefox/41.0</div></td></tr><tr><td style="font-weight:bold;vertical-align:top;">PATH_INFO</td><td style="vertical-align:top;">:</td><td><div>/final/default/see/27</div></td></tr><tr><td style="font-weight:bold;vertical-align:top;">QUERY_STRING</td><td style="vertical-align:top;">:</td><td><div></div></td></tr><tr><td style="font-weight:bold;vertical-align:top;">REMOTE_ADDR</td><td style="vertical-align:top;">:</td><td><div>127.0.0.1</div></td></tr><tr><td style="font-weight:bold;vertical-align:top;">REMOTE_PORT</td><td style="vertical-align:top;">:</td><td><div>58528</div></td></tr><tr><td style="font-weight:bold;vertical-align:top;">REQUEST_METHOD</td><td style="vertical-align:top;">:</td><td><div>GET</div></td></tr><tr><td style="font-weight:bold;vertical-align:top;">SCRIPT_NAME</td><td style="vertical-align:top;">:</td><td><div></div></td></tr><tr><td style="font-weight:bold;vertical-align:top;">SERVER_NAME</td><td style="vertical-align:top;">:</td><td><div>abhi-Vostro-3546</div></td></tr><tr><td style="font-weight:bold;vertical-align:top;">SERVER_PORT</td><td style="vertical-align:top;">:</td><td><div>8000</div></td></tr><tr><td style="font-weight:bold;vertical-align:top;">SERVER_PROTOCOL</td><td style="vertical-align:top;">:</td><td><div>HTTP/1.1</div></td></tr><tr><td style="font-weight:bold;vertical-align:top;">SERVER_SOFTWARE</td><td style="vertical-align:top;">:</td><td><div>Rocket 1.2.6</div></td></tr><tr><td style="font-weight:bold;vertical-align:top;">app_folders</td><td style="vertical-align:top;">:</td><td><div>set([&#x27;/home/abhi/Downloads/CourseMaterial/web2Py/web2py/applications/welcome/&#x27;, &#x27;/home/abhi/Downloads/CourseMaterial/web2Py/web2py/applications/final/&#x27;, &#x27;/home/abhi/Downloads/CourseMaterial/web2Py/web2py/applications/admin/&#x27;])</div></td></tr><tr><td style="font-weight:bold;vertical-align:top;">applications_parent</td><td style="vertical-align:top;">:</td><td><div>/home/abhi/Downloads/CourseMaterial/web2Py/web2py</div></td></tr><tr><td style="font-weight:bold;vertical-align:top;">cmd_args</td><td style="vertical-align:top;">:</td><td><div><table></table></div></td></tr><tr><td style="font-weight:bold;vertical-align:top;">cmd_options</td><td style="vertical-align:top;">:</td><td><div>&lt;Values at 0x7f62721c2fc8: {&#x27;verbose&#x27;: False, &#x27;ip&#x27;: &#x27;127.0.0.1&#x27;, &#x27;debuglevel&#x27;: 30, &#x27;with_scheduler&#x27;: False, &#x27;ips&#x27;: [&#x27;127.0.1.1&#x27;], &#x27;shutdown_timeout&#x27;: 5, &#x27;taskbar&#x27;: False, &#x27;with_coverage&#x27;: False, &#x27;scheduler_groups&#x27;: None, &#x27;port&#x27;: 8000, &#x27;maxthreads&#x27;: None, &#x27;softcron&#x27;: False, &#x27;server_name&#x27;: &#x27;abhi-Vostro-3546&#x27;, &#x27;bpython&#x27;: False, &#x27;nogui&#x27;: False, &#x27;pid_filename&#x27;: &#x27;httpserver.pid&#x27;, &#x27;print_errors&#x27;: False, &#x27;extcron&#x27;: False, &#x27;runcron&#x27;: False, &#x27;run_system_tests&#x27;: False, &#x27;test&#x27;: None, &#x27;folder&#x27;: &#x27;/home/abhi/Downloads/CourseMaterial/web2Py/web2py&#x27;, &#x27;config&#x27;: &#x27;&#x27;, &#x27;minthreads&#x27;: None, &#x27;shell&#x27;: None, &#x27;run&#x27;: &#x27;&#x27;, &#x27;log_filename&#x27;: &#x27;httpserver.log&#x27;, &#x27;profiler_dir&#x27;: None, &#x27;args&#x27;: [&#x27;&#x27;], &#x27;socket_timeout&#x27;: 5, &#x27;ssl_ca_certificate&#x27;: None, &#x27;scheduler&#x27;: None, &#x27;interfaces&#x27;: None, &#x27;ssl_private_key&#x27;: &#x27;&#x27;, &#x27;gae&#x27;: None, &#x27;password&#x27;: &#x27;&lt;ask&gt;&#x27;, &#x27;request_queue_size&#x27;: 5, &#x27;ssl_certificate&#x27;: &#x27;&#x27;, &#x27;cronjob&#x27;: False, &#x27;numthreads&#x27;: None, &#x27;quiet&#x27;: False, &#x27;import_models&#x27;: False, &#x27;timeout&#x27;: 10, &#x27;plain&#x27;: False, &#x27;nobanner&#x27;: False}&gt;</div></td></tr><tr><td style="font-weight:bold;vertical-align:top;">db_sessions</td><td style="vertical-align:top;">:</td><td><div>set([])</div></td></tr><tr><td style="font-weight:bold;vertical-align:top;">debugging</td><td style="vertical-align:top;">:</td><td><div>False</div></td></tr><tr><td style="font-weight:bold;vertical-align:top;">gluon_parent</td><td style="vertical-align:top;">:</td><td><div>/home/abhi/Downloads/CourseMaterial/web2Py/web2py</div></td></tr><tr><td style="font-weight:bold;vertical-align:top;">http_accept</td><td style="vertical-align:top;">:</td><td><div>text/html,application/xhtml+xml,application/xml;q=0.9,*/*;q=0.8</div></td></tr><tr><td style="font-weight:bold;vertical-align:top;">http_accept_encoding</td><td style="vertical-align:top;">:</td><td><div>gzip, deflate</div></td></tr><tr><td style="font-weight:bold;vertical-align:top;">http_accept_language</td><td style="vertical-align:top;">:</td><td><div>en-US,en;q=0.5</div></td></tr><tr><td style="font-weight:bold;vertical-align:top;">http_cache_control</td><td style="vertical-align:top;">:</td><td><div>max-age=0</div></td></tr><tr><td style="font-weight:bold;vertical-align:top;">http_connection</td><td style="vertical-align:top;">:</td><td><div>keep-alive</div></td></tr><tr><td style="font-weight:bold;vertical-align:top;">http_cookie</td><td style="vertical-align:top;">:</td><td><div>session_id_final=127.0.0.1-41b11f1a-482c-49fd-975f-7aa9cbae2bcd</div></td></tr><tr><td style="font-weight:bold;vertical-align:top;">http_dnt</td><td style="vertical-align:top;">:</td><td><div>1</div></td></tr><tr><td style="font-weight:bold;vertical-align:top;">http_host</td><td style="vertical-align:top;">:</td><td><div>127.0.0.1:8000</div></td></tr><tr><td style="font-weight:bold;vertical-align:top;">http_user_agent</td><td style="vertical-align:top;">:</td><td><div>Mozilla/5.0 (X11; Ubuntu; Linux x86_64; rv:41.0) Gecko/20100101 Firefox/41.0</div></td></tr><tr><td style="font-weight:bold;vertical-align:top;">is_jython</td><td style="vertical-align:top;">:</td><td><div>False</div></td></tr><tr><td style="font-weight:bold;vertical-align:top;">is_pypy</td><td style="vertical-align:top;">:</td><td><div>False</div></td></tr><tr><td style="font-weight:bold;vertical-align:top;">is_source</td><td style="vertical-align:top;">:</td><td><div>True</div></td></tr><tr><td style="font-weight:bold;vertical-align:top;">local_hosts</td><td style="vertical-align:top;">:</td><td><div><table><tr><td><div>::1</div></td></tr><tr><td><div>127.0.1.1</div></td></tr><tr><td><div>::ffff:127.0.0.1</div></td></tr><tr><td><div>127.0.0.1</div></td></tr><tr><td><div>abhi-Vostro-3546</div></td></tr></table></div></td></tr><tr><td style="font-weight:bold;vertical-align:top;">path_info</td><td style="vertical-align:top;">:</td><td><div>/final/default/see/27</div></td></tr><tr><td style="font-weight:bold;vertical-align:top;">query_string</td><td style="vertical-align:top;">:</td><td><div></div></td></tr><tr><td style="font-weight:bold;vertical-align:top;">remote_addr</td><td style="vertical-align:top;">:</td><td><div>127.0.0.1</div></td></tr><tr><td style="font-weight:bold;vertical-align:top;">remote_port</td><td style="vertical-align:top;">:</td><td><div>58528</div></td></tr><tr><td style="font-weight:bold;vertical-align:top;">request_method</td><td style="vertical-align:top;">:</td><td><div>GET</div></td></tr><tr><td style="font-weight:bold;vertical-align:top;">request_uri</td><td style="vertical-align:top;">:</td><td><div>/final/default/see/27</div></td></tr><tr><td style="font-weight:bold;vertical-align:top;">script_name</td><td style="vertical-align:top;">:</td><td><div></div></td></tr><tr><td style="font-weight:bold;vertical-align:top;">server_name</td><td style="vertical-align:top;">:</td><td><div>abhi-Vostro-3546</div></td></tr><tr><td style="font-weight:bold;vertical-align:top;">server_port</td><td style="vertical-align:top;">:</td><td><div>8000</div></td></tr><tr><td style="font-weight:bold;vertical-align:top;">server_protocol</td><td style="vertical-align:top;">:</td><td><div>HTTP/1.1</div></td></tr><tr><td style="font-weight:bold;vertical-align:top;">server_software</td><td style="vertical-align:top;">:</td><td><div>Rocket 1.2.6</div></td></tr><tr><td style="font-weight:bold;vertical-align:top;">web2py_path</td><td style="vertical-align:top;">:</td><td><div>/home/abhi/Downloads/CourseMaterial/web2Py/web2py</div></td></tr><tr><td style="font-weight:bold;vertical-align:top;">web2py_version</td><td style="vertical-align:top;">:</td><td><div>2.12.3-stable+timestamp.2015.08.19.00.18.03</div></td></tr><tr><td style="font-weight:bold;vertical-align:top;">wsgi.errors</td><td style="vertical-align:top;">:</td><td><div>&lt;open file &#x27;&lt;stderr&gt;&#x27;, mode &#x27;w&#x27; at 0x7f62794211e0&gt;</div></td></tr><tr><td style="font-weight:bold;vertical-align:top;">wsgi.file_wrapper</td><td style="vertical-align:top;">:</td><td><div>&lt;class wsgiref.util.FileWrapper at 0x7f627224be88&gt;</div></td></tr><tr><td style="font-weight:bold;vertical-align:top;">wsgi.input</td><td style="vertical-align:top;">:</td><td><div>&lt;socket._fileobject object at 0x7f622e87f2d0&gt;</div></td></tr><tr><td style="font-weight:bold;vertical-align:top;">wsgi.multiprocess</td><td style="vertical-align:top;">:</td><td><div>False</div></td></tr><tr><td style="font-weight:bold;vertical-align:top;">wsgi.multithread</td><td style="vertical-align:top;">:</td><td><div>True</div></td></tr><tr><td style="font-weight:bold;vertical-align:top;">wsgi.run_once</td><td style="vertical-align:top;">:</td><td><div>False</div></td></tr><tr><td style="font-weight:bold;vertical-align:top;">wsgi.url_scheme</td><td style="vertical-align:top;">:</td><td><div>http</div></td></tr><tr><td style="font-weight:bold;vertical-align:top;">wsgi.version</td><td style="vertical-align:top;">:</td><td><div><table><tr><td><div>1</div></td></tr><tr><td><div>0</div></td></tr></table></div></td></tr><tr><td style="font-weight:bold;vertical-align:top;">wsgi_errors</td><td style="vertical-align:top;">:</td><td><div>&lt;open file &#x27;&lt;stderr&gt;&#x27;, mode &#x27;w&#x27; at 0x7f62794211e0&gt;</div></td></tr><tr><td style="font-weight:bold;vertical-align:top;">wsgi_file_wrapper</td><td style="vertical-align:top;">:</td><td><div>&lt;class wsgiref.util.FileWrapper at 0x7f627224be88&gt;</div></td></tr><tr><td style="font-weight:bold;vertical-align:top;">wsgi_input</td><td style="vertical-align:top;">:</td><td><div>&lt;socket._fileobject object at 0x7f622e87f2d0&gt;</div></td></tr><tr><td style="font-weight:bold;vertical-align:top;">wsgi_multiprocess</td><td style="vertical-align:top;">:</td><td><div>False</div></td></tr><tr><td style="font-weight:bold;vertical-align:top;">wsgi_multithread</td><td style="vertical-align:top;">:</td><td><div>True</div></td></tr><tr><td style="font-weight:bold;vertical-align:top;">wsgi_run_once</td><td style="vertical-align:top;">:</td><td><div>False</div></td></tr><tr><td style="font-weight:bold;vertical-align:top;">wsgi_url_scheme</td><td style="vertical-align:top;">:</td><td><div>http</div></td></tr><tr><td style="font-weight:bold;vertical-align:top;">wsgi_version</td><td style="vertical-align:top;">:</td><td><div><table><tr><td><div>1</div></td></tr><tr><td><div>0</div></td></tr></table></div></td></tr></table></div></td></tr><tr><td style="font-weight:bold;vertical-align:top;">extension</td><td style="vertical-align:top;">:</td><td><div>html</div></td></tr><tr><td style="font-weight:bold;vertical-align:top;">folder</td><td style="vertical-align:top;">:</td><td><div>/home/abhi/Downloads/CourseMaterial/web2Py/web2py/applications/final/</div></td></tr><tr><td style="font-weight:bold;vertical-align:top;">function</td><td style="vertical-align:top;">:</td><td><div>see</div></td></tr><tr><td style="font-weight:bold;vertical-align:top;">global_settings</td><td style="vertical-align:top;">:</td><td><div><table><tr><td style="font-weight:bold;vertical-align:top;">app_folders</td><td style="vertical-align:top;">:</td><td><div>set([&#x27;/home/abhi/Downloads/CourseMaterial/web2Py/web2py/applications/welcome/&#x27;, &#x27;/home/abhi/Downloads/CourseMaterial/web2Py/web2py/applications/final/&#x27;, &#x27;/home/abhi/Downloads/CourseMaterial/web2Py/web2py/applications/admin/&#x27;])</div></td></tr><tr><td style="font-weight:bold;vertical-align:top;">applications_parent</td><td style="vertical-align:top;">:</td><td><div>/home/abhi/Downloads/CourseMaterial/web2Py/web2py</div></td></tr><tr><td style="font-weight:bold;vertical-align:top;">cmd_args</td><td style="vertical-align:top;">:</td><td><div><table></table></div></td></tr><tr><td style="font-weight:bold;vertical-align:top;">cmd_options</td><td style="vertical-align:top;">:</td><td><div>&lt;Values at 0x7f62721c2fc8: {&#x27;verbose&#x27;: False, &#x27;ip&#x27;: &#x27;127.0.0.1&#x27;, &#x27;debuglevel&#x27;: 30, &#x27;with_scheduler&#x27;: False, &#x27;ips&#x27;: [&#x27;127.0.1.1&#x27;], &#x27;shutdown_timeout&#x27;: 5, &#x27;taskbar&#x27;: False, &#x27;with_coverage&#x27;: False, &#x27;scheduler_groups&#x27;: None, &#x27;port&#x27;: 8000, &#x27;maxthreads&#x27;: None, &#x27;softcron&#x27;: False, &#x27;server_name&#x27;: &#x27;abhi-Vostro-3546&#x27;, &#x27;bpython&#x27;: False, &#x27;nogui&#x27;: False, &#x27;pid_filename&#x27;: &#x27;httpserver.pid&#x27;, &#x27;print_errors&#x27;: False, &#x27;extcron&#x27;: False, &#x27;runcron&#x27;: False, &#x27;run_system_tests&#x27;: False, &#x27;test&#x27;: None, &#x27;folder&#x27;: &#x27;/home/abhi/Downloads/CourseMaterial/web2Py/web2py&#x27;, &#x27;config&#x27;: &#x27;&#x27;, &#x27;minthreads&#x27;: None, &#x27;shell&#x27;: None, &#x27;run&#x27;: &#x27;&#x27;, &#x27;log_filename&#x27;: &#x27;httpserver.log&#x27;, &#x27;profiler_dir&#x27;: None, &#x27;args&#x27;: [&#x27;&#x27;], &#x27;socket_timeout&#x27;: 5, &#x27;ssl_ca_certificate&#x27;: None, &#x27;scheduler&#x27;: None, &#x27;interfaces&#x27;: None, &#x27;ssl_private_key&#x27;: &#x27;&#x27;, &#x27;gae&#x27;: None, &#x27;password&#x27;: &#x27;&lt;ask&gt;&#x27;, &#x27;request_queue_size&#x27;: 5, &#x27;ssl_certificate&#x27;: &#x27;&#x27;, &#x27;cronjob&#x27;: False, &#x27;numthreads&#x27;: None, &#x27;quiet&#x27;: False, &#x27;import_models&#x27;: False, &#x27;timeout&#x27;: 10, &#x27;plain&#x27;: False, &#x27;nobanner&#x27;: False}&gt;</div></td></tr><tr><td style="font-weight:bold;vertical-align:top;">db_sessions</td><td style="vertical-align:top;">:</td><td><div>set([])</div></td></tr><tr><td style="font-weight:bold;vertical-align:top;">debugging</td><td style="vertical-align:top;">:</td><td><div>False</div></td></tr><tr><td style="font-weight:bold;vertical-align:top;">gluon_parent</td><td style="vertical-align:top;">:</td><td><div>/home/abhi/Downloads/CourseMaterial/web2Py/web2py</div></td></tr><tr><td style="font-weight:bold;vertical-align:top;">is_jython</td><td style="vertical-align:top;">:</td><td><div>False</div></td></tr><tr><td style="font-weight:bold;vertical-align:top;">is_pypy</td><td style="vertical-align:top;">:</td><td><div>False</div></td></tr><tr><td style="font-weight:bold;vertical-align:top;">is_source</td><td style="vertical-align:top;">:</td><td><div>True</div></td></tr><tr><td style="font-weight:bold;vertical-align:top;">local_hosts</td><td style="vertical-align:top;">:</td><td><div><table><tr><td><div>::1</div></td></tr><tr><td><div>127.0.1.1</div></td></tr><tr><td><div>::ffff:127.0.0.1</div></td></tr><tr><td><div>127.0.0.1</div></td></tr><tr><td><div>abhi-Vostro-3546</div></td></tr></table></div></td></tr><tr><td style="font-weight:bold;vertical-align:top;">web2py_version</td><td style="vertical-align:top;">:</td><td><div>2.12.3-stable+timestamp.2015.08.19.00.18.03</div></td></tr></table></div></td></tr><tr><td style="font-weight:bold;vertical-align:top;">is_https</td><td style="vertical-align:top;">:</td><td><div>False</div></td></tr><tr><td style="font-weight:bold;vertical-align:top;">is_local</td><td style="vertical-align:top;">:</td><td><div>True</div></td></tr><tr><td style="font-weight:bold;vertical-align:top;">is_restful</td><td style="vertical-align:top;">:</td><td><div>False</div></td></tr><tr><td style="font-weight:bold;vertical-align:top;">is_sheduler</td><td style="vertical-align:top;">:</td><td><div>None</div></td></tr><tr><td style="font-weight:bold;vertical-align:top;">is_shell</td><td style="vertical-align:top;">:</td><td><div>None</div></td></tr><tr><td style="font-weight:bold;vertical-align:top;">now</td><td style="vertical-align:top;">:</td><td><div>datetime.datetime(2015, 11, 21, 2, 31, 6, 383825)</div></td></tr><tr><td style="font-weight:bold;vertical-align:top;">raw_args</td><td style="vertical-align:top;">:</td><td><div>27</div></td></tr><tr><td style="font-weight:bold;vertical-align:top;">raw_extension</td><td style="vertical-align:top;">:</td><td><div>None</div></td></tr><tr><td style="font-weight:bold;vertical-align:top;">url</td><td style="vertical-align:top;">:</td><td><div>/final/default/see/27</div></td></tr><tr><td style="font-weight:bold;vertical-align:top;">utcnow</td><td style="vertical-align:top;">:</td><td><div>datetime.datetime(2015, 11, 20, 21, 1, 6, 383864)</div></td></tr><tr><td style="font-weight:bold;vertical-align:top;">wsgi</td><td style="vertical-align:top;">:</td><td><div>&lt;gluon.main.LazyWSGI object at 0x7f622e962e10&gt;</div></td></tr></table></div>'
tRp68
sS'frames'
p69
(lp70
(dp71
S'file'
p72
S'/home/abhi/Downloads/CourseMaterial/web2Py/web2py/gluon/restricted.py'
p73
sS'dump'
p74
(dp75
S'environment'
p76
S"{'A': <class 'gluon.html.A'>, 'ANY_OF': <class 'gluon.validators.ANY_OF'>, 'ASSIGNJS': <function ASSIGNJS>, 'AppConfig': <function AppConfig>, 'Auth': <class 'gluon.tools.Auth'>, 'B': <class 'gluon.html.B'>, 'BEAUTIFY': <class 'gluon.html.BEAUTIFY'>, 'BODY': <class 'gluon.html.BODY'>, 'BR': <class 'gluon.html.BR'>, 'BUTTON': <class 'gluon.html.BUTTON'>, ...}"
p77
sS'ccode'
p78
S'<code object <module> at 0x7f622e8630b0, file "/...plications/final/views/default/see.html", line 1>'
p79
ssS'lnum'
p80
I227
sS'lines'
p81
(dp82
I224
S'            ccode = code'
p83
sI225
S'        else:'
p84
sI226
S'            ccode = compile2(code, layer)'
p85
sI227
S'        exec ccode in environment'
p86
sI228
S'    except HTTP:'
p87
sI229
S'        raise'
p88
sI230
S'    except RestrictedError:'
p89
sI231
S'        # do not encapsulate (obfuscate) the original RestrictedError'
p90
sI222
S'    try:'
p91
sI223
S'        if isinstance(code, types.CodeType):'
p92
ssS'call'
p93
S'(code=\'response.write(\\\'<!DOCTYPE html>\\\\n<html lang="en"..."></script>\\\\n\\\\n  </body>\\\\n</html>\\\', escape=False)\', environment={\'A\': <class \'gluon.html.A\'>, \'ANY_OF\': <class \'gluon.validators.ANY_OF\'>, \'ASSIGNJS\': <function ASSIGNJS>, \'AppConfig\': <function AppConfig>, \'Auth\': <class \'gluon.tools.Auth\'>, \'B\': <class \'gluon.html.B\'>, \'BEAUTIFY\': <class \'gluon.html.BEAUTIFY\'>, \'BODY\': <class \'gluon.html.BODY\'>, \'BR\': <class \'gluon.html.BR\'>, \'BUTTON\': <class \'gluon.html.BUTTON\'>, ...}, layer=\'/home/abhi/Downloads/CourseMaterial/web2Py/web2py/applications/final/views/default/see.html\')'
p94
sS'func'
p95
S'restricted'
p96
sa(dp97
g72
S'/home/abhi/Downloads/CourseMaterial/web2Py/web2py/applications/final/views/default/see.html'
p98
sg74
(dp99
S'head'
p100
S'undefined'
p101
ssg80
I98
sg81
(dp102
I96
S'    url=song.url'
p103
sI97
S"    response.write('\\n    ', escape=False)"
p104
sI98
S"    embed_info = client.get('/oembed', url=url)"
p105
sI99
S"    response.write('\\n    ', escape=False)"
p106
sI100
S'    response.write(XML(embed_info.html))'
p107
sI101
S"    response.write('\\n    </div>\\n', escape=False)"
p108
sI102
S'else:'
p109
sI103
S'    response.write(\'\\n<div id="player" class = "col-xs-8"></div>\\n\\n    <script>\\n      // 2. This code loads the IFrame Player API code asynchronously.\\n      var tag = document.createElement(\\\'script\\\');\\n\\n      tag.src = "https://www.youtube.com/iframe_api";\\n      var firstScriptTag = document.getElementsByTagName(\\\'script\\\')[0];\\n      firstScriptTag.parentNode.insertBefore(tag, firstScriptTag);\\n\\n      // 3. This function creates an <iframe> (and YouTube player)\\n      //    after the API code downloads.\\n      var player;\\n      function onYouTubeIframeAPIReady() {\\n        player = new YT.Player(\\\'player\\\', {\\n          height: \\\'390\\\',\\n          width: \\\'640\\\',\\n          videoId: \\\'\', escape=False)'
p110
sI104
S'    response.write(song.url)'
p111
sI105
S'    response.write("\',\\n          events: {\\n            \'onReady\': onPlayerReady,\\n            \'onStateChange\': onPlayerStateChange\\n          }\\n        });\\n      }\\n\\n      // 4. The API will call this function when the video player is ready.\\n      function onPlayerReady(event) {\\n        event.target.playVideo();\\n      }\\n\\n      // 5. The API calls this function when the player\'s state changes.\\n      //    The function indicates that when playing a video (state=1),\\n      //    the player should play for six seconds and then stop.\\n      var done = false;\\n      function onPlayerStateChange(event) {\\n        if (event.data == YT.PlayerState.PLAYING && !done) {\\n          //setTimeout(stopVideo, 6000);\\n          done = true;\\n        }\\n      }\\n      function stopVideo() {\\n        player.stopVideo();\\n      }\\n    </script>\\n", escape=False)'
p112
sI106
S'    pass'
p113
sI107
S'response.write(\'\\n\\n<fieldset class="rating">\\n    <legend>Please rate:</legend>\\n    <input type="radio" id="star5" name="rating" value="5" /><label for="star5" title="Rocks!">5 stars</label>\\n    <input type="radio" id="star4" name="rating" value="4" /><label for="star4" title="Pretty good">4 stars</label>\\n    <input type="radio" id="star3" name="rating" value="3" /><label for="star3" title="Meh">3 stars</label>\\n    <input type="radio" id="star2" name="rating" value="2" /><label for="star2" title="Kinda bad">2 stars</label>\\n    <input type="radio" id="star1" name="rating" value="1" /><label for="star1" title="Sucks big time">1 star</label>\\n</fieldset>\\n\\n<div style="padding-top:10%;">\\n\', escape=False)'
p114
sI108
S"response.write(A('Click here ', _href=URL('mark_favourite',args=song.id)))"
p115
sI89
S'    response.write(\' type="audio/mpeg">\\n                \', escape=False)'
p116
sI90
S'    #print song.url'
p117
sI91
S'    response.write(\'\\n                Your browser does not support the audio tag.</div>\\n            </audio>  -->\\n    <div id="1">\\n    \', escape=False)'
p118
sI92
S'    import soundcloud'
p119
sI93
S"    response.write('\\n    ', escape=False)"
p120
sI94
S"    client = soundcloud.Client(client_id='f4e257503f0990527a6e17e14158076e')"
p121
sI95
S"    response.write('\\n    ', escape=False)"
p122
ssg93
S'()'
p123
sg95
S'<module>'
p124
sa(dp125
g72
S'/usr/local/lib/python2.7/dist-packages/soundcloud/client.py'
p126
sg74
(dp127
S'global make_request'
p128
S'<function make_request>'
p129
sS'url'
p130
S"'https://api.soundcloud.com/oembed.json'"
p131
sS'global wrapped_resource'
p132
S'<function wrapped_resource>'
p133
sS'method'
p134
S"'get'"
p135
sS'kwargs'
p136
S"{'client_id': 'f4e257503f0990527a6e17e14158076e', 'url': 'https://soundcloud.com/hadeel_muruj/saathi-tera-ban-jaoo-kyu-hain'}"
p137
ssg80
I130
sg81
(dp138
I128
S"            'proxies': self.options.get('proxies', None)"
p139
sI129
S'        })'
p140
sI130
S'        return wrapped_resource(make_request(method, url, kwargs))'
p141
sI131
S''
sI132
S'    def __getattr__(self, name, **kwargs):'
p142
sI133
S'        """Translate an HTTP verb into a request method."""'
p143
sI134
S"        if name not in ('get', 'post', 'put', 'head', 'delete'):"
p144
sI125
S''
sI126
S'        kwargs.update({'
p145
sI127
S"            'verify_ssl': self.options.get('verify_ssl', True),"
p146
ssg93
S"(self=<soundcloud.client.Client object>, method='get', resource='/oembed', **kwargs={'client_id': 'f4e257503f0990527a6e17e14158076e', 'url': 'https://soundcloud.com/hadeel_muruj/saathi-tera-ban-jaoo-kyu-hain'})"
p147
sg95
S'_request'
p148
sa(dp149
g72
S'/usr/local/lib/python2.7/dist-packages/soundcloud/request.py'
p150
sg74
(dp151
S'request_func'
p152
S'<function get>'
p153
sS'url'
p154
S"'https://api.soundcloud.com/oembed.json'"
p155
sS'qs'
p156
S"'url=https%3A%2F%2Fsoundcloud.com%2Fhadeel_muruj%...u-hain&client_id=f4e257503f0990527a6e17e14158076e'"
p157
sS'result'
p158
g101
sS'kwargs'
p159
S"{'allow_redirects': True, 'headers': {'User-Agent': 'SoundCloud Python API Wrapper 0.4.1'}}"
p160
ssg80
I122
sg81
(dp161
I117
S'    if request_func is None:'
p162
sI118
S"        raise TypeError('Unknown method: %s' % (method,))"
p163
sI119
S''
sI120
S"    if method == 'get':"
p164
sI121
S'        qs = urllib.urlencode(data)'
p165
sI122
S"        result = request_func('%s?%s' % (url, qs), **kwargs)"
p166
sI123
S'    else:'
p167
sI124
S"        kwargs['data'] = data"
p168
sI125
S'        if files:'
p169
sI126
S"            kwargs['files'] = files"
p170
ssg93
S"(method='get', url='https://api.soundcloud.com/oembed.json', params={'client_id': 'f4e257503f0990527a6e17e14158076e', 'url': 'https://soundcloud.com/hadeel_muruj/saathi-tera-ban-jaoo-kyu-hain'})"
p171
sg95
S'make_request'
p172
sa(dp173
g72
S'/usr/lib/python2.7/dist-packages/requests/api.py'
p174
sg74
(dp175
S'global request'
p176
S'<function request>'
p177
sS'url'
p178
S"'https://api.soundcloud.com/oembed.json?url=https...u-hain&client_id=f4e257503f0990527a6e17e14158076e'"
p179
sS'kwargs'
p180
S"{'allow_redirects': True, 'headers': {'User-Agent': 'SoundCloud Python API Wrapper 0.4.1'}}"
p181
ssg80
I55
sg81
(dp182
I50
S'    :param url: URL for the new :class:`Request` object.'
p183
sI51
S'    :param \\*\\*kwargs: Optional arguments that ``request`` takes.'
p184
sI52
S'    """'
p185
sI53
S''
sI54
S"    kwargs.setdefault('allow_redirects', True)"
p186
sI55
S"    return request('get', url, **kwargs)"
p187
sI56
S''
sI57
S''
sI58
S'def options(url, **kwargs):'
p188
sI59
S'    """Sends a OPTIONS request. Returns :class:`Response` object.'
p189
ssg93
S"(url='https://api.soundcloud.com/oembed.json?url=https...u-hain&client_id=f4e257503f0990527a6e17e14158076e', **kwargs={'allow_redirects': True, 'headers': {'User-Agent': 'SoundCloud Python API Wrapper 0.4.1'}})"
p190
sg95
S'get'
p191
sa(dp192
g72
S'/usr/lib/python2.7/dist-packages/requests/api.py'
p193
sg74
(dp194
S'url'
p195
S"'https://api.soundcloud.com/oembed.json?url=https...u-hain&client_id=f4e257503f0990527a6e17e14158076e'"
p196
sS'session'
p197
S'<requests.sessions.Session object>'
p198
sS'method'
p199
S"'get'"
p200
sS'session.request'
p201
S'<bound method Session.request of <requests.sessions.Session object>>'
p202
sS'kwargs'
p203
S"{'allow_redirects': True, 'headers': {'User-Agent': 'SoundCloud Python API Wrapper 0.4.1'}}"
p204
ssg80
I44
sg81
(dp205
I39
S"      >>> req = requests.request('GET', 'http://httpbin.org/get')"
p206
sI40
S'      <Response [200]>'
p207
sI41
S'    """'
p208
sI42
S''
sI43
S'    session = sessions.Session()'
p209
sI44
S'    return session.request(method=method, url=url, **kwargs)'
p210
sI45
S''
sI46
S''
sI47
S'def get(url, **kwargs):'
p211
sI48
S'    """Sends a GET request. Returns :class:`Response` object.'
p212
ssg93
S"(method='get', url='https://api.soundcloud.com/oembed.json?url=https...u-hain&client_id=f4e257503f0990527a6e17e14158076e', **kwargs={'allow_redirects': True, 'headers': {'User-Agent': 'SoundCloud Python API Wrapper 0.4.1'}})"
p213
sg95
g66
sa(dp214
g72
S'/usr/lib/python2.7/dist-packages/requests/sessions.py'
p215
sg74
(dp216
S'resp'
p217
g101
sS'send_kwargs'
p218
S"{'allow_redirects': True, 'cert': None, 'proxies': OrderedDict(), 'stream': False, 'timeout': None, 'verify': True}"
p219
sS'prep'
p220
S'<PreparedRequest [GET]>'
p221
sS'self'
p222
S'<requests.sessions.Session object>'
p223
sS'self.send'
p224
S'<bound method Session.send of <requests.sessions.Session object>>'
p225
ssg80
I455
sg81
(dp226
I450
S"            'verify': verify,"
p227
sI451
S"            'cert': cert,"
p228
sI452
S"            'proxies': proxies,"
p229
sI453
S"            'allow_redirects': allow_redirects,"
p230
sI454
S'        }'
p231
sI455
S'        resp = self.send(prep, **send_kwargs)'
p232
sI456
S''
sI457
S'        return resp'
p233
sI458
S''
sI459
S'    def get(self, url, **kwargs):'
p234
ssg93
S"(self=<requests.sessions.Session object>, method='get', url='https://api.soundcloud.com/oembed.json?url=https...u-hain&client_id=f4e257503f0990527a6e17e14158076e', params=None, data=None, headers={'User-Agent': 'SoundCloud Python API Wrapper 0.4.1'}, cookies=None, files=None, auth=None, timeout=None, allow_redirects=True, proxies=OrderedDict(), hooks=None, stream=False, verify=True, cert=None)"
p235
sg95
g66
sa(dp236
g72
S'/usr/lib/python2.7/dist-packages/requests/sessions.py'
p237
sg74
(dp238
S'request'
p239
S'<PreparedRequest [GET]>'
p240
sS'adapter'
p241
S'<requests.adapters.HTTPAdapter object>'
p242
sS'r'
g101
sS'adapter.send'
p243
S'<bound method HTTPAdapter.send of <requests.adapters.HTTPAdapter object>>'
p244
sS'kwargs'
p245
S"{'cert': None, 'proxies': OrderedDict(), 'stream': False, 'timeout': None, 'verify': True}"
p246
ssg80
I558
sg81
(dp247
I553
S'        adapter = self.get_adapter(url=request.url)'
p248
sI554
S''
sI555
S'        # Start time (approximately) of the request'
p249
sI556
S'        start = datetime.utcnow()'
p250
sI557
S'        # Send the request'
p251
sI558
S'        r = adapter.send(request, **kwargs)'
p252
sI559
S'        # Total elapsed time of the request (approximately)'
p253
sI560
S'        r.elapsed = datetime.utcnow() - start'
p254
sI561
S''
sI562
S'        # Response manipulation hooks'
p255
ssg93
S"(self=<requests.sessions.Session object>, request=<PreparedRequest [GET]>, **kwargs={'cert': None, 'proxies': OrderedDict(), 'stream': False, 'timeout': None, 'verify': True})"
p256
sg95
S'send'
p257
sa(dp258
g72
S'/usr/lib/python2.7/dist-packages/requests/adapters.py'
p259
sg74
(dp260
S'global ConnectionError'
p261
S"<class 'requests.exceptions.ConnectionError'>"
p262
sS'e'
S'MaxRetryError("HTTPSConnectionPool(host=\'api.sou...error\'>: [Errno -2] Name or service not known)",)'
p263
ssg80
I378
sg81
(dp264
I373
S''
sI374
S'        except socket.error as sockerr:'
p265
sI375
S'            raise ConnectionError(sockerr)'
p266
sI376
S''
sI377
S'        except MaxRetryError as e:'
p267
sI378
S'            raise ConnectionError(e)'
p268
sI379
S''
sI380
S'        except _ProxyError as e:'
p269
sI381
S'            raise ProxyError(e)'
p270
sI382
S''
ssg93
S'(self=<requests.adapters.HTTPAdapter object>, request=<PreparedRequest [GET]>, stream=False, timeout=<urllib3.util.Timeout object>, verify=True, cert=None, proxies=OrderedDict())'
p271
sg95
g257
sasS'pyver'
p272
S'Python 2.7.6: /usr/bin/python (prefix: /usr)'
p273
sS'session'
p274
g67
(S's\x1a\x00\x00\x00<div><table></table></div>'
tRp275
sS'etype'
p276
S"<class 'requests.exceptions.ConnectionError'>"
p277
sS'date'
p278
S'Sat Nov 21 02:31:19 2015'
p279
sS'response'
p280
g67
(S's\x91?\x00\x00<div><table><tr><td style="font-weight:bold;vertical-align:top;">body</td><td style="vertical-align:top;">:</td><td><div>&lt;cStringIO.StringO object at 0x7f622e9b4298&gt;</div></td></tr><tr><td style="font-weight:bold;vertical-align:top;">cookies</td><td style="vertical-align:top;">:</td><td><div><table><tr><td style="font-weight:bold;vertical-align:top;">session_id_final</td><td style="vertical-align:top;">:</td><td><div>127.0.0.1-41b11f1a-482c-49fd-975f-7aa9cbae2bcd<table><tr><td style="font-weight:bold;vertical-align:top;">comment</td><td style="vertical-align:top;">:</td><td><div></div></td></tr><tr><td style="font-weight:bold;vertical-align:top;">domain</td><td style="vertical-align:top;">:</td><td><div></div></td></tr><tr><td style="font-weight:bold;vertical-align:top;">expires</td><td style="vertical-align:top;">:</td><td><div></div></td></tr><tr><td style="font-weight:bold;vertical-align:top;">httponly</td><td style="vertical-align:top;">:</td><td><div></div></td></tr><tr><td style="font-weight:bold;vertical-align:top;">max-age</td><td style="vertical-align:top;">:</td><td><div></div></td></tr><tr><td style="font-weight:bold;vertical-align:top;">path</td><td style="vertical-align:top;">:</td><td><div>/</div></td></tr><tr><td style="font-weight:bold;vertical-align:top;">secure</td><td style="vertical-align:top;">:</td><td><div></div></td></tr><tr><td style="font-weight:bold;vertical-align:top;">version</td><td style="vertical-align:top;">:</td><td><div></div></td></tr></table></div></td></tr></table></div></td></tr><tr><td style="font-weight:bold;vertical-align:top;">delimiters</td><td style="vertical-align:top;">:</td><td><div><table><tr><td><div>{{</div></td></tr><tr><td><div>}}</div></td></tr></table></div></td></tr><tr><td style="font-weight:bold;vertical-align:top;">files</td><td style="vertical-align:top;">:</td><td><div><table></table></div></td></tr><tr><td style="font-weight:bold;vertical-align:top;">flash</td><td style="vertical-align:top;">:</td><td><div></div></td></tr><tr><td style="font-weight:bold;vertical-align:top;">form_label_separator</td><td style="vertical-align:top;">:</td><td><div></div></td></tr><tr><td style="font-weight:bold;vertical-align:top;">formstyle</td><td style="vertical-align:top;">:</td><td><div>bootstrap3_inline</div></td></tr><tr><td style="font-weight:bold;vertical-align:top;">generic_patterns</td><td style="vertical-align:top;">:</td><td><div><table><tr><td><div>*</div></td></tr></table></div></td></tr><tr><td style="font-weight:bold;vertical-align:top;">google_analytics_id</td><td style="vertical-align:top;">:</td><td><div>None</div></td></tr><tr><td style="font-weight:bold;vertical-align:top;">headers</td><td style="vertical-align:top;">:</td><td><div><table><tr><td style="font-weight:bold;vertical-align:top;">X-Powered-By</td><td style="vertical-align:top;">:</td><td><div>web2py</div></td></tr></table></div></td></tr><tr><td style="font-weight:bold;vertical-align:top;">logo</td><td style="vertical-align:top;">:</td><td><div><a class="navbar-brand" href="http://www.web2py.com/" id="web2py-logo"><b>web<span>2</span>py</b>&trade;&nbsp;</a></div></td></tr><tr><td style="font-weight:bold;vertical-align:top;">menu</td><td style="vertical-align:top;">:</td><td><div><table><tr><td><div><table><tr><td><div>Home</div></td></tr><tr><td><div>False</div></td></tr><tr><td><div>/final/default/index</div></td></tr><tr><td><div><table></table></div></td></tr></table></div></td></tr><tr><td><div><table><tr><td><div>My Sites</div></td></tr><tr><td><div>False</div></td></tr><tr><td><div>/admin/default/site</div></td></tr></table></div></td></tr><tr><td><div><table><tr><td><div>This App</div></td></tr><tr><td><div>False</div></td></tr><tr><td><div>#</div></td></tr><tr><td><div><table><tr><td><div><table><tr><td><div>Design</div></td></tr><tr><td><div>False</div></td></tr><tr><td><div>/admin/default/design/final</div></td></tr></table></div></td></tr><tr><td><div><li class="divider"></li></div></td></tr><tr><td><div><table><tr><td><div>Controller</div></td></tr><tr><td><div>False</div></td></tr><tr><td><div>/admin/default/edit/final/controllers/default.py</div></td></tr></table></div></td></tr><tr><td><div><table><tr><td><div>View</div></td></tr><tr><td><div>False</div></td></tr><tr><td><div>/admin/default/edit/final/views/default/see.html</div></td></tr></table></div></td></tr><tr><td><div><table><tr><td><div>DB Model</div></td></tr><tr><td><div>False</div></td></tr><tr><td><div>/admin/default/edit/final/models/db.py</div></td></tr></table></div></td></tr><tr><td><div><table><tr><td><div>Menu Model</div></td></tr><tr><td><div>False</div></td></tr><tr><td><div>/admin/default/edit/final/models/menu.py</div></td></tr></table></div></td></tr><tr><td><div><table><tr><td><div>Config.ini</div></td></tr><tr><td><div>False</div></td></tr><tr><td><div>/admin/default/edit/final/private/appconfig.ini</div></td></tr></table></div></td></tr><tr><td><div><table><tr><td><div>Layout</div></td></tr><tr><td><div>False</div></td></tr><tr><td><div>/admin/default/edit/final/views/layout.html</div></td></tr></table></div></td></tr><tr><td><div><table><tr><td><div>Stylesheet</div></td></tr><tr><td><div>False</div></td></tr><tr><td><div>/admin/default/edit/final/static/css/web2py-bootstrap3.css</div></td></tr></table></div></td></tr><tr><td><div><table><tr><td><div>Database</div></td></tr><tr><td><div>False</div></td></tr><tr><td><div>/final/appadmin/index</div></td></tr></table></div></td></tr><tr><td><div><table><tr><td><div>Errors</div></td></tr><tr><td><div>False</div></td></tr><tr><td><div>/admin/default/errors/final</div></td></tr></table></div></td></tr><tr><td><div><table><tr><td><div>About</div></td></tr><tr><td><div>False</div></td></tr><tr><td><div>/admin/default/about/final</div></td></tr></table></div></td></tr></table></div></td></tr></table></div></td></tr><tr><td><div><table><tr><td><div>web2py.com</div></td></tr><tr><td><div>False</div></td></tr><tr><td><div>#</div></td></tr><tr><td><div><table><tr><td><div><table><tr><td><div>Download</div></td></tr><tr><td><div>False</div></td></tr><tr><td><div>http://www.web2py.com/examples/default/download</div></td></tr></table></div></td></tr><tr><td><div><table><tr><td><div>Support</div></td></tr><tr><td><div>False</div></td></tr><tr><td><div>http://www.web2py.com/examples/default/support</div></td></tr></table></div></td></tr><tr><td><div><table><tr><td><div>Demo</div></td></tr><tr><td><div>False</div></td></tr><tr><td><div>http://web2py.com/demo_admin</div></td></tr></table></div></td></tr><tr><td><div><table><tr><td><div>Quick Examples</div></td></tr><tr><td><div>False</div></td></tr><tr><td><div>http://web2py.com/examples/default/examples</div></td></tr></table></div></td></tr><tr><td><div><table><tr><td><div>FAQ</div></td></tr><tr><td><div>False</div></td></tr><tr><td><div>http://web2py.com/AlterEgo</div></td></tr></table></div></td></tr><tr><td><div><table><tr><td><div>Videos</div></td></tr><tr><td><div>False</div></td></tr><tr><td><div>http://www.web2py.com/examples/default/videos/</div></td></tr></table></div></td></tr><tr><td><div><table><tr><td><div>Free Applications</div></td></tr><tr><td><div>False</div></td></tr><tr><td><div>http://web2py.com/appliances</div></td></tr></table></div></td></tr><tr><td><div><table><tr><td><div>Plugins</div></td></tr><tr><td><div>False</div></td></tr><tr><td><div>http://web2py.com/plugins</div></td></tr></table></div></td></tr><tr><td><div><table><tr><td><div>Recipes</div></td></tr><tr><td><div>False</div></td></tr><tr><td><div>http://web2pyslices.com/</div></td></tr></table></div></td></tr></table></div></td></tr></table></div></td></tr><tr><td><div><table><tr><td><div>Documentation</div></td></tr><tr><td><div>False</div></td></tr><tr><td><div>#</div></td></tr><tr><td><div><table><tr><td><div><table><tr><td><div>Online book</div></td></tr><tr><td><div>False</div></td></tr><tr><td><div>http://www.web2py.com/book</div></td></tr></table></div></td></tr><tr><td><div><li class="divider"></li></div></td></tr><tr><td><div><table><tr><td><div>Preface</div></td></tr><tr><td><div>False</div></td></tr><tr><td><div>http://www.web2py.com/book/default/chapter/00</div></td></tr></table></div></td></tr><tr><td><div><table><tr><td><div>Introduction</div></td></tr><tr><td><div>False</div></td></tr><tr><td><div>http://www.web2py.com/book/default/chapter/01</div></td></tr></table></div></td></tr><tr><td><div><table><tr><td><div>Python</div></td></tr><tr><td><div>False</div></td></tr><tr><td><div>http://www.web2py.com/book/default/chapter/02</div></td></tr></table></div></td></tr><tr><td><div><table><tr><td><div>Overview</div></td></tr><tr><td><div>False</div></td></tr><tr><td><div>http://www.web2py.com/book/default/chapter/03</div></td></tr></table></div></td></tr><tr><td><div><table><tr><td><div>The Core</div></td></tr><tr><td><div>False</div></td></tr><tr><td><div>http://www.web2py.com/book/default/chapter/04</div></td></tr></table></div></td></tr><tr><td><div><table><tr><td><div>The Views</div></td></tr><tr><td><div>False</div></td></tr><tr><td><div>http://www.web2py.com/book/default/chapter/05</div></td></tr></table></div></td></tr><tr><td><div><table><tr><td><div>Database</div></td></tr><tr><td><div>False</div></td></tr><tr><td><div>http://www.web2py.com/book/default/chapter/06</div></td></tr></table></div></td></tr><tr><td><div><table><tr><td><div>Forms and Validators</div></td></tr><tr><td><div>False</div></td></tr><tr><td><div>http://www.web2py.com/book/default/chapter/07</div></td></tr></table></div></td></tr><tr><td><div><table><tr><td><div>Email and SMS</div></td></tr><tr><td><div>False</div></td></tr><tr><td><div>http://www.web2py.com/book/default/chapter/08</div></td></tr></table></div></td></tr><tr><td><div><table><tr><td><div>Access Control</div></td></tr><tr><td><div>False</div></td></tr><tr><td><div>http://www.web2py.com/book/default/chapter/09</div></td></tr></table></div></td></tr><tr><td><div><table><tr><td><div>Services</div></td></tr><tr><td><div>False</div></td></tr><tr><td><div>http://www.web2py.com/book/default/chapter/10</div></td></tr></table></div></td></tr><tr><td><div><table><tr><td><div>Ajax Recipes</div></td></tr><tr><td><div>False</div></td></tr><tr><td><div>http://www.web2py.com/book/default/chapter/11</div></td></tr></table></div></td></tr><tr><td><div><table><tr><td><div>Components and Plugins</div></td></tr><tr><td><div>False</div></td></tr><tr><td><div>http://www.web2py.com/book/default/chapter/12</div></td></tr></table></div></td></tr><tr><td><div><table><tr><td><div>Deployment Recipes</div></td></tr><tr><td><div>False</div></td></tr><tr><td><div>http://www.web2py.com/book/default/chapter/13</div></td></tr></table></div></td></tr><tr><td><div><table><tr><td><div>Other Recipes</div></td></tr><tr><td><div>False</div></td></tr><tr><td><div>http://www.web2py.com/book/default/chapter/14</div></td></tr></table></div></td></tr><tr><td><div><table><tr><td><div>Helping web2py</div></td></tr><tr><td><div>False</div></td></tr><tr><td><div>http://www.web2py.com/book/default/chapter/15</div></td></tr></table></div></td></tr><tr><td><div><table><tr><td><div>Buy web2py\'s book</div></td></tr><tr><td><div>False</div></td></tr><tr><td><div>http://stores.lulu.com/web2py</div></td></tr></table></div></td></tr></table></div></td></tr></table></div></td></tr><tr><td><div><table><tr><td><div>Community</div></td></tr><tr><td><div>False</div></td></tr><tr><td><div>None</div></td></tr><tr><td><div><table><tr><td><div><table><tr><td><div>Groups</div></td></tr><tr><td><div>False</div></td></tr><tr><td><div>http://www.web2py.com/examples/default/usergroups</div></td></tr></table></div></td></tr><tr><td><div><table><tr><td><div>Twitter</div></td></tr><tr><td><div>False</div></td></tr><tr><td><div>http://twitter.com/web2py</div></td></tr></table></div></td></tr><tr><td><div><table><tr><td><div>Live Chat</div></td></tr><tr><td><div>False</div></td></tr><tr><td><div>http://webchat.freenode.net/?channels=web2py</div></td></tr></table></div></td></tr></table></div></td></tr></table></div></td></tr></table></div></td></tr><tr><td style="font-weight:bold;vertical-align:top;">meta</td><td style="vertical-align:top;">:</td><td><div><table><tr><td style="font-weight:bold;vertical-align:top;">author</td><td style="vertical-align:top;">:</td><td><div>Your Name &lt;you@example.com&gt;</div></td></tr><tr><td style="font-weight:bold;vertical-align:top;">description</td><td style="vertical-align:top;">:</td><td><div>a cool new app</div></td></tr><tr><td style="font-weight:bold;vertical-align:top;">generator</td><td style="vertical-align:top;">:</td><td><div>Web2py Web Framework</div></td></tr><tr><td style="font-weight:bold;vertical-align:top;">keywords</td><td style="vertical-align:top;">:</td><td><div>web2py, python, framework</div></td></tr></table></div></td></tr><tr><td style="font-weight:bold;vertical-align:top;">models_to_run</td><td style="vertical-align:top;">:</td><td><div><table><tr><td><div>^\\w+\\.py$</div></td></tr><tr><td><div>^default/\\w+\\.py$</div></td></tr><tr><td><div>^default/see/\\w+\\.py$</div></td></tr></table></div></td></tr><tr><td style="font-weight:bold;vertical-align:top;">postprocessing</td><td style="vertical-align:top;">:</td><td><div><table></table></div></td></tr><tr><td style="font-weight:bold;vertical-align:top;">session_client</td><td style="vertical-align:top;">:</td><td><div>127.0.0.1</div></td></tr><tr><td style="font-weight:bold;vertical-align:top;">session_cookie_compression_level</td><td style="vertical-align:top;">:</td><td><div>None</div></td></tr><tr><td style="font-weight:bold;vertical-align:top;">session_cookie_expires</td><td style="vertical-align:top;">:</td><td><div>None</div></td></tr><tr><td style="font-weight:bold;vertical-align:top;">session_cookie_key</td><td style="vertical-align:top;">:</td><td><div>None</div></td></tr><tr><td style="font-weight:bold;vertical-align:top;">session_data_name</td><td style="vertical-align:top;">:</td><td><div>session_data_final</div></td></tr><tr><td style="font-weight:bold;vertical-align:top;">session_file</td><td style="vertical-align:top;">:</td><td><div>&lt;open file &#x27;/home/abhi/Downloads/CourseMaterial/web2Py/web2py/applications/final/sessions/1fa/149/127.0.0.1-41b11f1a-482c-49fd-975f-7aa9cbae2bcd&#x27;, mode &#x27;rb+&#x27; at 0x7f622e809030&gt;</div></td></tr><tr><td style="font-weight:bold;vertical-align:top;">session_filename</td><td style="vertical-align:top;">:</td><td><div>/home/abhi/Downloads/CourseMaterial/web2Py/web2py/applications/final/sessions/127.0.0.1-41b11f1a-482c-49fd-975f-7aa9cbae2bcd</div></td></tr><tr><td style="font-weight:bold;vertical-align:top;">session_hash</td><td style="vertical-align:top;">:</td><td><div>eaad28691a1a68fe6f52c9331cc73ae5</div></td></tr><tr><td style="font-weight:bold;vertical-align:top;">session_id</td><td style="vertical-align:top;">:</td><td><div>127.0.0.1-41b11f1a-482c-49fd-975f-7aa9cbae2bcd</div></td></tr><tr><td style="font-weight:bold;vertical-align:top;">session_id_name</td><td style="vertical-align:top;">:</td><td><div>session_id_final</div></td></tr><tr><td style="font-weight:bold;vertical-align:top;">session_locked</td><td style="vertical-align:top;">:</td><td><div>True</div></td></tr><tr><td style="font-weight:bold;vertical-align:top;">session_masterapp</td><td style="vertical-align:top;">:</td><td><div>final</div></td></tr><tr><td style="font-weight:bold;vertical-align:top;">session_new</td><td style="vertical-align:top;">:</td><td><div>False</div></td></tr><tr><td style="font-weight:bold;vertical-align:top;">session_storage_type</td><td style="vertical-align:top;">:</td><td><div>file</div></td></tr><tr><td style="font-weight:bold;vertical-align:top;">status</td><td style="vertical-align:top;">:</td><td><div>200</div></td></tr><tr><td style="font-weight:bold;vertical-align:top;">subtitle</td><td style="vertical-align:top;">:</td><td><div></div></td></tr><tr><td style="font-weight:bold;vertical-align:top;">title</td><td style="vertical-align:top;">:</td><td><div>Final</div></td></tr><tr><td style="font-weight:bold;vertical-align:top;">view</td><td style="vertical-align:top;">:</td><td><div>default/see.html</div></td></tr></table></div>'
tRp281
sS'locals'
p282
(dp283
S'proxies'
p284
S'OrderedDict()'
p285
sS'e'
S'MaxRetryError("HTTPSConnectionPool(host=\'api.sou...error\'>: [Errno -2] Name or service not known)",)'
p286
sS'stream'
p287
S'False'
p288
sS'url'
p289
S"'/oembed.json?url=https%3A%2F%2Fsoundcloud.com%2F...u-hain&client_id=f4e257503f0990527a6e17e14158076e'"
p290
sS'verify'
p291
S'True'
p292
sS'self'
p293
S'<requests.adapters.HTTPAdapter object>'
p294
sg66
S'<PreparedRequest [GET]>'
p295
sS'cert'
p296
S'None'
p297
sS'timeout'
p298
S'<urllib3.util.Timeout object>'
p299
sS'chunked'
p300
g288
sS'conn'
p301
S'<urllib3.connectionpool.HTTPSConnectionPool object>'
p302
sssS'traceback'
p303
S'Traceback (most recent call last):\n  File "/home/abhi/Downloads/CourseMaterial/web2Py/web2py/gluon/restricted.py", line 227, in restricted\n    exec ccode in environment\n  File "/home/abhi/Downloads/CourseMaterial/web2Py/web2py/applications/final/views/default/see.html", line 98, in <module>\n  File "/usr/local/lib/python2.7/dist-packages/soundcloud/client.py", line 130, in _request\n    return wrapped_resource(make_request(method, url, kwargs))\n  File "/usr/local/lib/python2.7/dist-packages/soundcloud/request.py", line 122, in make_request\n    result = request_func(\'%s?%s\' % (url, qs), **kwargs)\n  File "/usr/lib/python2.7/dist-packages/requests/api.py", line 55, in get\n    return request(\'get\', url, **kwargs)\n  File "/usr/lib/python2.7/dist-packages/requests/api.py", line 44, in request\n    return session.request(method=method, url=url, **kwargs)\n  File "/usr/lib/python2.7/dist-packages/requests/sessions.py", line 455, in request\n    resp = self.send(prep, **send_kwargs)\n  File "/usr/lib/python2.7/dist-packages/requests/sessions.py", line 558, in send\n    r = adapter.send(request, **kwargs)\n  File "/usr/lib/python2.7/dist-packages/requests/adapters.py", line 378, in send\n    raise ConnectionError(e)\nConnectionError: HTTPSConnectionPool(host=\'api.soundcloud.com\', port=443): Max retries exceeded with url: /oembed.json?url=https%3A%2F%2Fsoundcloud.com%2Fhadeel_muruj%2Fsaathi-tera-ban-jaoo-kyu-hain&client_id=f4e257503f0990527a6e17e14158076e (Caused by <class \'socket.gaierror\'>: [Errno -2] Name or service not known)\n'
p304
s.